
.\Debug\uraura.elf:     file format elf32-littlearm


Disassembly of section .isr_vector:

08000000 <g_pfnVectors>:
 8000000:	20020000 			@ <UNDEFINED> instruction: 20020000
 8000004:	08000665 			@ <UNDEFINED> instruction: 08000665
 8000008:	080006b5 			@ <UNDEFINED> instruction: 080006b5
 800000c:	080006b5 			@ <UNDEFINED> instruction: 080006b5
 8000010:	080006b5 			@ <UNDEFINED> instruction: 080006b5
 8000014:	080006b5 			@ <UNDEFINED> instruction: 080006b5
 8000018:	080006b5 			@ <UNDEFINED> instruction: 080006b5
	...
 800002c:	080003b1 			@ <UNDEFINED> instruction: 080003b1
 8000030:	080006b5 			@ <UNDEFINED> instruction: 080006b5
 8000034:	00000000 			@ <UNDEFINED> instruction: 00000000
 8000038:	08000501 			@ <UNDEFINED> instruction: 08000501
 800003c:	080003d5 			@ <UNDEFINED> instruction: 080003d5
 8000040:	080006b5 			@ <UNDEFINED> instruction: 080006b5
 8000044:	080006b5 			@ <UNDEFINED> instruction: 080006b5
 8000048:	080006b5 			@ <UNDEFINED> instruction: 080006b5
 800004c:	080006b5 			@ <UNDEFINED> instruction: 080006b5
 8000050:	080006b5 			@ <UNDEFINED> instruction: 080006b5
 8000054:	080006b5 			@ <UNDEFINED> instruction: 080006b5
 8000058:	080006b5 			@ <UNDEFINED> instruction: 080006b5
 800005c:	080006b5 			@ <UNDEFINED> instruction: 080006b5
 8000060:	080006b5 			@ <UNDEFINED> instruction: 080006b5
 8000064:	080006b5 			@ <UNDEFINED> instruction: 080006b5
 8000068:	080006b5 			@ <UNDEFINED> instruction: 080006b5
 800006c:	080006b5 			@ <UNDEFINED> instruction: 080006b5
 8000070:	080006b5 			@ <UNDEFINED> instruction: 080006b5
 8000074:	080006b5 			@ <UNDEFINED> instruction: 080006b5
 8000078:	080006b5 			@ <UNDEFINED> instruction: 080006b5
 800007c:	080006b5 			@ <UNDEFINED> instruction: 080006b5
 8000080:	080006b5 			@ <UNDEFINED> instruction: 080006b5
 8000084:	080006b5 			@ <UNDEFINED> instruction: 080006b5
 8000088:	080006b5 			@ <UNDEFINED> instruction: 080006b5
 800008c:	080006b5 			@ <UNDEFINED> instruction: 080006b5
 8000090:	080006b5 			@ <UNDEFINED> instruction: 080006b5
 8000094:	080006b5 			@ <UNDEFINED> instruction: 080006b5
 8000098:	080006b5 			@ <UNDEFINED> instruction: 080006b5
 800009c:	080006b5 			@ <UNDEFINED> instruction: 080006b5
 80000a0:	080006b5 			@ <UNDEFINED> instruction: 080006b5
 80000a4:	080006b5 			@ <UNDEFINED> instruction: 080006b5
 80000a8:	080006b5 			@ <UNDEFINED> instruction: 080006b5
 80000ac:	080006b5 			@ <UNDEFINED> instruction: 080006b5
 80000b0:	0800059f 			@ <UNDEFINED> instruction: 0800059f
 80000b4:	080005cf 			@ <UNDEFINED> instruction: 080005cf
 80000b8:	08000601 			@ <UNDEFINED> instruction: 08000601
 80000bc:	080006b5 			@ <UNDEFINED> instruction: 080006b5
 80000c0:	080006b5 			@ <UNDEFINED> instruction: 080006b5
 80000c4:	080006b5 			@ <UNDEFINED> instruction: 080006b5
 80000c8:	080006b5 			@ <UNDEFINED> instruction: 080006b5
 80000cc:	080006b5 			@ <UNDEFINED> instruction: 080006b5
 80000d0:	080006b5 			@ <UNDEFINED> instruction: 080006b5
 80000d4:	080006b5 			@ <UNDEFINED> instruction: 080006b5
 80000d8:	080006b5 			@ <UNDEFINED> instruction: 080006b5
 80000dc:	080006b5 			@ <UNDEFINED> instruction: 080006b5
 80000e0:	080006b5 			@ <UNDEFINED> instruction: 080006b5
 80000e4:	080006b5 			@ <UNDEFINED> instruction: 080006b5
 80000e8:	080006b5 			@ <UNDEFINED> instruction: 080006b5
 80000ec:	080006b5 			@ <UNDEFINED> instruction: 080006b5
 80000f0:	080006b5 			@ <UNDEFINED> instruction: 080006b5
 80000f4:	080006b5 			@ <UNDEFINED> instruction: 080006b5
 80000f8:	080006b5 			@ <UNDEFINED> instruction: 080006b5
 80000fc:	080006b5 			@ <UNDEFINED> instruction: 080006b5
 8000100:	080006b5 			@ <UNDEFINED> instruction: 080006b5
 8000104:	080006b5 			@ <UNDEFINED> instruction: 080006b5
 8000108:	08000633 			@ <UNDEFINED> instruction: 08000633
 800010c:	080006b5 			@ <UNDEFINED> instruction: 080006b5
 8000110:	080006b5 			@ <UNDEFINED> instruction: 080006b5
 8000114:	080006b5 			@ <UNDEFINED> instruction: 080006b5
 8000118:	080006b5 			@ <UNDEFINED> instruction: 080006b5
 800011c:	080006b5 			@ <UNDEFINED> instruction: 080006b5
 8000120:	080006b5 			@ <UNDEFINED> instruction: 080006b5
 8000124:	080006b5 			@ <UNDEFINED> instruction: 080006b5
 8000128:	080006b5 			@ <UNDEFINED> instruction: 080006b5
 800012c:	080006b5 			@ <UNDEFINED> instruction: 080006b5
 8000130:	080006b5 			@ <UNDEFINED> instruction: 080006b5
 8000134:	080006b5 			@ <UNDEFINED> instruction: 080006b5
 8000138:	080006b5 			@ <UNDEFINED> instruction: 080006b5
 800013c:	080006b5 			@ <UNDEFINED> instruction: 080006b5
 8000140:	080006b5 			@ <UNDEFINED> instruction: 080006b5
 8000144:	080006b5 			@ <UNDEFINED> instruction: 080006b5
 8000148:	080006b5 			@ <UNDEFINED> instruction: 080006b5
 800014c:	080006b5 			@ <UNDEFINED> instruction: 080006b5
 8000150:	080006b5 			@ <UNDEFINED> instruction: 080006b5
 8000154:	080006b5 			@ <UNDEFINED> instruction: 080006b5
 8000158:	080006b5 			@ <UNDEFINED> instruction: 080006b5
 800015c:	080006b5 			@ <UNDEFINED> instruction: 080006b5
 8000160:	080006b5 			@ <UNDEFINED> instruction: 080006b5
 8000164:	080006b5 			@ <UNDEFINED> instruction: 080006b5
 8000168:	080006b5 			@ <UNDEFINED> instruction: 080006b5
 800016c:	080006b5 			@ <UNDEFINED> instruction: 080006b5
 8000170:	080006b5 			@ <UNDEFINED> instruction: 080006b5
 8000174:	080006b5 			@ <UNDEFINED> instruction: 080006b5
 8000178:	080006b5 			@ <UNDEFINED> instruction: 080006b5
 800017c:	080006b5 			@ <UNDEFINED> instruction: 080006b5
 8000180:	080006b5 			@ <UNDEFINED> instruction: 080006b5
 8000184:	080006b5 			@ <UNDEFINED> instruction: 080006b5
 8000188:	080006b5 			@ <UNDEFINED> instruction: 080006b5
 800018c:	080006b5 			@ <UNDEFINED> instruction: 080006b5
 8000190:	080006b5 			@ <UNDEFINED> instruction: 080006b5
 8000194:	00000000 			@ <UNDEFINED> instruction: 00000000
 8000198:	080006b5 			@ <UNDEFINED> instruction: 080006b5
 800019c:	080006b5 			@ <UNDEFINED> instruction: 080006b5
 80001a0:	080006b5 			@ <UNDEFINED> instruction: 080006b5
 80001a4:	080006b5 			@ <UNDEFINED> instruction: 080006b5
 80001a8:	080006b5 			@ <UNDEFINED> instruction: 080006b5
 80001ac:	080006b5 			@ <UNDEFINED> instruction: 080006b5
 80001b0:	080006b5 			@ <UNDEFINED> instruction: 080006b5
 80001b4:	080006b5 			@ <UNDEFINED> instruction: 080006b5
 80001b8:	080006b5 			@ <UNDEFINED> instruction: 080006b5
 80001bc:	080006b5 			@ <UNDEFINED> instruction: 080006b5
 80001c0:	080006b5 			@ <UNDEFINED> instruction: 080006b5
 80001c4:	080006b5 			@ <UNDEFINED> instruction: 080006b5
 80001c8:	080006b5 			@ <UNDEFINED> instruction: 080006b5
 80001cc:	080006b5 			@ <UNDEFINED> instruction: 080006b5
 80001d0:	080006b5 			@ <UNDEFINED> instruction: 080006b5
 80001d4:	080006b5 			@ <UNDEFINED> instruction: 080006b5

Disassembly of section .text:

080001d8 <__do_global_dtors_aux>:
 80001d8:	b510      	push	{r4, lr}
 80001da:	4c05      	ldr	r4, [pc, #20]	@ (80001f0 <__do_global_dtors_aux+0x18>)
 80001dc:	7823      	ldrb	r3, [r4, #0]
 80001de:	b933      	cbnz	r3, 80001ee <__do_global_dtors_aux+0x16>
 80001e0:	4b04      	ldr	r3, [pc, #16]	@ (80001f4 <__do_global_dtors_aux+0x1c>)
 80001e2:	b113      	cbz	r3, 80001ea <__do_global_dtors_aux+0x12>
 80001e4:	4804      	ldr	r0, [pc, #16]	@ (80001f8 <__do_global_dtors_aux+0x20>)
 80001e6:	f3af 8000 	nop.w
 80001ea:	2301      	movs	r3, #1
 80001ec:	7023      	strb	r3, [r4, #0]
 80001ee:	bd10      	pop	{r4, pc}
 80001f0:	2000000c 			@ <UNDEFINED> instruction: 2000000c
 80001f4:	00000000 			@ <UNDEFINED> instruction: 00000000
 80001f8:	080006b8 			@ <UNDEFINED> instruction: 080006b8

080001fc <frame_dummy>:
 80001fc:	b508      	push	{r3, lr}
 80001fe:	4b03      	ldr	r3, [pc, #12]	@ (800020c <frame_dummy+0x10>)
 8000200:	b11b      	cbz	r3, 800020a <frame_dummy+0xe>
 8000202:	4903      	ldr	r1, [pc, #12]	@ (8000210 <frame_dummy+0x14>)
 8000204:	4803      	ldr	r0, [pc, #12]	@ (8000214 <frame_dummy+0x18>)
 8000206:	f3af 8000 	nop.w
 800020a:	bd08      	pop	{r3, pc}
 800020c:	00000000 			@ <UNDEFINED> instruction: 00000000
 8000210:	20000010 			@ <UNDEFINED> instruction: 20000010
 8000214:	080006b8 			@ <UNDEFINED> instruction: 080006b8

08000218 <__libc_init_array>:
 8000218:	b570      	push	{r4, r5, r6, lr}
 800021a:	4b0f      	ldr	r3, [pc, #60]	@ (8000258 <__libc_init_array+0x40>)
 800021c:	4d0f      	ldr	r5, [pc, #60]	@ (800025c <__libc_init_array+0x44>)
 800021e:	42ab      	cmp	r3, r5
 8000220:	eba3 0605 	sub.w	r6, r3, r5
 8000224:	d007      	beq.n	8000236 <__libc_init_array+0x1e>
 8000226:	10b6      	asrs	r6, r6, #2
 8000228:	2400      	movs	r4, #0
 800022a:	f855 3b04 	ldr.w	r3, [r5], #4
 800022e:	3401      	adds	r4, #1
 8000230:	4798      	blx	r3
 8000232:	42a6      	cmp	r6, r4
 8000234:	d8f9      	bhi.n	800022a <__libc_init_array+0x12>
 8000236:	f000 fa3f 	bl	80006b8 <_init>
 800023a:	4d09      	ldr	r5, [pc, #36]	@ (8000260 <__libc_init_array+0x48>)
 800023c:	4b09      	ldr	r3, [pc, #36]	@ (8000264 <__libc_init_array+0x4c>)
 800023e:	1b5e      	subs	r6, r3, r5
 8000240:	42ab      	cmp	r3, r5
 8000242:	ea4f 06a6 	mov.w	r6, r6, asr #2
 8000246:	d006      	beq.n	8000256 <__libc_init_array+0x3e>
 8000248:	2400      	movs	r4, #0
 800024a:	f855 3b04 	ldr.w	r3, [r5], #4
 800024e:	3401      	adds	r4, #1
 8000250:	4798      	blx	r3
 8000252:	42a6      	cmp	r6, r4
 8000254:	d8f9      	bhi.n	800024a <__libc_init_array+0x32>
 8000256:	bd70      	pop	{r4, r5, r6, pc}
 8000258:	080006d0 			@ <UNDEFINED> instruction: 080006d0
 800025c:	080006d0 			@ <UNDEFINED> instruction: 080006d0
 8000260:	080006d0 			@ <UNDEFINED> instruction: 080006d0
 8000264:	080006d8 			@ <UNDEFINED> instruction: 080006d8

08000268 <__retarget_lock_acquire_recursive>:
 8000268:	4770      	bx	lr
 800026a:	bf00      	nop

0800026c <__retarget_lock_release_recursive>:
 800026c:	4770      	bx	lr
 800026e:	bf00      	nop

08000270 <register_fini>:
 8000270:	4b02      	ldr	r3, [pc, #8]	@ (800027c <register_fini+0xc>)
 8000272:	b113      	cbz	r3, 800027a <register_fini+0xa>
 8000274:	4802      	ldr	r0, [pc, #8]	@ (8000280 <register_fini+0x10>)
 8000276:	f000 b805 	b.w	8000284 <atexit>
 800027a:	4770      	bx	lr
 800027c:	00000000 			@ <UNDEFINED> instruction: 00000000
 8000280:	08000291 			@ <UNDEFINED> instruction: 08000291

08000284 <atexit>:
 8000284:	2300      	movs	r3, #0
 8000286:	4601      	mov	r1, r0
 8000288:	461a      	mov	r2, r3
 800028a:	4618      	mov	r0, r3
 800028c:	f000 b814 	b.w	80002b8 <__register_exitproc>

08000290 <__libc_fini_array>:
 8000290:	b538      	push	{r3, r4, r5, lr}
 8000292:	4d07      	ldr	r5, [pc, #28]	@ (80002b0 <__libc_fini_array+0x20>)
 8000294:	4c07      	ldr	r4, [pc, #28]	@ (80002b4 <__libc_fini_array+0x24>)
 8000296:	1b2c      	subs	r4, r5, r4
 8000298:	10a4      	asrs	r4, r4, #2
 800029a:	d005      	beq.n	80002a8 <__libc_fini_array+0x18>
 800029c:	3c01      	subs	r4, #1
 800029e:	f855 3d04 	ldr.w	r3, [r5, #-4]!
 80002a2:	4798      	blx	r3
 80002a4:	2c00      	cmp	r4, #0
 80002a6:	d1f9      	bne.n	800029c <__libc_fini_array+0xc>
 80002a8:	e8bd 4038 	ldmia.w	sp!, {r3, r4, r5, lr}
 80002ac:	f000 ba0a 	b.w	80006c4 <_fini>
 80002b0:	080006dc 			@ <UNDEFINED> instruction: 080006dc
 80002b4:	080006d8 			@ <UNDEFINED> instruction: 080006d8

080002b8 <__register_exitproc>:
 80002b8:	e92d 43f8 	stmdb	sp!, {r3, r4, r5, r6, r7, r8, r9, lr}
 80002bc:	4d1b      	ldr	r5, [pc, #108]	@ (800032c <__register_exitproc+0x74>)
 80002be:	4606      	mov	r6, r0
 80002c0:	6828      	ldr	r0, [r5, #0]
 80002c2:	4698      	mov	r8, r3
 80002c4:	460f      	mov	r7, r1
 80002c6:	4691      	mov	r9, r2
 80002c8:	f7ff ffce 	bl	8000268 <__retarget_lock_acquire_recursive>
 80002cc:	4b18      	ldr	r3, [pc, #96]	@ (8000330 <__register_exitproc+0x78>)
 80002ce:	681c      	ldr	r4, [r3, #0]
 80002d0:	b31c      	cbz	r4, 800031a <__register_exitproc+0x62>
 80002d2:	6828      	ldr	r0, [r5, #0]
 80002d4:	6865      	ldr	r5, [r4, #4]
 80002d6:	2d1f      	cmp	r5, #31
 80002d8:	dc22      	bgt.n	8000320 <__register_exitproc+0x68>
 80002da:	b94e      	cbnz	r6, 80002f0 <__register_exitproc+0x38>
 80002dc:	1c6b      	adds	r3, r5, #1
 80002de:	3502      	adds	r5, #2
 80002e0:	6063      	str	r3, [r4, #4]
 80002e2:	f844 7025 	str.w	r7, [r4, r5, lsl #2]
 80002e6:	f7ff ffc1 	bl	800026c <__retarget_lock_release_recursive>
 80002ea:	2000      	movs	r0, #0
 80002ec:	e8bd 83f8 	ldmia.w	sp!, {r3, r4, r5, r6, r7, r8, r9, pc}
 80002f0:	eb04 0185 	add.w	r1, r4, r5, lsl #2
 80002f4:	2301      	movs	r3, #1
 80002f6:	f8c1 9088 	str.w	r9, [r1, #136]	@ 0x88
 80002fa:	f8d4 2188 	ldr.w	r2, [r4, #392]	@ 0x188
 80002fe:	40ab      	lsls	r3, r5
 8000300:	431a      	orrs	r2, r3
 8000302:	2e02      	cmp	r6, #2
 8000304:	f8c4 2188 	str.w	r2, [r4, #392]	@ 0x188
 8000308:	f8c1 8108 	str.w	r8, [r1, #264]	@ 0x108
 800030c:	d1e6      	bne.n	80002dc <__register_exitproc+0x24>
 800030e:	f8d4 218c 	ldr.w	r2, [r4, #396]	@ 0x18c
 8000312:	431a      	orrs	r2, r3
 8000314:	f8c4 218c 	str.w	r2, [r4, #396]	@ 0x18c
 8000318:	e7e0      	b.n	80002dc <__register_exitproc+0x24>
 800031a:	4c06      	ldr	r4, [pc, #24]	@ (8000334 <__register_exitproc+0x7c>)
 800031c:	601c      	str	r4, [r3, #0]
 800031e:	e7d8      	b.n	80002d2 <__register_exitproc+0x1a>
 8000320:	f7ff ffa4 	bl	800026c <__retarget_lock_release_recursive>
 8000324:	f04f 30ff 	mov.w	r0, #4294967295
 8000328:	e7e0      	b.n	80002ec <__register_exitproc+0x34>
 800032a:	bf00      	nop
 800032c:	20000000 			@ <UNDEFINED> instruction: 20000000
 8000330:	2000002c 			@ <UNDEFINED> instruction: 2000002c
 8000334:	20000030 			@ <UNDEFINED> instruction: 20000030

08000338 <main>:
 8000338:	b480      	push	{r7}
 800033a:	b083      	sub	sp, #12
 800033c:	af00      	add	r7, sp, #0
 800033e:	230a      	movs	r3, #10
 8000340:	607b      	str	r3, [r7, #4]
 8000342:	4b08      	ldr	r3, [pc, #32]	@ (8000364 <main+0x2c>)
 8000344:	681b      	ldr	r3, [r3, #0]
 8000346:	687a      	ldr	r2, [r7, #4]
 8000348:	4413      	add	r3, r2
 800034a:	603b      	str	r3, [r7, #0]
 800034c:	4b06      	ldr	r3, [pc, #24]	@ (8000368 <main+0x30>)
 800034e:	681b      	ldr	r3, [r3, #0]
 8000350:	683a      	ldr	r2, [r7, #0]
 8000352:	4413      	add	r3, r2
 8000354:	607b      	str	r3, [r7, #4]
 8000356:	2300      	movs	r3, #0
 8000358:	4618      	mov	r0, r3
 800035a:	370c      	adds	r7, #12
 800035c:	46bd      	mov	sp, r7
 800035e:	bc80      	pop	{r7}
 8000360:	4770      	bx	lr
 8000362:	bf00      	nop
 8000364:	20000008 			@ <UNDEFINED> instruction: 20000008
 8000368:	20000004 			@ <UNDEFINED> instruction: 20000004

0800036c <__increment_tick>:
 800036c:	b480      	push	{r7}
 800036e:	af00      	add	r7, sp, #0
 8000370:	4b04      	ldr	r3, [pc, #16]	@ (8000384 <__increment_tick+0x18>)
 8000372:	681b      	ldr	r3, [r3, #0]
 8000374:	3301      	adds	r3, #1
 8000376:	4a03      	ldr	r2, [pc, #12]	@ (8000384 <__increment_tick+0x18>)
 8000378:	6013      	str	r3, [r2, #0]
 800037a:	bf00      	nop
 800037c:	46bd      	mov	sp, r7
 800037e:	bc80      	pop	{r7}
 8000380:	4770      	bx	lr
 8000382:	bf00      	nop
 8000384:	200001c0 			@ <UNDEFINED> instruction: 200001c0

08000388 <__trigger_pendsv>:
 8000388:	b480      	push	{r7}
 800038a:	af00      	add	r7, sp, #0
 800038c:	4b03      	ldr	r3, [pc, #12]	@ (800039c <__trigger_pendsv+0x14>)
 800038e:	f04f 5280 	mov.w	r2, #268435456	@ 0x10000000
 8000392:	601a      	str	r2, [r3, #0]
 8000394:	bf00      	nop
 8000396:	46bd      	mov	sp, r7
 8000398:	bc80      	pop	{r7}
 800039a:	4770      	bx	lr
 800039c:	e000ed04 			@ <UNDEFINED> instruction: e000ed04

080003a0 <__wait_for_interrupt>:
 80003a0:	b480      	push	{r7}
 80003a2:	af00      	add	r7, sp, #0
 80003a4:	bf30      	wfi
 80003a6:	bf00      	nop
 80003a8:	46bd      	mov	sp, r7
 80003aa:	bc80      	pop	{r7}
 80003ac:	4770      	bx	lr
 80003ae:	bf00      	nop

080003b0 <SVC_Handler>:
 80003b0:	4907      	ldr	r1, [pc, #28]	@ (80003d0 <SVC_Handler+0x20>)
 80003b2:	680a      	ldr	r2, [r1, #0]
 80003b4:	6810      	ldr	r0, [r2, #0]
 80003b6:	e8b0 0ff0 	ldmia.w	r0!, {r4, r5, r6, r7, r8, r9, sl, fp}
 80003ba:	f380 8809 	msr	PSP, r0
 80003be:	2002      	movs	r0, #2
 80003c0:	f380 8814 	msr	CONTROL, r0
 80003c4:	f3bf 8f6f 	isb	sy
 80003c8:	f06f 0e02 	mvn.w	lr, #2
 80003cc:	4770      	bx	lr
 80003ce:	bf00      	nop
 80003d0:	20000218 			@ <UNDEFINED> instruction: 20000218

080003d4 <SysTick_Handler>:
 80003d4:	4668      	mov	r0, sp
 80003d6:	f020 0107 	bic.w	r1, r0, #7
 80003da:	468d      	mov	sp, r1
 80003dc:	b589      	push	{r0, r3, r7, lr}
 80003de:	af00      	add	r7, sp, #0
 80003e0:	f7ff ffc4 	bl	800036c <__increment_tick>
 80003e4:	f7ff ffd0 	bl	8000388 <__trigger_pendsv>
 80003e8:	bf00      	nop
 80003ea:	46bd      	mov	sp, r7
 80003ec:	e8bd 4089 	ldmia.w	sp!, {r0, r3, r7, lr}
 80003f0:	4685      	mov	sp, r0
 80003f2:	4770      	bx	lr

080003f4 <scheduleNextTask>:
 80003f4:	b580      	push	{r7, lr}
 80003f6:	b084      	sub	sp, #16
 80003f8:	af00      	add	r7, sp, #0
 80003fa:	4b3c      	ldr	r3, [pc, #240]	@ (80004ec <scheduleNextTask+0xf8>)
 80003fc:	681b      	ldr	r3, [r3, #0]
 80003fe:	2b00      	cmp	r3, #0
 8000400:	d103      	bne.n	800040a <scheduleNextTask+0x16>
 8000402:	4b3b      	ldr	r3, [pc, #236]	@ (80004f0 <scheduleNextTask+0xfc>)
 8000404:	2200      	movs	r2, #0
 8000406:	601a      	str	r2, [r3, #0]
 8000408:	e06c      	b.n	80004e4 <scheduleNextTask+0xf0>
 800040a:	2300      	movs	r3, #0
 800040c:	60fb      	str	r3, [r7, #12]
 800040e:	2301      	movs	r3, #1
 8000410:	60bb      	str	r3, [r7, #8]
 8000412:	e056      	b.n	80004c2 <scheduleNextTask+0xce>
 8000414:	4b37      	ldr	r3, [pc, #220]	@ (80004f4 <scheduleNextTask+0x100>)
 8000416:	681a      	ldr	r2, [r3, #0]
 8000418:	68bb      	ldr	r3, [r7, #8]
 800041a:	4413      	add	r3, r2
 800041c:	4a33      	ldr	r2, [pc, #204]	@ (80004ec <scheduleNextTask+0xf8>)
 800041e:	6812      	ldr	r2, [r2, #0]
 8000420:	fbb3 f1f2 	udiv	r1, r3, r2
 8000424:	fb01 f202 	mul.w	r2, r1, r2
 8000428:	1a9b      	subs	r3, r3, r2
 800042a:	607b      	str	r3, [r7, #4]
 800042c:	4932      	ldr	r1, [pc, #200]	@ (80004f8 <scheduleNextTask+0x104>)
 800042e:	687a      	ldr	r2, [r7, #4]
 8000430:	4613      	mov	r3, r2
 8000432:	009b      	lsls	r3, r3, #2
 8000434:	4413      	add	r3, r2
 8000436:	009b      	lsls	r3, r3, #2
 8000438:	440b      	add	r3, r1
 800043a:	3308      	adds	r3, #8
 800043c:	781b      	ldrb	r3, [r3, #0]
 800043e:	2b02      	cmp	r3, #2
 8000440:	d116      	bne.n	8000470 <scheduleNextTask+0x7c>
 8000442:	492d      	ldr	r1, [pc, #180]	@ (80004f8 <scheduleNextTask+0x104>)
 8000444:	687a      	ldr	r2, [r7, #4]
 8000446:	4613      	mov	r3, r2
 8000448:	009b      	lsls	r3, r3, #2
 800044a:	4413      	add	r3, r2
 800044c:	009b      	lsls	r3, r3, #2
 800044e:	440b      	add	r3, r1
 8000450:	330c      	adds	r3, #12
 8000452:	681a      	ldr	r2, [r3, #0]
 8000454:	4b29      	ldr	r3, [pc, #164]	@ (80004fc <scheduleNextTask+0x108>)
 8000456:	681b      	ldr	r3, [r3, #0]
 8000458:	429a      	cmp	r2, r3
 800045a:	d809      	bhi.n	8000470 <scheduleNextTask+0x7c>
 800045c:	4926      	ldr	r1, [pc, #152]	@ (80004f8 <scheduleNextTask+0x104>)
 800045e:	687a      	ldr	r2, [r7, #4]
 8000460:	4613      	mov	r3, r2
 8000462:	009b      	lsls	r3, r3, #2
 8000464:	4413      	add	r3, r2
 8000466:	009b      	lsls	r3, r3, #2
 8000468:	440b      	add	r3, r1
 800046a:	3308      	adds	r3, #8
 800046c:	2201      	movs	r2, #1
 800046e:	701a      	strb	r2, [r3, #0]
 8000470:	4921      	ldr	r1, [pc, #132]	@ (80004f8 <scheduleNextTask+0x104>)
 8000472:	687a      	ldr	r2, [r7, #4]
 8000474:	4613      	mov	r3, r2
 8000476:	009b      	lsls	r3, r3, #2
 8000478:	4413      	add	r3, r2
 800047a:	009b      	lsls	r3, r3, #2
 800047c:	440b      	add	r3, r1
 800047e:	3308      	adds	r3, #8
 8000480:	781b      	ldrb	r3, [r3, #0]
 8000482:	2b03      	cmp	r3, #3
 8000484:	d013      	beq.n	80004ae <scheduleNextTask+0xba>
 8000486:	2b03      	cmp	r3, #3
 8000488:	dc15      	bgt.n	80004b6 <scheduleNextTask+0xc2>
 800048a:	2b01      	cmp	r3, #1
 800048c:	d002      	beq.n	8000494 <scheduleNextTask+0xa0>
 800048e:	2b02      	cmp	r3, #2
 8000490:	d013      	beq.n	80004ba <scheduleNextTask+0xc6>
 8000492:	e010      	b.n	80004b6 <scheduleNextTask+0xc2>
 8000494:	4a17      	ldr	r2, [pc, #92]	@ (80004f4 <scheduleNextTask+0x100>)
 8000496:	687b      	ldr	r3, [r7, #4]
 8000498:	6013      	str	r3, [r2, #0]
 800049a:	687a      	ldr	r2, [r7, #4]
 800049c:	4613      	mov	r3, r2
 800049e:	009b      	lsls	r3, r3, #2
 80004a0:	4413      	add	r3, r2
 80004a2:	009b      	lsls	r3, r3, #2
 80004a4:	4a14      	ldr	r2, [pc, #80]	@ (80004f8 <scheduleNextTask+0x104>)
 80004a6:	4413      	add	r3, r2
 80004a8:	4a11      	ldr	r2, [pc, #68]	@ (80004f0 <scheduleNextTask+0xfc>)
 80004aa:	6013      	str	r3, [r2, #0]
 80004ac:	e01a      	b.n	80004e4 <scheduleNextTask+0xf0>
 80004ae:	68fb      	ldr	r3, [r7, #12]
 80004b0:	3301      	adds	r3, #1
 80004b2:	60fb      	str	r3, [r7, #12]
 80004b4:	e002      	b.n	80004bc <scheduleNextTask+0xc8>
 80004b6:	bf00      	nop
 80004b8:	e000      	b.n	80004bc <scheduleNextTask+0xc8>
 80004ba:	bf00      	nop
 80004bc:	68bb      	ldr	r3, [r7, #8]
 80004be:	3301      	adds	r3, #1
 80004c0:	60bb      	str	r3, [r7, #8]
 80004c2:	4b0a      	ldr	r3, [pc, #40]	@ (80004ec <scheduleNextTask+0xf8>)
 80004c4:	681b      	ldr	r3, [r3, #0]
 80004c6:	68ba      	ldr	r2, [r7, #8]
 80004c8:	429a      	cmp	r2, r3
 80004ca:	d9a3      	bls.n	8000414 <scheduleNextTask+0x20>
 80004cc:	4b07      	ldr	r3, [pc, #28]	@ (80004ec <scheduleNextTask+0xf8>)
 80004ce:	681b      	ldr	r3, [r3, #0]
 80004d0:	68fa      	ldr	r2, [r7, #12]
 80004d2:	429a      	cmp	r2, r3
 80004d4:	d303      	bcc.n	80004de <scheduleNextTask+0xea>
 80004d6:	4b06      	ldr	r3, [pc, #24]	@ (80004f0 <scheduleNextTask+0xfc>)
 80004d8:	2200      	movs	r2, #0
 80004da:	601a      	str	r2, [r3, #0]
 80004dc:	e002      	b.n	80004e4 <scheduleNextTask+0xf0>
 80004de:	f7ff ff5f 	bl	80003a0 <__wait_for_interrupt>
 80004e2:	e792      	b.n	800040a <scheduleNextTask+0x16>
 80004e4:	3710      	adds	r7, #16
 80004e6:	46bd      	mov	sp, r7
 80004e8:	bd80      	pop	{r7, pc}
 80004ea:	bf00      	nop
 80004ec:	2000021c 			@ <UNDEFINED> instruction: 2000021c
 80004f0:	20000218 			@ <UNDEFINED> instruction: 20000218
 80004f4:	20000214 			@ <UNDEFINED> instruction: 20000214
 80004f8:	200001c4 			@ <UNDEFINED> instruction: 200001c4
 80004fc:	200001c0 			@ <UNDEFINED> instruction: 200001c0

08000500 <PendSV_Handler>:
 8000500:	f3ef 8009 	mrs	r0, PSP
 8000504:	e920 0ff0 	stmdb	r0!, {r4, r5, r6, r7, r8, r9, sl, fp}
 8000508:	4908      	ldr	r1, [pc, #32]	@ (800052c <PendSV_Handler+0x2c>)
 800050a:	680a      	ldr	r2, [r1, #0]
 800050c:	6010      	str	r0, [r2, #0]
 800050e:	b500      	push	{lr}
 8000510:	f7ff ff70 	bl	80003f4 <scheduleNextTask>
 8000514:	f85d eb04 	ldr.w	lr, [sp], #4
 8000518:	4904      	ldr	r1, [pc, #16]	@ (800052c <PendSV_Handler+0x2c>)
 800051a:	680a      	ldr	r2, [r1, #0]
 800051c:	6810      	ldr	r0, [r2, #0]
 800051e:	e8b0 0ff0 	ldmia.w	r0!, {r4, r5, r6, r7, r8, r9, sl, fp}
 8000522:	f380 8809 	msr	PSP, r0
 8000526:	4770      	bx	lr
 8000528:	bf00      	nop
 800052a:	02180000 			@ <UNDEFINED> instruction: 02180000
 800052e:	 			@ <UNDEFINED> instruction: b4802000

08000530 <disable_timer_interrupt>:
 8000530:	b480      	push	{r7}
 8000532:	b083      	sub	sp, #12
 8000534:	af00      	add	r7, sp, #0
 8000536:	4603      	mov	r3, r0
 8000538:	80fb      	strh	r3, [r7, #6]
 800053a:	88fb      	ldrh	r3, [r7, #6]
 800053c:	f103 4380 	add.w	r3, r3, #1073741824	@ 0x40000000
 8000540:	330c      	adds	r3, #12
 8000542:	681a      	ldr	r2, [r3, #0]
 8000544:	88fb      	ldrh	r3, [r7, #6]
 8000546:	f103 4380 	add.w	r3, r3, #1073741824	@ 0x40000000
 800054a:	330c      	adds	r3, #12
 800054c:	4619      	mov	r1, r3
 800054e:	f022 0301 	bic.w	r3, r2, #1
 8000552:	600b      	str	r3, [r1, #0]
 8000554:	bf00      	nop
 8000556:	370c      	adds	r7, #12
 8000558:	46bd      	mov	sp, r7
 800055a:	bc80      	pop	{r7}
 800055c:	4770      	bx	lr

0800055e <clear_update_interrupt_flag>:
 800055e:	b480      	push	{r7}
 8000560:	b083      	sub	sp, #12
 8000562:	af00      	add	r7, sp, #0
 8000564:	4603      	mov	r3, r0
 8000566:	80fb      	strh	r3, [r7, #6]
 8000568:	88fb      	ldrh	r3, [r7, #6]
 800056a:	f103 4380 	add.w	r3, r3, #1073741824	@ 0x40000000
 800056e:	3310      	adds	r3, #16
 8000570:	681b      	ldr	r3, [r3, #0]
 8000572:	f003 0301 	and.w	r3, r3, #1
 8000576:	2b00      	cmp	r3, #0
 8000578:	d00c      	beq.n	8000594 <clear_update_interrupt_flag+0x36>
 800057a:	88fb      	ldrh	r3, [r7, #6]
 800057c:	f103 4380 	add.w	r3, r3, #1073741824	@ 0x40000000
 8000580:	3310      	adds	r3, #16
 8000582:	681a      	ldr	r2, [r3, #0]
 8000584:	88fb      	ldrh	r3, [r7, #6]
 8000586:	f103 4380 	add.w	r3, r3, #1073741824	@ 0x40000000
 800058a:	3310      	adds	r3, #16
 800058c:	4619      	mov	r1, r3
 800058e:	f022 0301 	bic.w	r3, r2, #1
 8000592:	600b      	str	r3, [r1, #0]
 8000594:	bf00      	nop
 8000596:	370c      	adds	r7, #12
 8000598:	46bd      	mov	sp, r7
 800059a:	bc80      	pop	{r7}
 800059c:	4770      	bx	lr

0800059e <TIM2_IRQHandler>:
 800059e:	4668      	mov	r0, sp
 80005a0:	f020 0107 	bic.w	r1, r0, #7
 80005a4:	468d      	mov	sp, r1
 80005a6:	b581      	push	{r0, r7, lr}
 80005a8:	b083      	sub	sp, #12
 80005aa:	af00      	add	r7, sp, #0
 80005ac:	2300      	movs	r3, #0
 80005ae:	80fb      	strh	r3, [r7, #6]
 80005b0:	88fb      	ldrh	r3, [r7, #6]
 80005b2:	4618      	mov	r0, r3
 80005b4:	f7ff ffbc 	bl	8000530 <disable_timer_interrupt>
 80005b8:	88fb      	ldrh	r3, [r7, #6]
 80005ba:	4618      	mov	r0, r3
 80005bc:	f7ff ffcf 	bl	800055e <clear_update_interrupt_flag>
 80005c0:	bf00      	nop
 80005c2:	370c      	adds	r7, #12
 80005c4:	46bd      	mov	sp, r7
 80005c6:	e8bd 4081 	ldmia.w	sp!, {r0, r7, lr}
 80005ca:	4685      	mov	sp, r0
 80005cc:	4770      	bx	lr

080005ce <TIM3_IRQHandler>:
 80005ce:	4668      	mov	r0, sp
 80005d0:	f020 0107 	bic.w	r1, r0, #7
 80005d4:	468d      	mov	sp, r1
 80005d6:	b581      	push	{r0, r7, lr}
 80005d8:	b083      	sub	sp, #12
 80005da:	af00      	add	r7, sp, #0
 80005dc:	f44f 6380 	mov.w	r3, #1024	@ 0x400
 80005e0:	80fb      	strh	r3, [r7, #6]
 80005e2:	88fb      	ldrh	r3, [r7, #6]
 80005e4:	4618      	mov	r0, r3
 80005e6:	f7ff ffa3 	bl	8000530 <disable_timer_interrupt>
 80005ea:	88fb      	ldrh	r3, [r7, #6]
 80005ec:	4618      	mov	r0, r3
 80005ee:	f7ff ffb6 	bl	800055e <clear_update_interrupt_flag>
 80005f2:	bf00      	nop
 80005f4:	370c      	adds	r7, #12
 80005f6:	46bd      	mov	sp, r7
 80005f8:	e8bd 4081 	ldmia.w	sp!, {r0, r7, lr}
 80005fc:	4685      	mov	sp, r0
 80005fe:	4770      	bx	lr

08000600 <TIM4_IRQHandler>:
 8000600:	4668      	mov	r0, sp
 8000602:	f020 0107 	bic.w	r1, r0, #7
 8000606:	468d      	mov	sp, r1
 8000608:	b581      	push	{r0, r7, lr}
 800060a:	b083      	sub	sp, #12
 800060c:	af00      	add	r7, sp, #0
 800060e:	f44f 6300 	mov.w	r3, #2048	@ 0x800
 8000612:	80fb      	strh	r3, [r7, #6]
 8000614:	88fb      	ldrh	r3, [r7, #6]
 8000616:	4618      	mov	r0, r3
 8000618:	f7ff ff8a 	bl	8000530 <disable_timer_interrupt>
 800061c:	88fb      	ldrh	r3, [r7, #6]
 800061e:	4618      	mov	r0, r3
 8000620:	f7ff ff9d 	bl	800055e <clear_update_interrupt_flag>
 8000624:	bf00      	nop
 8000626:	370c      	adds	r7, #12
 8000628:	46bd      	mov	sp, r7
 800062a:	e8bd 4081 	ldmia.w	sp!, {r0, r7, lr}
 800062e:	4685      	mov	sp, r0
 8000630:	4770      	bx	lr

08000632 <TIM5_IRQHandler>:
 8000632:	4668      	mov	r0, sp
 8000634:	f020 0107 	bic.w	r1, r0, #7
 8000638:	468d      	mov	sp, r1
 800063a:	b581      	push	{r0, r7, lr}
 800063c:	b083      	sub	sp, #12
 800063e:	af00      	add	r7, sp, #0
 8000640:	f44f 6340 	mov.w	r3, #3072	@ 0xc00
 8000644:	80fb      	strh	r3, [r7, #6]
 8000646:	88fb      	ldrh	r3, [r7, #6]
 8000648:	4618      	mov	r0, r3
 800064a:	f7ff ff71 	bl	8000530 <disable_timer_interrupt>
 800064e:	88fb      	ldrh	r3, [r7, #6]
 8000650:	4618      	mov	r0, r3
 8000652:	f7ff ff84 	bl	800055e <clear_update_interrupt_flag>
 8000656:	bf00      	nop
 8000658:	370c      	adds	r7, #12
 800065a:	46bd      	mov	sp, r7
 800065c:	e8bd 4081 	ldmia.w	sp!, {r0, r7, lr}
 8000660:	4685      	mov	sp, r0
 8000662:	4770      	bx	lr

08000664 <Reset_Handler>:
 8000664:	480d      	ldr	r0, [pc, #52]	@ (800069c <LoopForever+0x2>)
 8000666:	4685      	mov	sp, r0
 8000668:	f3af 8000 	nop.w
 800066c:	480c      	ldr	r0, [pc, #48]	@ (80006a0 <LoopForever+0x6>)
 800066e:	490d      	ldr	r1, [pc, #52]	@ (80006a4 <LoopForever+0xa>)
 8000670:	4a0d      	ldr	r2, [pc, #52]	@ (80006a8 <LoopForever+0xe>)
 8000672:	2300      	movs	r3, #0
 8000674:	e002      	b.n	800067c <LoopCopyDataInit>

08000676 <CopyDataInit>:
 8000676:	58d4      	ldr	r4, [r2, r3]
 8000678:	50c4      	str	r4, [r0, r3]
 800067a:	3304      	adds	r3, #4

0800067c <LoopCopyDataInit>:
 800067c:	18c4      	adds	r4, r0, r3
 800067e:	428c      	cmp	r4, r1
 8000680:	d3f9      	bcc.n	8000676 <CopyDataInit>
 8000682:	4a0a      	ldr	r2, [pc, #40]	@ (80006ac <LoopForever+0x12>)
 8000684:	4c0a      	ldr	r4, [pc, #40]	@ (80006b0 <LoopForever+0x16>)
 8000686:	2300      	movs	r3, #0
 8000688:	e001      	b.n	800068e <LoopFillZerobss>

0800068a <FillZerobss>:
 800068a:	6013      	str	r3, [r2, #0]
 800068c:	3204      	adds	r2, #4

0800068e <LoopFillZerobss>:
 800068e:	42a2      	cmp	r2, r4
 8000690:	d3fb      	bcc.n	800068a <FillZerobss>
 8000692:	f7ff fdc1 	bl	8000218 <__libc_init_array>
 8000696:	f7ff fe4f 	bl	8000338 <main>

0800069a <LoopForever>:
 800069a:	e7fe      	b.n	800069a <LoopForever>
 800069c:	20020000 			@ <UNDEFINED> instruction: 20020000
 80006a0:	20000000 			@ <UNDEFINED> instruction: 20000000
 80006a4:	2000000c 			@ <UNDEFINED> instruction: 2000000c
 80006a8:	080006dc 			@ <UNDEFINED> instruction: 080006dc
 80006ac:	2000000c 			@ <UNDEFINED> instruction: 2000000c
 80006b0:	20000220 			@ <UNDEFINED> instruction: 20000220

080006b4 <ADC1_2_IRQHandler>:
 80006b4:	e7fe      	b.n	80006b4 <ADC1_2_IRQHandler>
	...

080006b8 <_init>:
 80006b8:	b5f8      	push	{r3, r4, r5, r6, r7, lr}
 80006ba:	bf00      	nop
 80006bc:	bcf8      	pop	{r3, r4, r5, r6, r7}
 80006be:	bc08      	pop	{r3}
 80006c0:	469e      	mov	lr, r3
 80006c2:	4770      	bx	lr

080006c4 <_fini>:
 80006c4:	b5f8      	push	{r3, r4, r5, r6, r7, lr}
 80006c6:	bf00      	nop
 80006c8:	bcf8      	pop	{r3, r4, r5, r6, r7}
 80006ca:	bc08      	pop	{r3}
 80006cc:	469e      	mov	lr, r3
 80006ce:	4770      	bx	lr
