
.\Debug\uraura.elf:     file format elf32-littlearm


Disassembly of section .isr_vector:

08000000 <g_pfnVectors>:
 8000000:	20020000 			@ <UNDEFINED> instruction: 20020000
 8000004:	08000665 			@ <UNDEFINED> instruction: 08000665
 8000008:	080006b5 			@ <UNDEFINED> instruction: 080006b5
 800000c:	080006b5 			@ <UNDEFINED> instruction: 080006b5
 8000010:	080006b5 			@ <UNDEFINED> instruction: 080006b5
 8000014:	080006b5 			@ <UNDEFINED> instruction: 080006b5
 8000018:	080006b5 			@ <UNDEFINED> instruction: 080006b5
	...
 800002c:	080003b1 			@ <UNDEFINED> instruction: 080003b1
 8000030:	080006b5 			@ <UNDEFINED> instruction: 080006b5
 8000034:	00000000 			@ <UNDEFINED> instruction: 00000000
 8000038:	08000501 			@ <UNDEFINED> instruction: 08000501
 800003c:	080003d5 			@ <UNDEFINED> instruction: 080003d5
 8000040:	080006b5 			@ <UNDEFINED> instruction: 080006b5
 8000044:	080006b5 			@ <UNDEFINED> instruction: 080006b5
 8000048:	080006b5 			@ <UNDEFINED> instruction: 080006b5
 800004c:	080006b5 			@ <UNDEFINED> instruction: 080006b5
 8000050:	080006b5 			@ <UNDEFINED> instruction: 080006b5
 8000054:	080006b5 			@ <UNDEFINED> instruction: 080006b5
 8000058:	080006b5 			@ <UNDEFINED> instruction: 080006b5
 800005c:	080006b5 			@ <UNDEFINED> instruction: 080006b5
 8000060:	080006b5 			@ <UNDEFINED> instruction: 080006b5
 8000064:	080006b5 			@ <UNDEFINED> instruction: 080006b5
 8000068:	080006b5 			@ <UNDEFINED> instruction: 080006b5
 800006c:	080006b5 			@ <UNDEFINED> instruction: 080006b5
 8000070:	080006b5 			@ <UNDEFINED> instruction: 080006b5
 8000074:	080006b5 			@ <UNDEFINED> instruction: 080006b5
 8000078:	080006b5 			@ <UNDEFINED> instruction: 080006b5
 800007c:	080006b5 			@ <UNDEFINED> instruction: 080006b5
 8000080:	080006b5 			@ <UNDEFINED> instruction: 080006b5
 8000084:	080006b5 			@ <UNDEFINED> instruction: 080006b5
 8000088:	080006b5 			@ <UNDEFINED> instruction: 080006b5
 800008c:	080006b5 			@ <UNDEFINED> instruction: 080006b5
 8000090:	080006b5 			@ <UNDEFINED> instruction: 080006b5
 8000094:	080006b5 			@ <UNDEFINED> instruction: 080006b5
 8000098:	080006b5 			@ <UNDEFINED> instruction: 080006b5
 800009c:	080006b5 			@ <UNDEFINED> instruction: 080006b5
 80000a0:	080006b5 			@ <UNDEFINED> instruction: 080006b5
 80000a4:	080006b5 			@ <UNDEFINED> instruction: 080006b5
 80000a8:	080006b5 			@ <UNDEFINED> instruction: 080006b5
 80000ac:	080006b5 			@ <UNDEFINED> instruction: 080006b5
 80000b0:	0800059f 			@ <UNDEFINED> instruction: 0800059f
 80000b4:	080005cf 			@ <UNDEFINED> instruction: 080005cf
 80000b8:	08000601 			@ <UNDEFINED> instruction: 08000601
 80000bc:	080006b5 			@ <UNDEFINED> instruction: 080006b5
 80000c0:	080006b5 			@ <UNDEFINED> instruction: 080006b5
 80000c4:	080006b5 			@ <UNDEFINED> instruction: 080006b5
 80000c8:	080006b5 			@ <UNDEFINED> instruction: 080006b5
 80000cc:	080006b5 			@ <UNDEFINED> instruction: 080006b5
 80000d0:	080006b5 			@ <UNDEFINED> instruction: 080006b5
 80000d4:	080006b5 			@ <UNDEFINED> instruction: 080006b5
 80000d8:	080006b5 			@ <UNDEFINED> instruction: 080006b5
 80000dc:	080006b5 			@ <UNDEFINED> instruction: 080006b5
 80000e0:	080006b5 			@ <UNDEFINED> instruction: 080006b5
 80000e4:	080006b5 			@ <UNDEFINED> instruction: 080006b5
 80000e8:	080006b5 			@ <UNDEFINED> instruction: 080006b5
 80000ec:	080006b5 			@ <UNDEFINED> instruction: 080006b5
 80000f0:	080006b5 			@ <UNDEFINED> instruction: 080006b5
 80000f4:	080006b5 			@ <UNDEFINED> instruction: 080006b5
 80000f8:	080006b5 			@ <UNDEFINED> instruction: 080006b5
 80000fc:	080006b5 			@ <UNDEFINED> instruction: 080006b5
 8000100:	080006b5 			@ <UNDEFINED> instruction: 080006b5
 8000104:	080006b5 			@ <UNDEFINED> instruction: 080006b5
 8000108:	08000633 			@ <UNDEFINED> instruction: 08000633
 800010c:	080006b5 			@ <UNDEFINED> instruction: 080006b5
 8000110:	080006b5 			@ <UNDEFINED> instruction: 080006b5
 8000114:	080006b5 			@ <UNDEFINED> instruction: 080006b5
 8000118:	080006b5 			@ <UNDEFINED> instruction: 080006b5
 800011c:	080006b5 			@ <UNDEFINED> instruction: 080006b5
 8000120:	080006b5 			@ <UNDEFINED> instruction: 080006b5
 8000124:	080006b5 			@ <UNDEFINED> instruction: 080006b5
 8000128:	080006b5 			@ <UNDEFINED> instruction: 080006b5
 800012c:	080006b5 			@ <UNDEFINED> instruction: 080006b5
 8000130:	080006b5 			@ <UNDEFINED> instruction: 080006b5
 8000134:	080006b5 			@ <UNDEFINED> instruction: 080006b5
 8000138:	080006b5 			@ <UNDEFINED> instruction: 080006b5
 800013c:	080006b5 			@ <UNDEFINED> instruction: 080006b5
 8000140:	080006b5 			@ <UNDEFINED> instruction: 080006b5
 8000144:	080006b5 			@ <UNDEFINED> instruction: 080006b5
 8000148:	080006b5 			@ <UNDEFINED> instruction: 080006b5
 800014c:	080006b5 			@ <UNDEFINED> instruction: 080006b5
 8000150:	080006b5 			@ <UNDEFINED> instruction: 080006b5
 8000154:	080006b5 			@ <UNDEFINED> instruction: 080006b5
 8000158:	080006b5 			@ <UNDEFINED> instruction: 080006b5
 800015c:	080006b5 			@ <UNDEFINED> instruction: 080006b5
 8000160:	080006b5 			@ <UNDEFINED> instruction: 080006b5
 8000164:	080006b5 			@ <UNDEFINED> instruction: 080006b5
 8000168:	080006b5 			@ <UNDEFINED> instruction: 080006b5
 800016c:	080006b5 			@ <UNDEFINED> instruction: 080006b5
 8000170:	080006b5 			@ <UNDEFINED> instruction: 080006b5
 8000174:	080006b5 			@ <UNDEFINED> instruction: 080006b5
 8000178:	080006b5 			@ <UNDEFINED> instruction: 080006b5
 800017c:	080006b5 			@ <UNDEFINED> instruction: 080006b5
 8000180:	080006b5 			@ <UNDEFINED> instruction: 080006b5
 8000184:	080006b5 			@ <UNDEFINED> instruction: 080006b5
 8000188:	080006b5 			@ <UNDEFINED> instruction: 080006b5
 800018c:	080006b5 			@ <UNDEFINED> instruction: 080006b5
 8000190:	080006b5 			@ <UNDEFINED> instruction: 080006b5
 8000194:	00000000 			@ <UNDEFINED> instruction: 00000000
 8000198:	080006b5 			@ <UNDEFINED> instruction: 080006b5
 800019c:	080006b5 			@ <UNDEFINED> instruction: 080006b5
 80001a0:	080006b5 			@ <UNDEFINED> instruction: 080006b5
 80001a4:	080006b5 			@ <UNDEFINED> instruction: 080006b5
 80001a8:	080006b5 			@ <UNDEFINED> instruction: 080006b5
 80001ac:	080006b5 			@ <UNDEFINED> instruction: 080006b5
 80001b0:	080006b5 			@ <UNDEFINED> instruction: 080006b5
 80001b4:	080006b5 			@ <UNDEFINED> instruction: 080006b5
 80001b8:	080006b5 			@ <UNDEFINED> instruction: 080006b5
 80001bc:	080006b5 			@ <UNDEFINED> instruction: 080006b5
 80001c0:	080006b5 			@ <UNDEFINED> instruction: 080006b5
 80001c4:	080006b5 			@ <UNDEFINED> instruction: 080006b5
 80001c8:	080006b5 			@ <UNDEFINED> instruction: 080006b5
 80001cc:	080006b5 			@ <UNDEFINED> instruction: 080006b5
 80001d0:	080006b5 			@ <UNDEFINED> instruction: 080006b5
 80001d4:	080006b5 			@ <UNDEFINED> instruction: 080006b5

Disassembly of section .text:

080001d8 <__do_global_dtors_aux>:
 80001d8:	b510      	push	{r4, lr}
 80001da:	4c05      	ldr	r4, [pc, #20]	@ (80001f0 <__do_global_dtors_aux+0x18>)
 80001dc:	7823      	ldrb	r3, [r4, #0]
 80001de:	b933      	cbnz	r3, 80001ee <__do_global_dtors_aux+0x16>
 80001e0:	4b04      	ldr	r3, [pc, #16]	@ (80001f4 <__do_global_dtors_aux+0x1c>)
 80001e2:	b113      	cbz	r3, 80001ea <__do_global_dtors_aux+0x12>
 80001e4:	4804      	ldr	r0, [pc, #16]	@ (80001f8 <__do_global_dtors_aux+0x20>)
 80001e6:	f3af 8000 	nop.w
 80001ea:	2301      	movs	r3, #1
 80001ec:	7023      	strb	r3, [r4, #0]
 80001ee:	bd10      	pop	{r4, pc}
 80001f0:	2000000c 			@ <UNDEFINED> instruction: 2000000c
 80001f4:	00000000 			@ <UNDEFINED> instruction: 00000000
 80001f8:	080006b8 			@ <UNDEFINED> instruction: 080006b8

080001fc <frame_dummy>:
 80001fc:	b508      	push	{r3, lr}
 80001fe:	4b03      	ldr	r3, [pc, #12]	@ (800020c <frame_dummy+0x10>)
 8000200:	b11b      	cbz	r3, 800020a <frame_dummy+0xe>
 8000202:	4903      	ldr	r1, [pc, #12]	@ (8000210 <frame_dummy+0x14>)
 8000204:	4803      	ldr	r0, [pc, #12]	@ (8000214 <frame_dummy+0x18>)
 8000206:	f3af 8000 	nop.w
 800020a:	bd08      	pop	{r3, pc}
 800020c:	00000000 			@ <UNDEFINED> instruction: 00000000
 8000210:	20000010 			@ <UNDEFINED> instruction: 20000010
 8000214:	080006b8 			@ <UNDEFINED> instruction: 080006b8

08000218 <__libc_init_array>:
 8000218:	b570      	push	{r4, r5, r6, lr}
 800021a:	4b0f      	ldr	r3, [pc, #60]	@ (8000258 <__libc_init_array+0x40>)
 800021c:	4d0f      	ldr	r5, [pc, #60]	@ (800025c <__libc_init_array+0x44>)
 800021e:	42ab      	cmp	r3, r5
 8000220:	eba3 0605 	sub.w	r6, r3, r5
 8000224:	d007      	beq.n	8000236 <__libc_init_array+0x1e>
 8000226:	10b6      	asrs	r6, r6, #2
 8000228:	2400      	movs	r4, #0
 800022a:	f855 3b04 	ldr.w	r3, [r5], #4
 800022e:	3401      	adds	r4, #1
 8000230:	4798      	blx	r3
 8000232:	42a6      	cmp	r6, r4
 8000234:	d8f9      	bhi.n	800022a <__libc_init_array+0x12>
 8000236:	f000 fa3f 	bl	80006b8 <_init>
 800023a:	4d09      	ldr	r5, [pc, #36]	@ (8000260 <__libc_init_array+0x48>)
 800023c:	4b09      	ldr	r3, [pc, #36]	@ (8000264 <__libc_init_array+0x4c>)
 800023e:	1b5e      	subs	r6, r3, r5
 8000240:	42ab      	cmp	r3, r5
 8000242:	ea4f 06a6 	mov.w	r6, r6, asr #2
 8000246:	d006      	beq.n	8000256 <__libc_init_array+0x3e>
 8000248:	2400      	movs	r4, #0
 800024a:	f855 3b04 	ldr.w	r3, [r5], #4
 800024e:	3401      	adds	r4, #1
 8000250:	4798      	blx	r3
 8000252:	42a6      	cmp	r6, r4
 8000254:	d8f9      	bhi.n	800024a <__libc_init_array+0x32>
 8000256:	bd70      	pop	{r4, r5, r6, pc}
 8000258:	080006d0 			@ <UNDEFINED> instruction: 080006d0
 800025c:	080006d0 			@ <UNDEFINED> instruction: 080006d0
 8000260:	080006d0 			@ <UNDEFINED> instruction: 080006d0
 8000264:	080006d8 			@ <UNDEFINED> instruction: 080006d8

08000268 <__retarget_lock_acquire_recursive>:
 8000268:	4770      	bx	lr
 800026a:	bf00      	nop

0800026c <__retarget_lock_release_recursive>:
 800026c:	4770      	bx	lr
 800026e:	bf00      	nop

08000270 <register_fini>:
 8000270:	4b02      	ldr	r3, [pc, #8]	@ (800027c <register_fini+0xc>)
 8000272:	b113      	cbz	r3, 800027a <register_fini+0xa>
 8000274:	4802      	ldr	r0, [pc, #8]	@ (8000280 <register_fini+0x10>)
 8000276:	f000 b805 	b.w	8000284 <atexit>
 800027a:	4770      	bx	lr
 800027c:	00000000 			@ <UNDEFINED> instruction: 00000000
 8000280:	08000291 			@ <UNDEFINED> instruction: 08000291

08000284 <atexit>:
 8000284:	2300      	movs	r3, #0
 8000286:	4601      	mov	r1, r0
 8000288:	461a      	mov	r2, r3
 800028a:	4618      	mov	r0, r3
 800028c:	f000 b814 	b.w	80002b8 <__register_exitproc>

08000290 <__libc_fini_array>:
 8000290:	b538      	push	{r3, r4, r5, lr}
 8000292:	4d07      	ldr	r5, [pc, #28]	@ (80002b0 <__libc_fini_array+0x20>)
 8000294:	4c07      	ldr	r4, [pc, #28]	@ (80002b4 <__libc_fini_array+0x24>)
 8000296:	1b2c      	subs	r4, r5, r4
 8000298:	10a4      	asrs	r4, r4, #2
 800029a:	d005      	beq.n	80002a8 <__libc_fini_array+0x18>
 800029c:	3c01      	subs	r4, #1
 800029e:	f855 3d04 	ldr.w	r3, [r5, #-4]!
 80002a2:	4798      	blx	r3
 80002a4:	2c00      	cmp	r4, #0
 80002a6:	d1f9      	bne.n	800029c <__libc_fini_array+0xc>
 80002a8:	e8bd 4038 	ldmia.w	sp!, {r3, r4, r5, lr}
 80002ac:	f000 ba0a 	b.w	80006c4 <_fini>
 80002b0:	080006dc 			@ <UNDEFINED> instruction: 080006dc
 80002b4:	080006d8 			@ <UNDEFINED> instruction: 080006d8

080002b8 <__register_exitproc>:
 80002b8:	e92d 43f8 	stmdb	sp!, {r3, r4, r5, r6, r7, r8, r9, lr}
 80002bc:	4d1b      	ldr	r5, [pc, #108]	@ (800032c <__register_exitproc+0x74>)
 80002be:	4606      	mov	r6, r0
 80002c0:	6828      	ldr	r0, [r5, #0]
 80002c2:	4698      	mov	r8, r3
 80002c4:	460f      	mov	r7, r1
 80002c6:	4691      	mov	r9, r2
 80002c8:	f7ff ffce 	bl	8000268 <__retarget_lock_acquire_recursive>
 80002cc:	4b18      	ldr	r3, [pc, #96]	@ (8000330 <__register_exitproc+0x78>)
 80002ce:	681c      	ldr	r4, [r3, #0]
 80002d0:	b31c      	cbz	r4, 800031a <__register_exitproc+0x62>
 80002d2:	6828      	ldr	r0, [r5, #0]
 80002d4:	6865      	ldr	r5, [r4, #4]
 80002d6:	2d1f      	cmp	r5, #31
 80002d8:	dc22      	bgt.n	8000320 <__register_exitproc+0x68>
 80002da:	b94e      	cbnz	r6, 80002f0 <__register_exitproc+0x38>
 80002dc:	1c6b      	adds	r3, r5, #1
 80002de:	3502      	adds	r5, #2
 80002e0:	6063      	str	r3, [r4, #4]
 80002e2:	f844 7025 	str.w	r7, [r4, r5, lsl #2]
 80002e6:	f7ff ffc1 	bl	800026c <__retarget_lock_release_recursive>
 80002ea:	2000      	movs	r0, #0
 80002ec:	e8bd 83f8 	ldmia.w	sp!, {r3, r4, r5, r6, r7, r8, r9, pc}
 80002f0:	eb04 0185 	add.w	r1, r4, r5, lsl #2
 80002f4:	2301      	movs	r3, #1
 80002f6:	f8c1 9088 	str.w	r9, [r1, #136]	@ 0x88
 80002fa:	f8d4 2188 	ldr.w	r2, [r4, #392]	@ 0x188
 80002fe:	40ab      	lsls	r3, r5
 8000300:	431a      	orrs	r2, r3
 8000302:	2e02      	cmp	r6, #2
 8000304:	f8c4 2188 	str.w	r2, [r4, #392]	@ 0x188
 8000308:	f8c1 8108 	str.w	r8, [r1, #264]	@ 0x108
 800030c:	d1e6      	bne.n	80002dc <__register_exitproc+0x24>
 800030e:	f8d4 218c 	ldr.w	r2, [r4, #396]	@ 0x18c
 8000312:	431a      	orrs	r2, r3
 8000314:	f8c4 218c 	str.w	r2, [r4, #396]	@ 0x18c
 8000318:	e7e0      	b.n	80002dc <__register_exitproc+0x24>
 800031a:	4c06      	ldr	r4, [pc, #24]	@ (8000334 <__register_exitproc+0x7c>)
 800031c:	601c      	str	r4, [r3, #0]
 800031e:	e7d8      	b.n	80002d2 <__register_exitproc+0x1a>
 8000320:	f7ff ffa4 	bl	800026c <__retarget_lock_release_recursive>
 8000324:	f04f 30ff 	mov.w	r0, #4294967295
 8000328:	e7e0      	b.n	80002ec <__register_exitproc+0x34>
 800032a:	bf00      	nop
 800032c:	20000000 			@ <UNDEFINED> instruction: 20000000
 8000330:	2000002c 			@ <UNDEFINED> instruction: 2000002c
 8000334:	20000030 			@ <UNDEFINED> instruction: 20000030

08000338 <main>:
 8000338:	b480      	push	{r7}
 800033a:	b083      	sub	sp, #12
 800033c:	af00      	add	r7, sp, #0
 800033e:	230a      	movs	r3, #10
 8000340:	607b      	str	r3, [r7, #4]
 8000342:	4b08      	ldr	r3, [pc, #32]	@ (8000364 <main+0x2c>)
 8000344:	681b      	ldr	r3, [r3, #0]
 8000346:	687a      	ldr	r2, [r7, #4]
 8000348:	4413      	add	r3, r2
 800034a:	603b      	str	r3, [r7, #0]
 800034c:	4b06      	ldr	r3, [pc, #24]	@ (8000368 <main+0x30>)
 800034e:	681b      	ldr	r3, [r3, #0]
 8000350:	683a      	ldr	r2, [r7, #0]
 8000352:	4413      	add	r3, r2
 8000354:	607b      	str	r3, [r7, #4]
 8000356:	2300      	movs	r3, #0
 8000358:	4618      	mov	r0, r3
 800035a:	370c      	adds	r7, #12
 800035c:	46bd      	mov	sp, r7
 800035e:	bc80      	pop	{r7}
 8000360:	4770      	bx	lr
 8000362:	bf00      	nop
 8000364:	20000008 			@ <UNDEFINED> instruction: 20000008
 8000368:	20000004 			@ <UNDEFINED> instruction: 20000004

0800036c <__increment_tick>:
 800036c:	b480      	push	{r7}
 800036e:	af00      	add	r7, sp, #0
 8000370:	4b04      	ldr	r3, [pc, #16]	@ (8000384 <__increment_tick+0x18>)
 8000372:	681b      	ldr	r3, [r3, #0]
 8000374:	3301      	adds	r3, #1
 8000376:	4a03      	ldr	r2, [pc, #12]	@ (8000384 <__increment_tick+0x18>)
 8000378:	6013      	str	r3, [r2, #0]
 800037a:	bf00      	nop
 800037c:	46bd      	mov	sp, r7
 800037e:	bc80      	pop	{r7}
 8000380:	4770      	bx	lr
 8000382:	bf00      	nop
 8000384:	200001c0 			@ <UNDEFINED> instruction: 200001c0

08000388 <__trigger_pendsv>:
 8000388:	b480      	push	{r7}
 800038a:	af00      	add	r7, sp, #0
 800038c:	4b03      	ldr	r3, [pc, #12]	@ (800039c <__trigger_pendsv+0x14>)
 800038e:	f04f 5280 	mov.w	r2, #268435456	@ 0x10000000
 8000392:	601a      	str	r2, [r3, #0]
 8000394:	bf00      	nop
 8000396:	46bd      	mov	sp, r7
 8000398:	bc80      	pop	{r7}
 800039a:	4770      	bx	lr
 800039c:	e000ed04 			@ <UNDEFINED> instruction: e000ed04

080003a0 <__wait_for_interrupt>:
 80003a0:	b480      	push	{r7}
 80003a2:	af00      	add	r7, sp, #0
 80003a4:	bf30      	wfi
 80003a6:	bf00      	nop
 80003a8:	46bd      	mov	sp, r7
 80003aa:	bc80      	pop	{r7}
 80003ac:	4770      	bx	lr
 80003ae:	bf00      	nop

080003b0 <SVC_Handler>:
 80003b0:	4907      	ldr	r1, [pc, #28]	@ (80003d0 <SVC_Handler+0x20>)
 80003b2:	680a      	ldr	r2, [r1, #0]
 80003b4:	6810      	ldr	r0, [r2, #0]
 80003b6:	e8b0 0ff0 	ldmia.w	r0!, {r4, r5, r6, r7, r8, r9, sl, fp}
 80003ba:	f380 8809 	msr	PSP, r0
 80003be:	2002      	movs	r0, #2
 80003c0:	f380 8814 	msr	CONTROL, r0
 80003c4:	f3bf 8f6f 	isb	sy
 80003c8:	f06f 0e02 	mvn.w	lr, #2
 80003cc:	4770      	bx	lr
 80003ce:	bf00      	nop
 80003d0:	20000218 			@ <UNDEFINED> instruction: 20000218

080003d4 <SysTick_Handler>:
 80003d4:	4668      	mov	r0, sp
 80003d6:	f020 0107 	bic.w	r1, r0, #7
 80003da:	468d      	mov	sp, r1
 80003dc:	b589      	push	{r0, r3, r7, lr}
 80003de:	af00      	add	r7, sp, #0
 80003e0:	f7ff ffc4 	bl	800036c <__increment_tick>
 80003e4:	f7ff ffd0 	bl	8000388 <__trigger_pendsv>
 80003e8:	bf00      	nop
 80003ea:	46bd      	mov	sp, r7
 80003ec:	e8bd 4089 	ldmia.w	sp!, {r0, r3, r7, lr}
 80003f0:	4685      	mov	sp, r0
 80003f2:	4770      	bx	lr

080003f4 <scheduleNextTask>:
 80003f4:	b580      	push	{r7, lr}
 80003f6:	b084      	sub	sp, #16
 80003f8:	af00      	add	r7, sp, #0
 80003fa:	4b3c      	ldr	r3, [pc, #240]	@ (80004ec <scheduleNextTask+0xf8>)
 80003fc:	681b      	ldr	r3, [r3, #0]
 80003fe:	2b00      	cmp	r3, #0
 8000400:	d103      	bne.n	800040a <scheduleNextTask+0x16>
 8000402:	4b3b      	ldr	r3, [pc, #236]	@ (80004f0 <scheduleNextTask+0xfc>)
 8000404:	2200      	movs	r2, #0
 8000406:	601a      	str	r2, [r3, #0]
 8000408:	e06c      	b.n	80004e4 <scheduleNextTask+0xf0>
 800040a:	2300      	movs	r3, #0
 800040c:	60fb      	str	r3, [r7, #12]
 800040e:	2301      	movs	r3, #1
 8000410:	60bb      	str	r3, [r7, #8]
 8000412:	e056      	b.n	80004c2 <scheduleNextTask+0xce>
 8000414:	4b37      	ldr	r3, [pc, #220]	@ (80004f4 <scheduleNextTask+0x100>)
 8000416:	681a      	ldr	r2, [r3, #0]
 8000418:	68bb      	ldr	r3, [r7, #8]
 800041a:	4413      	add	r3, r2
 800041c:	4a33      	ldr	r2, [pc, #204]	@ (80004ec <scheduleNextTask+0xf8>)
 800041e:	6812      	ldr	r2, [r2, #0]
 8000420:	fbb3 f1f2 	udiv	r1, r3, r2
 8000424:	fb01 f202 	mul.w	r2, r1, r2
 8000428:	1a9b      	subs	r3, r3, r2
 800042a:	607b      	str	r3, [r7, #4]
 800042c:	4932      	ldr	r1, [pc, #200]	@ (80004f8 <scheduleNextTask+0x104>)
 800042e:	687a      	ldr	r2, [r7, #4]
 8000430:	4613      	mov	r3, r2
 8000432:	009b      	lsls	r3, r3, #2
 8000434:	4413      	add	r3, r2
 8000436:	009b      	lsls	r3, r3, #2
 8000438:	440b      	add	r3, r1
 800043a:	3308      	adds	r3, #8
 800043c:	781b      	ldrb	r3, [r3, #0]
 800043e:	2b02      	cmp	r3, #2
 8000440:	d116      	bne.n	8000470 <scheduleNextTask+0x7c>
 8000442:	492d      	ldr	r1, [pc, #180]	@ (80004f8 <scheduleNextTask+0x104>)
 8000444:	687a      	ldr	r2, [r7, #4]
 8000446:	4613      	mov	r3, r2
 8000448:	009b      	lsls	r3, r3, #2
 800044a:	4413      	add	r3, r2
 800044c:	009b      	lsls	r3, r3, #2
 800044e:	440b      	add	r3, r1
 8000450:	330c      	adds	r3, #12
 8000452:	681a      	ldr	r2, [r3, #0]
 8000454:	4b29      	ldr	r3, [pc, #164]	@ (80004fc <scheduleNextTask+0x108>)
 8000456:	681b      	ldr	r3, [r3, #0]
 8000458:	429a      	cmp	r2, r3
 800045a:	d809      	bhi.n	8000470 <scheduleNextTask+0x7c>
 800045c:	4926      	ldr	r1, [pc, #152]	@ (80004f8 <scheduleNextTask+0x104>)
 800045e:	687a      	ldr	r2, [r7, #4]
 8000460:	4613      	mov	r3, r2
 8000462:	009b      	lsls	r3, r3, #2
 8000464:	4413      	add	r3, r2
 8000466:	009b      	lsls	r3, r3, #2
 8000468:	440b      	add	r3, r1
 800046a:	3308      	adds	r3, #8
 800046c:	2201      	movs	r2, #1
 800046e:	701a      	strb	r2, [r3, #0]
 8000470:	4921      	ldr	r1, [pc, #132]	@ (80004f8 <scheduleNextTask+0x104>)
 8000472:	687a      	ldr	r2, [r7, #4]
 8000474:	4613      	mov	r3, r2
 8000476:	009b      	lsls	r3, r3, #2
 8000478:	4413      	add	r3, r2
 800047a:	009b      	lsls	r3, r3, #2
 800047c:	440b      	add	r3, r1
 800047e:	3308      	adds	r3, #8
 8000480:	781b      	ldrb	r3, [r3, #0]
 8000482:	2b03      	cmp	r3, #3
 8000484:	d013      	beq.n	80004ae <scheduleNextTask+0xba>
 8000486:	2b03      	cmp	r3, #3
 8000488:	dc15      	bgt.n	80004b6 <scheduleNextTask+0xc2>
 800048a:	2b01      	cmp	r3, #1
 800048c:	d002      	beq.n	8000494 <scheduleNextTask+0xa0>
 800048e:	2b02      	cmp	r3, #2
 8000490:	d013      	beq.n	80004ba <scheduleNextTask+0xc6>
 8000492:	e010      	b.n	80004b6 <scheduleNextTask+0xc2>
 8000494:	4a17      	ldr	r2, [pc, #92]	@ (80004f4 <scheduleNextTask+0x100>)
 8000496:	687b      	ldr	r3, [r7, #4]
 8000498:	6013      	str	r3, [r2, #0]
 800049a:	687a      	ldr	r2, [r7, #4]
 800049c:	4613      	mov	r3, r2
 800049e:	009b      	lsls	r3, r3, #2
 80004a0:	4413      	add	r3, r2
 80004a2:	009b      	lsls	r3, r3, #2
 80004a4:	4a14      	ldr	r2, [pc, #80]	@ (80004f8 <scheduleNextTask+0x104>)
 80004a6:	4413      	add	r3, r2
 80004a8:	4a11      	ldr	r2, [pc, #68]	@ (80004f0 <scheduleNextTask+0xfc>)
 80004aa:	6013      	str	r3, [r2, #0]
 80004ac:	e01a      	b.n	80004e4 <scheduleNextTask+0xf0>
 80004ae:	68fb      	ldr	r3, [r7, #12]
 80004b0:	3301      	adds	r3, #1
 80004b2:	60fb      	str	r3, [r7, #12]
 80004b4:	e002      	b.n	80004bc <scheduleNextTask+0xc8>
 80004b6:	bf00      	nop
 80004b8:	e000      	b.n	80004bc <scheduleNextTask+0xc8>
 80004ba:	bf00      	nop
 80004bc:	68bb      	ldr	r3, [r7, #8]
 80004be:	3301      	adds	r3, #1
 80004c0:	60bb      	str	r3, [r7, #8]
 80004c2:	4b0a      	ldr	r3, [pc, #40]	@ (80004ec <scheduleNextTask+0xf8>)
 80004c4:	681b      	ldr	r3, [r3, #0]
 80004c6:	68ba      	ldr	r2, [r7, #8]
 80004c8:	429a      	cmp	r2, r3
 80004ca:	d9a3      	bls.n	8000414 <scheduleNextTask+0x20>
 80004cc:	4b07      	ldr	r3, [pc, #28]	@ (80004ec <scheduleNextTask+0xf8>)
 80004ce:	681b      	ldr	r3, [r3, #0]
 80004d0:	68fa      	ldr	r2, [r7, #12]
 80004d2:	429a      	cmp	r2, r3
 80004d4:	d303      	bcc.n	80004de <scheduleNextTask+0xea>
 80004d6:	4b06      	ldr	r3, [pc, #24]	@ (80004f0 <scheduleNextTask+0xfc>)
 80004d8:	2200      	movs	r2, #0
 80004da:	601a      	str	r2, [r3, #0]
 80004dc:	e002      	b.n	80004e4 <scheduleNextTask+0xf0>
 80004de:	f7ff ff5f 	bl	80003a0 <__wait_for_interrupt>
 80004e2:	e792      	b.n	800040a <scheduleNextTask+0x16>
 80004e4:	3710      	adds	r7, #16
 80004e6:	46bd      	mov	sp, r7
 80004e8:	bd80      	pop	{r7, pc}
 80004ea:	bf00      	nop
 80004ec:	2000021c 			@ <UNDEFINED> instruction: 2000021c
 80004f0:	20000218 			@ <UNDEFINED> instruction: 20000218
 80004f4:	20000214 			@ <UNDEFINED> instruction: 20000214
 80004f8:	200001c4 			@ <UNDEFINED> instruction: 200001c4
 80004fc:	200001c0 			@ <UNDEFINED> instruction: 200001c0

08000500 <PendSV_Handler>:
 8000500:	f3ef 8009 	mrs	r0, PSP
 8000504:	e920 0ff0 	stmdb	r0!, {r4, r5, r6, r7, r8, r9, sl, fp}
 8000508:	4908      	ldr	r1, [pc, #32]	@ (800052c <PendSV_Handler+0x2c>)
 800050a:	680a      	ldr	r2, [r1, #0]
 800050c:	6010      	str	r0, [r2, #0]
 800050e:	b500      	push	{lr}
 8000510:	f7ff ff70 	bl	80003f4 <scheduleNextTask>
 8000514:	f85d eb04 	ldr.w	lr, [sp], #4
 8000518:	4904      	ldr	r1, [pc, #16]	@ (800052c <PendSV_Handler+0x2c>)
 800051a:	680a      	ldr	r2, [r1, #0]
 800051c:	6810      	ldr	r0, [r2, #0]
 800051e:	e8b0 0ff0 	ldmia.w	r0!, {r4, r5, r6, r7, r8, r9, sl, fp}
 8000522:	f380 8809 	msr	PSP, r0
 8000526:	4770      	bx	lr
 8000528:	bf00      	nop
 800052a:	02180000 			@ <UNDEFINED> instruction: 02180000
 800052e:	 			@ <UNDEFINED> instruction: b4802000

08000530 <disable_timer_interrupt>:
 8000530:	b480      	push	{r7}
 8000532:	b083      	sub	sp, #12
 8000534:	af00      	add	r7, sp, #0
 8000536:	4603      	mov	r3, r0
 8000538:	80fb      	strh	r3, [r7, #6]
 800053a:	88fb      	ldrh	r3, [r7, #6]
 800053c:	f103 4380 	add.w	r3, r3, #1073741824	@ 0x40000000
 8000540:	330c      	adds	r3, #12
 8000542:	681a      	ldr	r2, [r3, #0]
 8000544:	88fb      	ldrh	r3, [r7, #6]
 8000546:	f103 4380 	add.w	r3, r3, #1073741824	@ 0x40000000
 800054a:	330c      	adds	r3, #12
 800054c:	4619      	mov	r1, r3
 800054e:	f022 0301 	bic.w	r3, r2, #1
 8000552:	600b      	str	r3, [r1, #0]
 8000554:	bf00      	nop
 8000556:	370c      	adds	r7, #12
 8000558:	46bd      	mov	sp, r7
 800055a:	bc80      	pop	{r7}
 800055c:	4770      	bx	lr

0800055e <clear_update_interrupt_flag>:
 800055e:	b480      	push	{r7}
 8000560:	b083      	sub	sp, #12
 8000562:	af00      	add	r7, sp, #0
 8000564:	4603      	mov	r3, r0
 8000566:	80fb      	strh	r3, [r7, #6]
 8000568:	88fb      	ldrh	r3, [r7, #6]
 800056a:	f103 4380 	add.w	r3, r3, #1073741824	@ 0x40000000
 800056e:	3310      	adds	r3, #16
 8000570:	681b      	ldr	r3, [r3, #0]
 8000572:	f003 0301 	and.w	r3, r3, #1
 8000576:	2b00      	cmp	r3, #0
 8000578:	d00c      	beq.n	8000594 <clear_update_interrupt_flag+0x36>
 800057a:	88fb      	ldrh	r3, [r7, #6]
 800057c:	f103 4380 	add.w	r3, r3, #1073741824	@ 0x40000000
 8000580:	3310      	adds	r3, #16
 8000582:	681a      	ldr	r2, [r3, #0]
 8000584:	88fb      	ldrh	r3, [r7, #6]
 8000586:	f103 4380 	add.w	r3, r3, #1073741824	@ 0x40000000
 800058a:	3310      	adds	r3, #16
 800058c:	4619      	mov	r1, r3
 800058e:	f022 0301 	bic.w	r3, r2, #1
 8000592:	600b      	str	r3, [r1, #0]
 8000594:	bf00      	nop
 8000596:	370c      	adds	r7, #12
 8000598:	46bd      	mov	sp, r7
 800059a:	bc80      	pop	{r7}
 800059c:	4770      	bx	lr

0800059e <TIM2_IRQHandler>:
 800059e:	4668      	mov	r0, sp
 80005a0:	f020 0107 	bic.w	r1, r0, #7
 80005a4:	468d      	mov	sp, r1
 80005a6:	b581      	push	{r0, r7, lr}
 80005a8:	b083      	sub	sp, #12
 80005aa:	af00      	add	r7, sp, #0
 80005ac:	2300      	movs	r3, #0
 80005ae:	80fb      	strh	r3, [r7, #6]
 80005b0:	88fb      	ldrh	r3, [r7, #6]
 80005b2:	4618      	mov	r0, r3
 80005b4:	f7ff ffbc 	bl	8000530 <disable_timer_interrupt>
 80005b8:	88fb      	ldrh	r3, [r7, #6]
 80005ba:	4618      	mov	r0, r3
 80005bc:	f7ff ffcf 	bl	800055e <clear_update_interrupt_flag>
 80005c0:	bf00      	nop
 80005c2:	370c      	adds	r7, #12
 80005c4:	46bd      	mov	sp, r7
 80005c6:	e8bd 4081 	ldmia.w	sp!, {r0, r7, lr}
 80005ca:	4685      	mov	sp, r0
 80005cc:	4770      	bx	lr

080005ce <TIM3_IRQHandler>:
 80005ce:	4668      	mov	r0, sp
 80005d0:	f020 0107 	bic.w	r1, r0, #7
 80005d4:	468d      	mov	sp, r1
 80005d6:	b581      	push	{r0, r7, lr}
 80005d8:	b083      	sub	sp, #12
 80005da:	af00      	add	r7, sp, #0
 80005dc:	f44f 6380 	mov.w	r3, #1024	@ 0x400
 80005e0:	80fb      	strh	r3, [r7, #6]
 80005e2:	88fb      	ldrh	r3, [r7, #6]
 80005e4:	4618      	mov	r0, r3
 80005e6:	f7ff ffa3 	bl	8000530 <disable_timer_interrupt>
 80005ea:	88fb      	ldrh	r3, [r7, #6]
 80005ec:	4618      	mov	r0, r3
 80005ee:	f7ff ffb6 	bl	800055e <clear_update_interrupt_flag>
 80005f2:	bf00      	nop
 80005f4:	370c      	adds	r7, #12
 80005f6:	46bd      	mov	sp, r7
 80005f8:	e8bd 4081 	ldmia.w	sp!, {r0, r7, lr}
 80005fc:	4685      	mov	sp, r0
 80005fe:	4770      	bx	lr

08000600 <TIM4_IRQHandler>:
 8000600:	4668      	mov	r0, sp
 8000602:	f020 0107 	bic.w	r1, r0, #7
 8000606:	468d      	mov	sp, r1
 8000608:	b581      	push	{r0, r7, lr}
 800060a:	b083      	sub	sp, #12
 800060c:	af00      	add	r7, sp, #0
 800060e:	f44f 6300 	mov.w	r3, #2048	@ 0x800
 8000612:	80fb      	strh	r3, [r7, #6]
 8000614:	88fb      	ldrh	r3, [r7, #6]
 8000616:	4618      	mov	r0, r3
 8000618:	f7ff ff8a 	bl	8000530 <disable_timer_interrupt>
 800061c:	88fb      	ldrh	r3, [r7, #6]
 800061e:	4618      	mov	r0, r3
 8000620:	f7ff ff9d 	bl	800055e <clear_update_interrupt_flag>
 8000624:	bf00      	nop
 8000626:	370c      	adds	r7, #12
 8000628:	46bd      	mov	sp, r7
 800062a:	e8bd 4081 	ldmia.w	sp!, {r0, r7, lr}
 800062e:	4685      	mov	sp, r0
 8000630:	4770      	bx	lr

08000632 <TIM5_IRQHandler>:
 8000632:	4668      	mov	r0, sp
 8000634:	f020 0107 	bic.w	r1, r0, #7
 8000638:	468d      	mov	sp, r1
 800063a:	b581      	push	{r0, r7, lr}
 800063c:	b083      	sub	sp, #12
 800063e:	af00      	add	r7, sp, #0
 8000640:	f44f 6340 	mov.w	r3, #3072	@ 0xc00
 8000644:	80fb      	strh	r3, [r7, #6]
 8000646:	88fb      	ldrh	r3, [r7, #6]
 8000648:	4618      	mov	r0, r3
 800064a:	f7ff ff71 	bl	8000530 <disable_timer_interrupt>
 800064e:	88fb      	ldrh	r3, [r7, #6]
 8000650:	4618      	mov	r0, r3
 8000652:	f7ff ff84 	bl	800055e <clear_update_interrupt_flag>
 8000656:	bf00      	nop
 8000658:	370c      	adds	r7, #12
 800065a:	46bd      	mov	sp, r7
 800065c:	e8bd 4081 	ldmia.w	sp!, {r0, r7, lr}
 8000660:	4685      	mov	sp, r0
 8000662:	4770      	bx	lr

08000664 <Reset_Handler>:
 8000664:	480d      	ldr	r0, [pc, #52]	@ (800069c <LoopForever+0x2>)
 8000666:	4685      	mov	sp, r0
 8000668:	f3af 8000 	nop.w
 800066c:	480c      	ldr	r0, [pc, #48]	@ (80006a0 <LoopForever+0x6>)
 800066e:	490d      	ldr	r1, [pc, #52]	@ (80006a4 <LoopForever+0xa>)
 8000670:	4a0d      	ldr	r2, [pc, #52]	@ (80006a8 <LoopForever+0xe>)
 8000672:	2300      	movs	r3, #0
 8000674:	e002      	b.n	800067c <LoopCopyDataInit>

08000676 <CopyDataInit>:
 8000676:	58d4      	ldr	r4, [r2, r3]
 8000678:	50c4      	str	r4, [r0, r3]
 800067a:	3304      	adds	r3, #4

0800067c <LoopCopyDataInit>:
 800067c:	18c4      	adds	r4, r0, r3
 800067e:	428c      	cmp	r4, r1
 8000680:	d3f9      	bcc.n	8000676 <CopyDataInit>
 8000682:	4a0a      	ldr	r2, [pc, #40]	@ (80006ac <LoopForever+0x12>)
 8000684:	4c0a      	ldr	r4, [pc, #40]	@ (80006b0 <LoopForever+0x16>)
 8000686:	2300      	movs	r3, #0
 8000688:	e001      	b.n	800068e <LoopFillZerobss>

0800068a <FillZerobss>:
 800068a:	6013      	str	r3, [r2, #0]
 800068c:	3204      	adds	r2, #4

0800068e <LoopFillZerobss>:
 800068e:	42a2      	cmp	r2, r4
 8000690:	d3fb      	bcc.n	800068a <FillZerobss>
 8000692:	f7ff fdc1 	bl	8000218 <__libc_init_array>
 8000696:	f7ff fe4f 	bl	8000338 <main>

0800069a <LoopForever>:
 800069a:	e7fe      	b.n	800069a <LoopForever>
 800069c:	20020000 			@ <UNDEFINED> instruction: 20020000
 80006a0:	20000000 			@ <UNDEFINED> instruction: 20000000
 80006a4:	2000000c 			@ <UNDEFINED> instruction: 2000000c
 80006a8:	080006dc 			@ <UNDEFINED> instruction: 080006dc
 80006ac:	2000000c 			@ <UNDEFINED> instruction: 2000000c
 80006b0:	20000220 			@ <UNDEFINED> instruction: 20000220

080006b4 <ADC1_2_IRQHandler>:
 80006b4:	e7fe      	b.n	80006b4 <ADC1_2_IRQHandler>
	...

080006b8 <_init>:
 80006b8:	b5f8      	push	{r3, r4, r5, r6, r7, lr}
 80006ba:	bf00      	nop
 80006bc:	bcf8      	pop	{r3, r4, r5, r6, r7}
 80006be:	bc08      	pop	{r3}
 80006c0:	469e      	mov	lr, r3
 80006c2:	4770      	bx	lr

080006c4 <_fini>:
 80006c4:	b5f8      	push	{r3, r4, r5, r6, r7, lr}
 80006c6:	bf00      	nop
 80006c8:	bcf8      	pop	{r3, r4, r5, r6, r7}
 80006ca:	bc08      	pop	{r3}
 80006cc:	469e      	mov	lr, r3
 80006ce:	4770      	bx	lr

Disassembly of section .init_array:

080006d0 <__init_array_start>:
 80006d0:	08000271 			@ <UNDEFINED> instruction: 08000271

080006d4 <__frame_dummy_init_array_entry>:
 80006d4:	080001fd 			@ <UNDEFINED> instruction: 080001fd

Disassembly of section .fini_array:

080006d8 <__do_global_dtors_aux_fini_array_entry>:
 80006d8:	080001d9 			@ <UNDEFINED> instruction: 080001d9

Disassembly of section .data:

20000000 <__atexit_recursive_mutex>:
20000000:	20000028 			@ <UNDEFINED> instruction: 20000028

20000004 <global_init>:
20000004:	00000005 			@ <UNDEFINED> instruction: 00000005

20000008 <static_var.0>:
20000008:	00000014 			@ <UNDEFINED> instruction: 00000014

Disassembly of section .ARM.attributes:

00000000 <.ARM.attributes>:
   0:	00002f41 			@ <UNDEFINED> instruction: 00002f41
   4:	61656100 			@ <UNDEFINED> instruction: 61656100
   8:	01006962 			@ <UNDEFINED> instruction: 01006962
   c:	00000025 			@ <UNDEFINED> instruction: 00000025
  10:	2d453705 			@ <UNDEFINED> instruction: 2d453705
  14:	0d06004d 			@ <UNDEFINED> instruction: 0d06004d
  18:	02094d07 			@ <UNDEFINED> instruction: 02094d07
  1c:	0412060a 			@ <UNDEFINED> instruction: 0412060a
  20:	01150114 			@ <UNDEFINED> instruction: 01150114
  24:	01180317 			@ <UNDEFINED> instruction: 01180317
  28:	011b011a 			@ <UNDEFINED> instruction: 011b011a
  2c:	0122011c 			@ <UNDEFINED> instruction: 0122011c

Disassembly of section .debug_frame:

00000000 <.debug_frame>:
   0:	0000000c 			@ <UNDEFINED> instruction: 0000000c
   4:	ffffffff 			@ <UNDEFINED> instruction: ffffffff
   8:	7c020001 			@ <UNDEFINED> instruction: 7c020001
   c:	000d0c0e 			@ <UNDEFINED> instruction: 000d0c0e
  10:	00000018 			@ <UNDEFINED> instruction: 00000018
  14:	00000000 			@ <UNDEFINED> instruction: 00000000
  18:	08000218 			@ <UNDEFINED> instruction: 08000218
  1c:	00000050 			@ <UNDEFINED> instruction: 00000050
  20:	84100e41 			@ <UNDEFINED> instruction: 84100e41
  24:	86038504 			@ <UNDEFINED> instruction: 86038504
  28:	00018e02 			@ <UNDEFINED> instruction: 00018e02
  2c:	0000000c 			@ <UNDEFINED> instruction: 0000000c
  30:	ffffffff 			@ <UNDEFINED> instruction: ffffffff
  34:	7c020001 			@ <UNDEFINED> instruction: 7c020001
  38:	000d0c0e 			@ <UNDEFINED> instruction: 000d0c0e
  3c:	0000000c 			@ <UNDEFINED> instruction: 0000000c
  40:	0000002c 			@ <UNDEFINED> instruction: 0000002c
  44:	00000000 			@ <UNDEFINED> instruction: 00000000
  48:	00000002 			@ <UNDEFINED> instruction: 00000002
  4c:	0000000c 			@ <UNDEFINED> instruction: 0000000c
  50:	0000002c 			@ <UNDEFINED> instruction: 0000002c
  54:	00000000 			@ <UNDEFINED> instruction: 00000000
  58:	00000002 			@ <UNDEFINED> instruction: 00000002
  5c:	0000000c 			@ <UNDEFINED> instruction: 0000000c
  60:	0000002c 			@ <UNDEFINED> instruction: 0000002c
  64:	00000000 			@ <UNDEFINED> instruction: 00000000
  68:	00000002 			@ <UNDEFINED> instruction: 00000002
  6c:	0000000c 			@ <UNDEFINED> instruction: 0000000c
  70:	0000002c 			@ <UNDEFINED> instruction: 0000002c
  74:	00000000 			@ <UNDEFINED> instruction: 00000000
  78:	00000002 			@ <UNDEFINED> instruction: 00000002
  7c:	0000000c 			@ <UNDEFINED> instruction: 0000000c
  80:	0000002c 			@ <UNDEFINED> instruction: 0000002c
  84:	00000000 			@ <UNDEFINED> instruction: 00000000
  88:	00000002 			@ <UNDEFINED> instruction: 00000002
  8c:	0000000c 			@ <UNDEFINED> instruction: 0000000c
  90:	0000002c 			@ <UNDEFINED> instruction: 0000002c
  94:	08000268 			@ <UNDEFINED> instruction: 08000268
  98:	00000002 			@ <UNDEFINED> instruction: 00000002
  9c:	0000000c 			@ <UNDEFINED> instruction: 0000000c
  a0:	0000002c 			@ <UNDEFINED> instruction: 0000002c
  a4:	00000000 			@ <UNDEFINED> instruction: 00000000
  a8:	00000004 			@ <UNDEFINED> instruction: 00000004
  ac:	0000000c 			@ <UNDEFINED> instruction: 0000000c
  b0:	0000002c 			@ <UNDEFINED> instruction: 0000002c
  b4:	00000000 			@ <UNDEFINED> instruction: 00000000
  b8:	00000004 			@ <UNDEFINED> instruction: 00000004
  bc:	0000000c 			@ <UNDEFINED> instruction: 0000000c
  c0:	0000002c 			@ <UNDEFINED> instruction: 0000002c
  c4:	00000000 			@ <UNDEFINED> instruction: 00000000
  c8:	00000002 			@ <UNDEFINED> instruction: 00000002
  cc:	0000000c 			@ <UNDEFINED> instruction: 0000000c
  d0:	0000002c 			@ <UNDEFINED> instruction: 0000002c
  d4:	0800026c 			@ <UNDEFINED> instruction: 0800026c
  d8:	00000002 			@ <UNDEFINED> instruction: 00000002
  dc:	0000000c 			@ <UNDEFINED> instruction: 0000000c
  e0:	ffffffff 			@ <UNDEFINED> instruction: ffffffff
  e4:	7c020001 			@ <UNDEFINED> instruction: 7c020001
  e8:	000d0c0e 			@ <UNDEFINED> instruction: 000d0c0e
  ec:	0000000c 			@ <UNDEFINED> instruction: 0000000c
  f0:	000000dc 	ldrdeq	r0, [r0], -ip
  f4:	08000270 			@ <UNDEFINED> instruction: 08000270
  f8:	00000014 			@ <UNDEFINED> instruction: 00000014
  fc:	00000038 			@ <UNDEFINED> instruction: 00000038
 100:	000000dc 	ldrdeq	r0, [r0], -ip
 104:	00000000 			@ <UNDEFINED> instruction: 00000000
 108:	000000c0 			@ <UNDEFINED> instruction: 000000c0
 10c:	84240e42 			@ <UNDEFINED> instruction: 84240e42
 110:	86088509 			@ <UNDEFINED> instruction: 86088509
 114:	88068707 			@ <UNDEFINED> instruction: 88068707
 118:	8a048905 			@ <UNDEFINED> instruction: 8a048905
 11c:	8e028b03 	vmlahi.f64	d8, d2, d3
 120:	300e4301 			@ <UNDEFINED> instruction: 300e4301
 124:	240e0a62 			@ <UNDEFINED> instruction: 240e0a62
 128:	cacbce42 			@ <UNDEFINED> instruction: cacbce42
 12c:	c6c7c8c9 			@ <UNDEFINED> instruction: c6c7c8c9
 130:	000ec4c5 			@ <UNDEFINED> instruction: 000ec4c5
 134:	00000b42 			@ <UNDEFINED> instruction: 00000b42
 138:	0000000c 			@ <UNDEFINED> instruction: 0000000c
 13c:	ffffffff 			@ <UNDEFINED> instruction: ffffffff
 140:	7c020001 			@ <UNDEFINED> instruction: 7c020001
 144:	000d0c0e 			@ <UNDEFINED> instruction: 000d0c0e
 148:	0000000c 			@ <UNDEFINED> instruction: 0000000c
 14c:	00000138 			@ <UNDEFINED> instruction: 00000138
 150:	08000284 			@ <UNDEFINED> instruction: 08000284
 154:	0000000c 			@ <UNDEFINED> instruction: 0000000c
 158:	0000000c 			@ <UNDEFINED> instruction: 0000000c
 15c:	ffffffff 			@ <UNDEFINED> instruction: ffffffff
 160:	7c020001 			@ <UNDEFINED> instruction: 7c020001
 164:	000d0c0e 			@ <UNDEFINED> instruction: 000d0c0e
 168:	00000020 			@ <UNDEFINED> instruction: 00000020
 16c:	00000158 			@ <UNDEFINED> instruction: 00000158
 170:	08000290 			@ <UNDEFINED> instruction: 08000290
 174:	00000028 			@ <UNDEFINED> instruction: 00000028
 178:	83100e41 			@ <UNDEFINED> instruction: 83100e41
 17c:	85038404 			@ <UNDEFINED> instruction: 85038404
 180:	4d018e02 			@ <UNDEFINED> instruction: 4d018e02
 184:	c3c4c5ce 			@ <UNDEFINED> instruction: c3c4c5ce
 188:	0000000e 			@ <UNDEFINED> instruction: 0000000e
 18c:	0000000c 			@ <UNDEFINED> instruction: 0000000c
 190:	ffffffff 			@ <UNDEFINED> instruction: ffffffff
 194:	7c020001 			@ <UNDEFINED> instruction: 7c020001
 198:	000d0c0e 			@ <UNDEFINED> instruction: 000d0c0e
 19c:	00000020 			@ <UNDEFINED> instruction: 00000020
 1a0:	0000018c 			@ <UNDEFINED> instruction: 0000018c
 1a4:	080002b8 			@ <UNDEFINED> instruction: 080002b8
 1a8:	00000080 			@ <UNDEFINED> instruction: 00000080
 1ac:	83200e42 			@ <UNDEFINED> instruction: 83200e42
 1b0:	85078408 			@ <UNDEFINED> instruction: 85078408
 1b4:	87058606 			@ <UNDEFINED> instruction: 87058606
 1b8:	89038804 			@ <UNDEFINED> instruction: 89038804
 1bc:	00018e02 			@ <UNDEFINED> instruction: 00018e02
 1c0:	0000000c 			@ <UNDEFINED> instruction: 0000000c
 1c4:	ffffffff 			@ <UNDEFINED> instruction: ffffffff
 1c8:	7c020001 			@ <UNDEFINED> instruction: 7c020001
 1cc:	000d0c0e 			@ <UNDEFINED> instruction: 000d0c0e
 1d0:	0000001c 			@ <UNDEFINED> instruction: 0000001c
 1d4:	000001c0 			@ <UNDEFINED> instruction: 000001c0
 1d8:	00000000 			@ <UNDEFINED> instruction: 00000000
 1dc:	00000040 			@ <UNDEFINED> instruction: 00000040
 1e0:	87080e41 			@ <UNDEFINED> instruction: 87080e41
 1e4:	41018e02 			@ <UNDEFINED> instruction: 41018e02
 1e8:	0d41280e 			@ <UNDEFINED> instruction: 0d41280e
 1ec:	00000007 			@ <UNDEFINED> instruction: 00000007
 1f0:	0000001c 			@ <UNDEFINED> instruction: 0000001c
 1f4:	000001c0 			@ <UNDEFINED> instruction: 000001c0
 1f8:	00000000 			@ <UNDEFINED> instruction: 00000000
 1fc:	00000040 			@ <UNDEFINED> instruction: 00000040
 200:	87080e41 			@ <UNDEFINED> instruction: 87080e41
 204:	41018e02 			@ <UNDEFINED> instruction: 41018e02
 208:	0d41280e 			@ <UNDEFINED> instruction: 0d41280e
 20c:	00000007 			@ <UNDEFINED> instruction: 00000007
 210:	00000020 			@ <UNDEFINED> instruction: 00000020
 214:	000001c0 			@ <UNDEFINED> instruction: 000001c0
 218:	08000338 			@ <UNDEFINED> instruction: 08000338
 21c:	00000034 			@ <UNDEFINED> instruction: 00000034
 220:	87040e41 			@ <UNDEFINED> instruction: 87040e41
 224:	100e4101 			@ <UNDEFINED> instruction: 100e4101
 228:	4f070d41 			@ <UNDEFINED> instruction: 4f070d41
 22c:	0d41040e 			@ <UNDEFINED> instruction: 0d41040e
 230:	0000000d 			@ <UNDEFINED> instruction: 0000000d
 234:	0000000c 			@ <UNDEFINED> instruction: 0000000c
 238:	ffffffff 			@ <UNDEFINED> instruction: ffffffff
 23c:	7c020001 			@ <UNDEFINED> instruction: 7c020001
 240:	000d0c0e 			@ <UNDEFINED> instruction: 000d0c0e
 244:	00000020 			@ <UNDEFINED> instruction: 00000020
 248:	00000234 			@ <UNDEFINED> instruction: 00000234
 24c:	00000000 			@ <UNDEFINED> instruction: 00000000
 250:	00000018 			@ <UNDEFINED> instruction: 00000018
 254:	87040e41 			@ <UNDEFINED> instruction: 87040e41
 258:	100e4101 			@ <UNDEFINED> instruction: 100e4101
 25c:	46070d41 			@ <UNDEFINED> instruction: 46070d41
 260:	0d41040e 			@ <UNDEFINED> instruction: 0d41040e
 264:	0000000d 			@ <UNDEFINED> instruction: 0000000d
 268:	00000018 			@ <UNDEFINED> instruction: 00000018
 26c:	00000234 			@ <UNDEFINED> instruction: 00000234
 270:	00000000 			@ <UNDEFINED> instruction: 00000000
 274:	00000010 			@ <UNDEFINED> instruction: 00000010
 278:	87040e41 			@ <UNDEFINED> instruction: 87040e41
 27c:	070d4101 			@ <UNDEFINED> instruction: 070d4101
 280:	000d0d44 			@ <UNDEFINED> instruction: 000d0d44
 284:	00000018 			@ <UNDEFINED> instruction: 00000018
 288:	00000234 			@ <UNDEFINED> instruction: 00000234
 28c:	00000000 			@ <UNDEFINED> instruction: 00000000
 290:	00000010 			@ <UNDEFINED> instruction: 00000010
 294:	87040e41 			@ <UNDEFINED> instruction: 87040e41
 298:	070d4101 			@ <UNDEFINED> instruction: 070d4101
 29c:	000d0d44 			@ <UNDEFINED> instruction: 000d0d44
 2a0:	00000018 			@ <UNDEFINED> instruction: 00000018
 2a4:	00000234 			@ <UNDEFINED> instruction: 00000234
 2a8:	0800036c 			@ <UNDEFINED> instruction: 0800036c
 2ac:	0000001c 			@ <UNDEFINED> instruction: 0000001c
 2b0:	87040e41 			@ <UNDEFINED> instruction: 87040e41
 2b4:	070d4101 			@ <UNDEFINED> instruction: 070d4101
 2b8:	000d0d47 			@ <UNDEFINED> instruction: 000d0d47
 2bc:	00000018 			@ <UNDEFINED> instruction: 00000018
 2c0:	00000234 			@ <UNDEFINED> instruction: 00000234
 2c4:	00000000 			@ <UNDEFINED> instruction: 00000000
 2c8:	0000000e 			@ <UNDEFINED> instruction: 0000000e
 2cc:	87040e41 			@ <UNDEFINED> instruction: 87040e41
 2d0:	070d4101 			@ <UNDEFINED> instruction: 070d4101
 2d4:	000d0d43 			@ <UNDEFINED> instruction: 000d0d43
 2d8:	00000018 			@ <UNDEFINED> instruction: 00000018
 2dc:	00000234 			@ <UNDEFINED> instruction: 00000234
 2e0:	08000388 			@ <UNDEFINED> instruction: 08000388
 2e4:	00000018 			@ <UNDEFINED> instruction: 00000018
 2e8:	87040e41 			@ <UNDEFINED> instruction: 87040e41
 2ec:	070d4101 			@ <UNDEFINED> instruction: 070d4101
 2f0:	000d0d46 			@ <UNDEFINED> instruction: 000d0d46
 2f4:	00000018 			@ <UNDEFINED> instruction: 00000018
 2f8:	00000234 			@ <UNDEFINED> instruction: 00000234
 2fc:	080003a0 			@ <UNDEFINED> instruction: 080003a0
 300:	0000000e 			@ <UNDEFINED> instruction: 0000000e
 304:	87040e41 			@ <UNDEFINED> instruction: 87040e41
 308:	070d4101 			@ <UNDEFINED> instruction: 070d4101
 30c:	000d0d43 			@ <UNDEFINED> instruction: 000d0d43
 310:	00000018 			@ <UNDEFINED> instruction: 00000018
 314:	00000234 			@ <UNDEFINED> instruction: 00000234
 318:	00000000 			@ <UNDEFINED> instruction: 00000000
 31c:	00000012 			@ <UNDEFINED> instruction: 00000012
 320:	83080e41 	movwhi	r0, #36417	@ 0x8e41
 324:	46018e02 			@ <UNDEFINED> instruction: 46018e02
 328:	000ec3ce 			@ <UNDEFINED> instruction: 000ec3ce
 32c:	0000000c 			@ <UNDEFINED> instruction: 0000000c
 330:	00000234 			@ <UNDEFINED> instruction: 00000234
 334:	080003b0 			@ <UNDEFINED> instruction: 080003b0
 338:	00000020 			@ <UNDEFINED> instruction: 00000020
 33c:	00000028 			@ <UNDEFINED> instruction: 00000028
 340:	00000234 			@ <UNDEFINED> instruction: 00000234
 344:	080003d4 			@ <UNDEFINED> instruction: 080003d4
 348:	00000020 			@ <UNDEFINED> instruction: 00000020
 34c:	000d0941 			@ <UNDEFINED> instruction: 000d0941
 350:	8d100e44 			@ <UNDEFINED> instruction: 8d100e44
 354:	87038304 			@ <UNDEFINED> instruction: 87038304
 358:	41018e02 			@ <UNDEFINED> instruction: 41018e02
 35c:	0d46070d 			@ <UNDEFINED> instruction: 0d46070d
 360:	c7ce420d 			@ <UNDEFINED> instruction: c7ce420d
 364:	000ec0c3 			@ <UNDEFINED> instruction: 000ec0c3
 368:	00000020 			@ <UNDEFINED> instruction: 00000020
 36c:	00000234 			@ <UNDEFINED> instruction: 00000234
 370:	00000000 			@ <UNDEFINED> instruction: 00000000
 374:	00000180 			@ <UNDEFINED> instruction: 00000180
 378:	87040e41 			@ <UNDEFINED> instruction: 87040e41
 37c:	300e4101 			@ <UNDEFINED> instruction: 300e4101
 380:	02070d41 			@ <UNDEFINED> instruction: 02070d41
 384:	41040eb2 			@ <UNDEFINED> instruction: 41040eb2
 388:	00000d0d 			@ <UNDEFINED> instruction: 00000d0d
 38c:	00000020 			@ <UNDEFINED> instruction: 00000020
 390:	00000234 			@ <UNDEFINED> instruction: 00000234
 394:	080003f4 			@ <UNDEFINED> instruction: 080003f4
 398:	0000010c 			@ <UNDEFINED> instruction: 0000010c
 39c:	87080e41 			@ <UNDEFINED> instruction: 87080e41
 3a0:	41018e02 			@ <UNDEFINED> instruction: 41018e02
 3a4:	0d41180e 			@ <UNDEFINED> instruction: 0d41180e
 3a8:	0e760207 			@ <UNDEFINED> instruction: 0e760207
 3ac:	0d0d4108 			@ <UNDEFINED> instruction: 0d0d4108
 3b0:	00000018 			@ <UNDEFINED> instruction: 00000018
 3b4:	00000234 			@ <UNDEFINED> instruction: 00000234
 3b8:	00000000 			@ <UNDEFINED> instruction: 00000000
 3bc:	00000020 			@ <UNDEFINED> instruction: 00000020
 3c0:	87080e41 			@ <UNDEFINED> instruction: 87080e41
 3c4:	41018e02 			@ <UNDEFINED> instruction: 41018e02
 3c8:	0000070d 			@ <UNDEFINED> instruction: 0000070d
 3cc:	00000018 			@ <UNDEFINED> instruction: 00000018
 3d0:	00000234 			@ <UNDEFINED> instruction: 00000234
 3d4:	00000000 			@ <UNDEFINED> instruction: 00000000
 3d8:	00000014 			@ <UNDEFINED> instruction: 00000014
 3dc:	87040e41 			@ <UNDEFINED> instruction: 87040e41
 3e0:	070d4101 			@ <UNDEFINED> instruction: 070d4101
 3e4:	000d0d44 			@ <UNDEFINED> instruction: 000d0d44
 3e8:	00000020 			@ <UNDEFINED> instruction: 00000020
 3ec:	00000234 			@ <UNDEFINED> instruction: 00000234
 3f0:	00000000 			@ <UNDEFINED> instruction: 00000000
 3f4:	00000022 			@ <UNDEFINED> instruction: 00000022
 3f8:	87080e41 			@ <UNDEFINED> instruction: 87080e41
 3fc:	41018e02 			@ <UNDEFINED> instruction: 41018e02
 400:	0d41100e 			@ <UNDEFINED> instruction: 0d41100e
 404:	080e4c07 			@ <UNDEFINED> instruction: 080e4c07
 408:	000d0d41 			@ <UNDEFINED> instruction: 000d0d41
 40c:	00000020 			@ <UNDEFINED> instruction: 00000020
 410:	00000234 			@ <UNDEFINED> instruction: 00000234
 414:	00000000 			@ <UNDEFINED> instruction: 00000000
 418:	00000040 			@ <UNDEFINED> instruction: 00000040
 41c:	87080e41 			@ <UNDEFINED> instruction: 87080e41
 420:	41018e02 			@ <UNDEFINED> instruction: 41018e02
 424:	0d41100e 			@ <UNDEFINED> instruction: 0d41100e
 428:	080e5707 			@ <UNDEFINED> instruction: 080e5707
 42c:	000d0d41 			@ <UNDEFINED> instruction: 000d0d41
 430:	00000020 			@ <UNDEFINED> instruction: 00000020
 434:	00000234 			@ <UNDEFINED> instruction: 00000234
 438:	00000000 			@ <UNDEFINED> instruction: 00000000
 43c:	00000048 			@ <UNDEFINED> instruction: 00000048
 440:	87080e41 			@ <UNDEFINED> instruction: 87080e41
 444:	41018e02 			@ <UNDEFINED> instruction: 41018e02
 448:	0d41100e 			@ <UNDEFINED> instruction: 0d41100e
 44c:	080e5d07 			@ <UNDEFINED> instruction: 080e5d07
 450:	000d0d41 			@ <UNDEFINED> instruction: 000d0d41
 454:	00000024 			@ <UNDEFINED> instruction: 00000024
 458:	00000234 			@ <UNDEFINED> instruction: 00000234
 45c:	00000000 			@ <UNDEFINED> instruction: 00000000
 460:	000000a0 			@ <UNDEFINED> instruction: 000000a0
 464:	83100e41 			@ <UNDEFINED> instruction: 83100e41
 468:	85038404 			@ <UNDEFINED> instruction: 85038404
 46c:	02018e02 			@ <UNDEFINED> instruction: 02018e02
 470:	c5ce0a41 			@ <UNDEFINED> instruction: c5ce0a41
 474:	000ec3c4 			@ <UNDEFINED> instruction: 000ec3c4
 478:	00000b42 			@ <UNDEFINED> instruction: 00000b42
 47c:	0000000c 			@ <UNDEFINED> instruction: 0000000c
 480:	00000234 			@ <UNDEFINED> instruction: 00000234
 484:	08000500 			@ <UNDEFINED> instruction: 08000500
 488:	0000002a 			@ <UNDEFINED> instruction: 0000002a
 48c:	0000000c 			@ <UNDEFINED> instruction: 0000000c
 490:	ffffffff 			@ <UNDEFINED> instruction: ffffffff
 494:	7c020001 			@ <UNDEFINED> instruction: 7c020001
 498:	000d0c0e 			@ <UNDEFINED> instruction: 000d0c0e
 49c:	00000020 			@ <UNDEFINED> instruction: 00000020
 4a0:	0000048c 			@ <UNDEFINED> instruction: 0000048c
 4a4:	00000000 			@ <UNDEFINED> instruction: 00000000
 4a8:	0000004c 			@ <UNDEFINED> instruction: 0000004c
 4ac:	87040e41 			@ <UNDEFINED> instruction: 87040e41
 4b0:	100e4101 			@ <UNDEFINED> instruction: 100e4101
 4b4:	60070d41 			@ <UNDEFINED> instruction: 60070d41
 4b8:	0d41040e 			@ <UNDEFINED> instruction: 0d41040e
 4bc:	0000000d 			@ <UNDEFINED> instruction: 0000000d
 4c0:	00000020 			@ <UNDEFINED> instruction: 00000020
 4c4:	0000048c 			@ <UNDEFINED> instruction: 0000048c
 4c8:	00000000 			@ <UNDEFINED> instruction: 00000000
 4cc:	0000002e 			@ <UNDEFINED> instruction: 0000002e
 4d0:	87040e41 			@ <UNDEFINED> instruction: 87040e41
 4d4:	100e4101 			@ <UNDEFINED> instruction: 100e4101
 4d8:	51070d41 			@ <UNDEFINED> instruction: 51070d41
 4dc:	0d41040e 			@ <UNDEFINED> instruction: 0d41040e
 4e0:	0000000d 			@ <UNDEFINED> instruction: 0000000d
 4e4:	00000020 			@ <UNDEFINED> instruction: 00000020
 4e8:	0000048c 			@ <UNDEFINED> instruction: 0000048c
 4ec:	08000530 			@ <UNDEFINED> instruction: 08000530
 4f0:	0000002e 			@ <UNDEFINED> instruction: 0000002e
 4f4:	87040e41 			@ <UNDEFINED> instruction: 87040e41
 4f8:	100e4101 			@ <UNDEFINED> instruction: 100e4101
 4fc:	51070d41 			@ <UNDEFINED> instruction: 51070d41
 500:	0d41040e 			@ <UNDEFINED> instruction: 0d41040e
 504:	0000000d 			@ <UNDEFINED> instruction: 0000000d
 508:	00000020 			@ <UNDEFINED> instruction: 00000020
 50c:	0000048c 			@ <UNDEFINED> instruction: 0000048c
 510:	0800055e 			@ <UNDEFINED> instruction: 0800055e
 514:	00000040 			@ <UNDEFINED> instruction: 00000040
 518:	87040e41 			@ <UNDEFINED> instruction: 87040e41
 51c:	100e4101 			@ <UNDEFINED> instruction: 100e4101
 520:	5a070d41 			@ <UNDEFINED> instruction: 5a070d41
 524:	0d41040e 			@ <UNDEFINED> instruction: 0d41040e
 528:	0000000d 			@ <UNDEFINED> instruction: 0000000d
 52c:	00000020 			@ <UNDEFINED> instruction: 00000020
 530:	0000048c 			@ <UNDEFINED> instruction: 0000048c
 534:	00000000 			@ <UNDEFINED> instruction: 00000000
 538:	0000002e 			@ <UNDEFINED> instruction: 0000002e
 53c:	87040e41 			@ <UNDEFINED> instruction: 87040e41
 540:	100e4101 			@ <UNDEFINED> instruction: 100e4101
 544:	51070d41 			@ <UNDEFINED> instruction: 51070d41
 548:	0d41040e 			@ <UNDEFINED> instruction: 0d41040e
 54c:	0000000d 			@ <UNDEFINED> instruction: 0000000d
 550:	00000018 			@ <UNDEFINED> instruction: 00000018
 554:	0000048c 			@ <UNDEFINED> instruction: 0000048c
 558:	00000000 			@ <UNDEFINED> instruction: 00000000
 55c:	0000000e 			@ <UNDEFINED> instruction: 0000000e
 560:	87040e41 			@ <UNDEFINED> instruction: 87040e41
 564:	070d4101 			@ <UNDEFINED> instruction: 070d4101
 568:	000d0d43 			@ <UNDEFINED> instruction: 000d0d43
 56c:	00000020 			@ <UNDEFINED> instruction: 00000020
 570:	0000048c 			@ <UNDEFINED> instruction: 0000048c
 574:	00000000 			@ <UNDEFINED> instruction: 00000000
 578:	0000003c 			@ <UNDEFINED> instruction: 0000003c
 57c:	87080e41 			@ <UNDEFINED> instruction: 87080e41
 580:	41018e02 			@ <UNDEFINED> instruction: 41018e02
 584:	0d41100e 			@ <UNDEFINED> instruction: 0d41100e
 588:	080e5907 			@ <UNDEFINED> instruction: 080e5907
 58c:	000d0d41 			@ <UNDEFINED> instruction: 000d0d41
 590:	00000020 			@ <UNDEFINED> instruction: 00000020
 594:	0000048c 			@ <UNDEFINED> instruction: 0000048c
 598:	00000000 			@ <UNDEFINED> instruction: 00000000
 59c:	00000028 			@ <UNDEFINED> instruction: 00000028
 5a0:	87040e41 			@ <UNDEFINED> instruction: 87040e41
 5a4:	100e4101 			@ <UNDEFINED> instruction: 100e4101
 5a8:	4e070d41 			@ <UNDEFINED> instruction: 4e070d41
 5ac:	0d41040e 			@ <UNDEFINED> instruction: 0d41040e
 5b0:	0000000d 			@ <UNDEFINED> instruction: 0000000d
 5b4:	00000020 			@ <UNDEFINED> instruction: 00000020
 5b8:	0000048c 			@ <UNDEFINED> instruction: 0000048c
 5bc:	00000000 			@ <UNDEFINED> instruction: 00000000
 5c0:	0000003c 			@ <UNDEFINED> instruction: 0000003c
 5c4:	87080e41 			@ <UNDEFINED> instruction: 87080e41
 5c8:	41018e02 			@ <UNDEFINED> instruction: 41018e02
 5cc:	0d41180e 			@ <UNDEFINED> instruction: 0d41180e
 5d0:	080e5907 			@ <UNDEFINED> instruction: 080e5907
 5d4:	000d0d41 			@ <UNDEFINED> instruction: 000d0d41
 5d8:	00000020 			@ <UNDEFINED> instruction: 00000020
 5dc:	0000048c 			@ <UNDEFINED> instruction: 0000048c
 5e0:	00000000 			@ <UNDEFINED> instruction: 00000000
 5e4:	00000026 			@ <UNDEFINED> instruction: 00000026
 5e8:	87040e41 			@ <UNDEFINED> instruction: 87040e41
 5ec:	100e4101 			@ <UNDEFINED> instruction: 100e4101
 5f0:	4d070d41 			@ <UNDEFINED> instruction: 4d070d41
 5f4:	0d41040e 			@ <UNDEFINED> instruction: 0d41040e
 5f8:	0000000d 			@ <UNDEFINED> instruction: 0000000d
 5fc:	00000020 			@ <UNDEFINED> instruction: 00000020
 600:	0000048c 			@ <UNDEFINED> instruction: 0000048c
 604:	00000000 			@ <UNDEFINED> instruction: 00000000
 608:	00000026 			@ <UNDEFINED> instruction: 00000026
 60c:	87040e41 			@ <UNDEFINED> instruction: 87040e41
 610:	100e4101 			@ <UNDEFINED> instruction: 100e4101
 614:	4d070d41 			@ <UNDEFINED> instruction: 4d070d41
 618:	0d41040e 			@ <UNDEFINED> instruction: 0d41040e
 61c:	0000000d 			@ <UNDEFINED> instruction: 0000000d
 620:	00000020 			@ <UNDEFINED> instruction: 00000020
 624:	0000048c 			@ <UNDEFINED> instruction: 0000048c
 628:	00000000 			@ <UNDEFINED> instruction: 00000000
 62c:	00000042 			@ <UNDEFINED> instruction: 00000042
 630:	87080e41 			@ <UNDEFINED> instruction: 87080e41
 634:	41018e02 			@ <UNDEFINED> instruction: 41018e02
 638:	0d41100e 			@ <UNDEFINED> instruction: 0d41100e
 63c:	080e5c07 			@ <UNDEFINED> instruction: 080e5c07
 640:	000d0d41 			@ <UNDEFINED> instruction: 000d0d41
 644:	00000020 			@ <UNDEFINED> instruction: 00000020
 648:	0000048c 			@ <UNDEFINED> instruction: 0000048c
 64c:	00000000 			@ <UNDEFINED> instruction: 00000000
 650:	00000016 			@ <UNDEFINED> instruction: 00000016
 654:	87040e41 			@ <UNDEFINED> instruction: 87040e41
 658:	100e4101 			@ <UNDEFINED> instruction: 100e4101
 65c:	45070d41 			@ <UNDEFINED> instruction: 45070d41
 660:	0d41040e 			@ <UNDEFINED> instruction: 0d41040e
 664:	0000000d 			@ <UNDEFINED> instruction: 0000000d
 668:	00000018 			@ <UNDEFINED> instruction: 00000018
 66c:	0000048c 			@ <UNDEFINED> instruction: 0000048c
 670:	00000000 			@ <UNDEFINED> instruction: 00000000
 674:	000000b2 			@ <UNDEFINED> instruction: 000000b2
 678:	87080e41 			@ <UNDEFINED> instruction: 87080e41
 67c:	41018e02 			@ <UNDEFINED> instruction: 41018e02
 680:	0000070d 			@ <UNDEFINED> instruction: 0000070d
 684:	0000002c 			@ <UNDEFINED> instruction: 0000002c
 688:	0000048c 			@ <UNDEFINED> instruction: 0000048c
 68c:	0800059e 			@ <UNDEFINED> instruction: 0800059e
 690:	00000030 			@ <UNDEFINED> instruction: 00000030
 694:	000d0941 			@ <UNDEFINED> instruction: 000d0941
 698:	8d0c0e44 			@ <UNDEFINED> instruction: 8d0c0e44
 69c:	8e028703 			@ <UNDEFINED> instruction: 8e028703
 6a0:	180e4101 			@ <UNDEFINED> instruction: 180e4101
 6a4:	4c070d41 			@ <UNDEFINED> instruction: 4c070d41
 6a8:	0d410c0e 			@ <UNDEFINED> instruction: 0d410c0e
 6ac:	c7ce420d 			@ <UNDEFINED> instruction: c7ce420d
 6b0:	00000ec0 			@ <UNDEFINED> instruction: 00000ec0
 6b4:	0000002c 			@ <UNDEFINED> instruction: 0000002c
 6b8:	0000048c 			@ <UNDEFINED> instruction: 0000048c
 6bc:	080005ce 			@ <UNDEFINED> instruction: 080005ce
 6c0:	00000032 			@ <UNDEFINED> instruction: 00000032
 6c4:	000d0941 			@ <UNDEFINED> instruction: 000d0941
 6c8:	8d0c0e44 			@ <UNDEFINED> instruction: 8d0c0e44
 6cc:	8e028703 			@ <UNDEFINED> instruction: 8e028703
 6d0:	180e4101 			@ <UNDEFINED> instruction: 180e4101
 6d4:	4d070d41 			@ <UNDEFINED> instruction: 4d070d41
 6d8:	0d410c0e 			@ <UNDEFINED> instruction: 0d410c0e
 6dc:	c7ce420d 			@ <UNDEFINED> instruction: c7ce420d
 6e0:	00000ec0 			@ <UNDEFINED> instruction: 00000ec0
 6e4:	0000002c 			@ <UNDEFINED> instruction: 0000002c
 6e8:	0000048c 			@ <UNDEFINED> instruction: 0000048c
 6ec:	08000600 			@ <UNDEFINED> instruction: 08000600
 6f0:	00000032 			@ <UNDEFINED> instruction: 00000032
 6f4:	000d0941 			@ <UNDEFINED> instruction: 000d0941
 6f8:	8d0c0e44 			@ <UNDEFINED> instruction: 8d0c0e44
 6fc:	8e028703 			@ <UNDEFINED> instruction: 8e028703
 700:	180e4101 			@ <UNDEFINED> instruction: 180e4101
 704:	4d070d41 			@ <UNDEFINED> instruction: 4d070d41
 708:	0d410c0e 			@ <UNDEFINED> instruction: 0d410c0e
 70c:	c7ce420d 			@ <UNDEFINED> instruction: c7ce420d
 710:	00000ec0 			@ <UNDEFINED> instruction: 00000ec0
 714:	0000002c 			@ <UNDEFINED> instruction: 0000002c
 718:	0000048c 			@ <UNDEFINED> instruction: 0000048c
 71c:	08000632 			@ <UNDEFINED> instruction: 08000632
 720:	00000032 			@ <UNDEFINED> instruction: 00000032
 724:	000d0941 			@ <UNDEFINED> instruction: 000d0941
 728:	8d0c0e44 			@ <UNDEFINED> instruction: 8d0c0e44
 72c:	8e028703 			@ <UNDEFINED> instruction: 8e028703
 730:	180e4101 			@ <UNDEFINED> instruction: 180e4101
 734:	4d070d41 			@ <UNDEFINED> instruction: 4d070d41
 738:	0d410c0e 			@ <UNDEFINED> instruction: 0d410c0e
 73c:	c7ce420d 			@ <UNDEFINED> instruction: c7ce420d
 740:	00000ec0 			@ <UNDEFINED> instruction: 00000ec0

Disassembly of section .debug_info:

00000000 <.debug_info>:
   0:	00000442 			@ <UNDEFINED> instruction: 00000442
   4:	04010005 			@ <UNDEFINED> instruction: 04010005
   8:	00000000 			@ <UNDEFINED> instruction: 00000000
   c:	0005a40f 			@ <UNDEFINED> instruction: 0005a40f
  10:	07d61d00 			@ <UNDEFINED> instruction: 07d61d00
  14:	18dd0000 			@ <UNDEFINED> instruction: 18dd0000
  18:	000c0000 			@ <UNDEFINED> instruction: 000c0000
	...
  28:	04100000 			@ <UNDEFINED> instruction: 04100000
  2c:	746e6905 			@ <UNDEFINED> instruction: 746e6905
  30:	07040300 			@ <UNDEFINED> instruction: 07040300
  34:	000012f6 	strdeq	r1, [r0], -r6
  38:	7f050803 			@ <UNDEFINED> instruction: 7f050803
  3c:	03000028 	movweq	r0, #40	@ 0x28
  40:	312f0408 			@ <UNDEFINED> instruction: 312f0408
  44:	01030000 			@ <UNDEFINED> instruction: 01030000
  48:	0004c706 			@ <UNDEFINED> instruction: 0004c706
  4c:	0af40200 			@ <UNDEFINED> instruction: 0af40200
  50:	2b020000 			@ <UNDEFINED> instruction: 2b020000
  54:	00005918 			@ <UNDEFINED> instruction: 00005918
  58:	08010300 			@ <UNDEFINED> instruction: 08010300
  5c:	0000086a 			@ <UNDEFINED> instruction: 0000086a
  60:	9a050203 			@ <UNDEFINED> instruction: 9a050203
  64:	03000005 	movweq	r0, #5
  68:	368a0702 			@ <UNDEFINED> instruction: 368a0702
  6c:	04030000 			@ <UNDEFINED> instruction: 04030000
  70:	00385f05 			@ <UNDEFINED> instruction: 00385f05
  74:	20790200 			@ <UNDEFINED> instruction: 20790200
  78:	4f020000 			@ <UNDEFINED> instruction: 4f020000
  7c:	00008119 			@ <UNDEFINED> instruction: 00008119
  80:	07040300 			@ <UNDEFINED> instruction: 07040300
  84:	00000fd3 	ldrdeq	r0, [r0], -r3
  88:	28070803 			@ <UNDEFINED> instruction: 28070803
  8c:	0200003d 			@ <UNDEFINED> instruction: 0200003d
  90:	00000af6 	strdeq	r0, [r0], -r6
  94:	4d131803 			@ <UNDEFINED> instruction: 4d131803
  98:	02000000 			@ <UNDEFINED> instruction: 02000000
  9c:	0000207b 			@ <UNDEFINED> instruction: 0000207b
  a0:	75143003 			@ <UNDEFINED> instruction: 75143003
  a4:	0b000000 			@ <UNDEFINED> instruction: 0b000000
  a8:	0000009b 			@ <UNDEFINED> instruction: 0000009b
  ac:	003e3202 			@ <UNDEFINED> instruction: 003e3202
  b0:	11060400 			@ <UNDEFINED> instruction: 11060400
  b4:	0000008f 			@ <UNDEFINED> instruction: 0000008f
  b8:	16052c08 			@ <UNDEFINED> instruction: 16052c08
  bc:	0000013f 			@ <UNDEFINED> instruction: 0000013f
  c0:	002acc04 			@ <UNDEFINED> instruction: 002acc04
  c4:	17170500 			@ <UNDEFINED> instruction: 17170500
  c8:	000000a7 			@ <UNDEFINED> instruction: 000000a7
  cc:	39aa0400 			@ <UNDEFINED> instruction: 39aa0400
  d0:	18050000 			@ <UNDEFINED> instruction: 18050000
  d4:	0000a717 			@ <UNDEFINED> instruction: 0000a717
  d8:	20040400 			@ <UNDEFINED> instruction: 20040400
  dc:	05000025 			@ <UNDEFINED> instruction: 05000025
  e0:	00a71719 			@ <UNDEFINED> instruction: 00a71719
  e4:	04080000 			@ <UNDEFINED> instruction: 04080000
  e8:	00003dd8 	ldrdeq	r3, [r0], -r8
  ec:	a7171a05 			@ <UNDEFINED> instruction: a7171a05
  f0:	0c000000 			@ <UNDEFINED> instruction: 0c000000
  f4:	52444907 			@ <UNDEFINED> instruction: 52444907
  f8:	a7171b00 			@ <UNDEFINED> instruction: a7171b00
  fc:	10000000 			@ <UNDEFINED> instruction: 10000000
 100:	52444f07 			@ <UNDEFINED> instruction: 52444f07
 104:	a7171c00 			@ <UNDEFINED> instruction: a7171c00
 108:	14000000 			@ <UNDEFINED> instruction: 14000000
 10c:	00402804 			@ <UNDEFINED> instruction: 00402804
 110:	171d0500 			@ <UNDEFINED> instruction: 171d0500
 114:	000000a7 			@ <UNDEFINED> instruction: 000000a7
 118:	23460418 	movtcs	r0, #25624	@ 0x6418
 11c:	1e050000 			@ <UNDEFINED> instruction: 1e050000
 120:	0000a717 			@ <UNDEFINED> instruction: 0000a717
 124:	41071c00 			@ <UNDEFINED> instruction: 41071c00
 128:	1f005246 			@ <UNDEFINED> instruction: 1f005246
 12c:	00014f17 			@ <UNDEFINED> instruction: 00014f17
 130:	42072000 			@ <UNDEFINED> instruction: 42072000
 134:	20005252 			@ <UNDEFINED> instruction: 20005252
 138:	0000a717 			@ <UNDEFINED> instruction: 0000a717
 13c:	11002800 			@ <UNDEFINED> instruction: 11002800
 140:	000000a7 			@ <UNDEFINED> instruction: 000000a7
 144:	0000014f 			@ <UNDEFINED> instruction: 0000014f
 148:	00003112 			@ <UNDEFINED> instruction: 00003112
 14c:	0b000100 			@ <UNDEFINED> instruction: 0b000100
 150:	0000013f 			@ <UNDEFINED> instruction: 0000013f
 154:	00210102 			@ <UNDEFINED> instruction: 00210102
 158:	03210500 			@ <UNDEFINED> instruction: 03210500
 15c:	000000b8 			@ <UNDEFINED> instruction: 000000b8
 160:	00310406 			@ <UNDEFINED> instruction: 00310406
 164:	23050000 	movwcs	r0, #20480	@ 0x5000
 168:	000001ac 			@ <UNDEFINED> instruction: 000001ac
 16c:	001e2a05 			@ <UNDEFINED> instruction: 001e2a05
 170:	00000000 			@ <UNDEFINED> instruction: 00000000
 174:	1e300548 			@ <UNDEFINED> instruction: 1e300548
 178:	04000000 			@ <UNDEFINED> instruction: 04000000
 17c:	97054800 			@ <UNDEFINED> instruction: 97054800
 180:	00000007 			@ <UNDEFINED> instruction: 00000007
 184:	05480008 			@ <UNDEFINED> instruction: 05480008
 188:	00001e4a 			@ <UNDEFINED> instruction: 00001e4a
 18c:	48000c00 			@ <UNDEFINED> instruction: 48000c00
 190:	00386805 			@ <UNDEFINED> instruction: 00386805
 194:	00100000 			@ <UNDEFINED> instruction: 00100000
 198:	386e0548 			@ <UNDEFINED> instruction: 386e0548
 19c:	14000000 			@ <UNDEFINED> instruction: 14000000
 1a0:	79054800 			@ <UNDEFINED> instruction: 79054800
 1a4:	0000001e 			@ <UNDEFINED> instruction: 0000001e
 1a8:	00480018 			@ <UNDEFINED> instruction: 00480018
 1ac:	00590106 			@ <UNDEFINED> instruction: 00590106
 1b0:	2d050000 			@ <UNDEFINED> instruction: 2d050000
 1b4:	00000219 			@ <UNDEFINED> instruction: 00000219
 1b8:	0044cf01 			@ <UNDEFINED> instruction: 0044cf01
 1bc:	d5010000 			@ <UNDEFINED> instruction: d5010000
 1c0:	01000044 			@ <UNDEFINED> instruction: 01000044
 1c4:	00434901 			@ <UNDEFINED> instruction: 00434901
 1c8:	e6010200 			@ <UNDEFINED> instruction: e6010200
 1cc:	03000044 	movweq	r0, #68	@ 0x44
 1d0:	0044ec01 			@ <UNDEFINED> instruction: 0044ec01
 1d4:	f2010400 	vshl.s8	d0, d0, d1
 1d8:	05000044 			@ <UNDEFINED> instruction: 05000044
 1dc:	0044f801 			@ <UNDEFINED> instruction: 0044f801
 1e0:	b5010600 			@ <UNDEFINED> instruction: b5010600
 1e4:	07000043 			@ <UNDEFINED> instruction: 07000043
 1e8:	00452001 			@ <UNDEFINED> instruction: 00452001
 1ec:	26010800 			@ <UNDEFINED> instruction: 26010800
 1f0:	09000045 			@ <UNDEFINED> instruction: 09000045
 1f4:	00428301 			@ <UNDEFINED> instruction: 00428301
 1f8:	90010a00 			@ <UNDEFINED> instruction: 90010a00
 1fc:	0b000007 			@ <UNDEFINED> instruction: 0b000007
 200:	0042b801 			@ <UNDEFINED> instruction: 0042b801
 204:	bf010c00 			@ <UNDEFINED> instruction: bf010c00
 208:	0d000042 			@ <UNDEFINED> instruction: 0d000042
 20c:	0042c601 			@ <UNDEFINED> instruction: 0042c601
 210:	cd010e00 			@ <UNDEFINED> instruction: cd010e00
 214:	0f000042 			@ <UNDEFINED> instruction: 0f000042
 218:	3bff0200 			@ <UNDEFINED> instruction: 3bff0200
 21c:	3e050000 			@ <UNDEFINED> instruction: 3e050000
 220:	0001ac03 			@ <UNDEFINED> instruction: 0001ac03
 224:	59010600 			@ <UNDEFINED> instruction: 59010600
 228:	05000000 			@ <UNDEFINED> instruction: 05000000
 22c:	00024a40 			@ <UNDEFINED> instruction: 00024a40
 230:	2ef90100 			@ <UNDEFINED> instruction: 2ef90100
 234:	01000000 			@ <UNDEFINED> instruction: 01000000
 238:	00002ef2 	strdeq	r2, [r0], -r2	@ <UNPREDICTABLE>
 23c:	2d450101 			@ <UNDEFINED> instruction: 2d450101
 240:	01020000 			@ <UNDEFINED> instruction: 01020000
 244:	00003fdf 	ldrdeq	r3, [r0], -pc	@ <UNPREDICTABLE>
 248:	dc020003 			@ <UNDEFINED> instruction: dc020003
 24c:	05000014 			@ <UNDEFINED> instruction: 05000014
 250:	02250345 			@ <UNDEFINED> instruction: 02250345
 254:	01060000 			@ <UNDEFINED> instruction: 01060000
 258:	00000059 			@ <UNDEFINED> instruction: 00000059
 25c:	026f4705 			@ <UNDEFINED> instruction: 026f4705
 260:	08010000 			@ <UNDEFINED> instruction: 08010000
 264:	00000014 			@ <UNDEFINED> instruction: 00000014
 268:	00392001 			@ <UNDEFINED> instruction: 00392001
 26c:	02000100 			@ <UNDEFINED> instruction: 02000100
 270:	000019ed 			@ <UNDEFINED> instruction: 000019ed
 274:	56034a05 			@ <UNDEFINED> instruction: 56034a05
 278:	06000002 			@ <UNDEFINED> instruction: 06000002
 27c:	00005901 			@ <UNDEFINED> instruction: 00005901
 280:	9a4c0500 			@ <UNDEFINED> instruction: 9a4c0500
 284:	01000002 			@ <UNDEFINED> instruction: 01000002
 288:	00001a68 			@ <UNDEFINED> instruction: 00001a68
 28c:	36af0100 			@ <UNDEFINED> instruction: 36af0100
 290:	01010000 			@ <UNDEFINED> instruction: 01010000
 294:	00003ae5 			@ <UNDEFINED> instruction: 00003ae5
 298:	87020002 			@ <UNDEFINED> instruction: 87020002
 29c:	05000012 			@ <UNDEFINED> instruction: 05000012
 2a0:	027b0350 			@ <UNDEFINED> instruction: 027b0350
 2a4:	0c080000 			@ <UNDEFINED> instruction: 0c080000
 2a8:	02fc5705 			@ <UNDEFINED> instruction: 02fc5705
 2ac:	6e040000 			@ <UNDEFINED> instruction: 6e040000
 2b0:	0500003d 			@ <UNDEFINED> instruction: 0500003d
 2b4:	02fc1558 			@ <UNDEFINED> instruction: 02fc1558
 2b8:	07000000 			@ <UNDEFINED> instruction: 07000000
 2bc:	006e6970 			@ <UNDEFINED> instruction: 006e6970
 2c0:	02190e59 			@ <UNDEFINED> instruction: 02190e59
 2c4:	04040000 			@ <UNDEFINED> instruction: 04040000
 2c8:	00003dfe 	strdeq	r3, [r0], -lr
 2cc:	4a0d5a05 			@ <UNDEFINED> instruction: 4a0d5a05
 2d0:	05000002 			@ <UNDEFINED> instruction: 05000002
 2d4:	001a4e04 			@ <UNDEFINED> instruction: 001a4e04
 2d8:	135b0500 			@ <UNDEFINED> instruction: 135b0500
 2dc:	0000026f 			@ <UNDEFINED> instruction: 0000026f
 2e0:	3db90406 			@ <UNDEFINED> instruction: 3db90406
 2e4:	5c050000 			@ <UNDEFINED> instruction: 5c050000
 2e8:	00029a14 			@ <UNDEFINED> instruction: 00029a14
 2ec:	f9040700 			@ <UNDEFINED> instruction: f9040700
 2f0:	05000046 			@ <UNDEFINED> instruction: 05000046
 2f4:	00ac0d5d 			@ <UNDEFINED> instruction: 00ac0d5d
 2f8:	00080000 			@ <UNDEFINED> instruction: 00080000
 2fc:	01540413 			@ <UNDEFINED> instruction: 01540413
 300:	4a020000 			@ <UNDEFINED> instruction: 4a020000
 304:	05000025 			@ <UNDEFINED> instruction: 05000025
 308:	02a6035e 			@ <UNDEFINED> instruction: 02a6035e
 30c:	0c080000 			@ <UNDEFINED> instruction: 0c080000
 310:	03240b06 			@ <UNDEFINED> instruction: 03240b06
 314:	44040000 			@ <UNDEFINED> instruction: 44040000
 318:	06000002 			@ <UNDEFINED> instruction: 06000002
 31c:	03020a0c 	movweq	r0, #10764	@ 0x2a0c
 320:	00000000 			@ <UNDEFINED> instruction: 00000000
 324:	001a0b02 			@ <UNDEFINED> instruction: 001a0b02
 328:	030d0600 	movweq	r0, #54784	@ 0xd600
 32c:	0000030e 			@ <UNDEFINED> instruction: 0000030e
 330:	00477102 			@ <UNDEFINED> instruction: 00477102
 334:	121a0700 			@ <UNDEFINED> instruction: 121a0700
 338:	0000009b 			@ <UNDEFINED> instruction: 0000009b
 33c:	00670206 			@ <UNDEFINED> instruction: 00670206
 340:	1e070000 			@ <UNDEFINED> instruction: 1e070000
 344:	00000356 			@ <UNDEFINED> instruction: 00000356
 348:	00269801 			@ <UNDEFINED> instruction: 00269801
 34c:	d9140100 			@ <UNDEFINED> instruction: d9140100
 350:	e8000006 			@ <UNDEFINED> instruction: e8000006
 354:	59020003 			@ <UNDEFINED> instruction: 59020003
 358:	07000032 	smladxeq	r0, r2, r0, r0
 35c:	033c0321 			@ <UNDEFINED> instruction: 033c0321
 360:	01030000 			@ <UNDEFINED> instruction: 01030000
 364:	0004ce08 			@ <UNDEFINED> instruction: 0004ce08
 368:	02010300 			@ <UNDEFINED> instruction: 02010300
 36c:	000014e4 			@ <UNDEFINED> instruction: 000014e4
 370:	0038260c 			@ <UNDEFINED> instruction: 0038260c
 374:	002a4300 			@ <UNDEFINED> instruction: 002a4300
 378:	03050000 	movweq	r0, #20480	@ 0x5000
 37c:	20000004 			@ <UNDEFINED> instruction: 20000004
 380:	003f170c 			@ <UNDEFINED> instruction: 003f170c
 384:	002a4400 			@ <UNDEFINED> instruction: 002a4400
 388:	03050000 	movweq	r0, #20480	@ 0x5000
 38c:	00000000 			@ <UNDEFINED> instruction: 00000000
 390:	00476b0d 			@ <UNDEFINED> instruction: 00476b0d
 394:	a63e0700 			@ <UNDEFINED> instruction: a63e0700
 398:	09000003 			@ <UNDEFINED> instruction: 09000003
 39c:	00000330 			@ <UNDEFINED> instruction: 00000330
 3a0:	00035609 			@ <UNDEFINED> instruction: 00035609
 3a4:	430d0000 	movwmi	r0, #53248	@ 0xd000
 3a8:	0600001a 			@ <UNDEFINED> instruction: 0600001a
 3ac:	0003b715 			@ <UNDEFINED> instruction: 0003b715
 3b0:	03240900 			@ <UNDEFINED> instruction: 03240900
 3b4:	15000000 			@ <UNDEFINED> instruction: 15000000
 3b8:	00000f13 			@ <UNDEFINED> instruction: 00000f13
 3bc:	2a054601 			@ <UNDEFINED> instruction: 2a054601
 3c0:	38000000 			@ <UNDEFINED> instruction: 38000000
 3c4:	34080003 			@ <UNDEFINED> instruction: 34080003
 3c8:	01000000 			@ <UNDEFINED> instruction: 01000000
 3cc:	0003ff9c 			@ <UNDEFINED> instruction: 0003ff9c
 3d0:	05610a00 			@ <UNDEFINED> instruction: 05610a00
 3d4:	09470000 			@ <UNDEFINED> instruction: 09470000
 3d8:	0000002a 			@ <UNDEFINED> instruction: 0000002a
 3dc:	0a749102 			@ <UNDEFINED> instruction: 0a749102
 3e0:	000016c9 			@ <UNDEFINED> instruction: 000016c9
 3e4:	002a1048 			@ <UNDEFINED> instruction: 002a1048
 3e8:	03050000 	movweq	r0, #20480	@ 0x5000
 3ec:	20000008 			@ <UNDEFINED> instruction: 20000008
 3f0:	00055d0a 			@ <UNDEFINED> instruction: 00055d0a
 3f4:	2a094900 			@ <UNDEFINED> instruction: 2a094900
 3f8:	02000000 			@ <UNDEFINED> instruction: 02000000
 3fc:	16007091 			@ <UNDEFINED> instruction: 16007091
 400:	00002952 			@ <UNDEFINED> instruction: 00002952
 404:	00062901 			@ <UNDEFINED> instruction: 00062901
 408:	40000000 			@ <UNDEFINED> instruction: 40000000
 40c:	01000000 			@ <UNDEFINED> instruction: 01000000
 410:	0004239c 			@ <UNDEFINED> instruction: 0004239c
 414:	24d60e00 			@ <UNDEFINED> instruction: 24d60e00
 418:	23290000 			@ <UNDEFINED> instruction: 23290000
 41c:	02000004 			@ <UNDEFINED> instruction: 02000004
 420:	17005c91 			@ <UNDEFINED> instruction: 17005c91
 424:	294a1804 			@ <UNDEFINED> instruction: 294a1804
 428:	1f010000 			@ <UNDEFINED> instruction: 1f010000
 42c:	00000006 			@ <UNDEFINED> instruction: 00000006
 430:	00004000 			@ <UNDEFINED> instruction: 00004000
 434:	0e9c0100 			@ <UNDEFINED> instruction: 0e9c0100
 438:	000024d6 	ldrdeq	r2, [r0], -r6
 43c:	0004231f 			@ <UNDEFINED> instruction: 0004231f
 440:	5c910200 			@ <UNDEFINED> instruction: 5c910200
 444:	051a0000 			@ <UNDEFINED> instruction: 051a0000
 448:	00050000 			@ <UNDEFINED> instruction: 00050000
 44c:	016f0401 			@ <UNDEFINED> instruction: 016f0401
 450:	a4150000 			@ <UNDEFINED> instruction: a4150000
 454:	1d000005 			@ <UNDEFINED> instruction: 1d000005
 458:	00004e6a 			@ <UNDEFINED> instruction: 00004e6a
 45c:	000018dd 	ldrdeq	r1, [r0], -sp
 460:	0000002b 			@ <UNDEFINED> instruction: 0000002b
 464:	00000000 			@ <UNDEFINED> instruction: 00000000
 468:	000003e0 			@ <UNDEFINED> instruction: 000003e0
 46c:	000012df 	ldrdeq	r1, [r0], -pc	@ <UNPREDICTABLE>
 470:	c7060102 			@ <UNDEFINED> instruction: c7060102
 474:	02000004 			@ <UNDEFINED> instruction: 02000004
 478:	086a0801 			@ <UNDEFINED> instruction: 086a0801
 47c:	02020000 			@ <UNDEFINED> instruction: 02020000
 480:	00059a05 			@ <UNDEFINED> instruction: 00059a05
 484:	4c120100 			@ <UNDEFINED> instruction: 4c120100
 488:	39020000 			@ <UNDEFINED> instruction: 39020000
 48c:	00004b19 			@ <UNDEFINED> instruction: 00004b19
 490:	07020200 			@ <UNDEFINED> instruction: 07020200
 494:	0000368a 			@ <UNDEFINED> instruction: 0000368a
 498:	5f050402 			@ <UNDEFINED> instruction: 5f050402
 49c:	01000038 			@ <UNDEFINED> instruction: 01000038
 4a0:	00002079 			@ <UNDEFINED> instruction: 00002079
 4a4:	65194f02 			@ <UNDEFINED> instruction: 65194f02
 4a8:	02000000 			@ <UNDEFINED> instruction: 02000000
 4ac:	0fd30704 			@ <UNDEFINED> instruction: 0fd30704
 4b0:	08020000 			@ <UNDEFINED> instruction: 08020000
 4b4:	00287f05 			@ <UNDEFINED> instruction: 00287f05
 4b8:	07080200 			@ <UNDEFINED> instruction: 07080200
 4bc:	00003d28 			@ <UNDEFINED> instruction: 00003d28
 4c0:	69050416 			@ <UNDEFINED> instruction: 69050416
 4c4:	0100746e 			@ <UNDEFINED> instruction: 0100746e
 4c8:	00004e48 			@ <UNDEFINED> instruction: 00004e48
 4cc:	8d1ae802 			@ <UNDEFINED> instruction: 8d1ae802
 4d0:	02000000 			@ <UNDEFINED> instruction: 02000000
 4d4:	12f60704 			@ <UNDEFINED> instruction: 12f60704
 4d8:	14010000 			@ <UNDEFINED> instruction: 14010000
 4dc:	0300004c 	movweq	r0, #76	@ 0x4c
 4e0:	003f1424 			@ <UNDEFINED> instruction: 003f1424
 4e4:	7b010000 			@ <UNDEFINED> instruction: 7b010000
 4e8:	03000020 	movweq	r0, #32
 4ec:	00591430 			@ <UNDEFINED> instruction: 00591430
 4f0:	a00f0000 			@ <UNDEFINED> instruction: a00f0000
 4f4:	01000000 			@ <UNDEFINED> instruction: 01000000
 4f8:	00004e4a 			@ <UNDEFINED> instruction: 00004e4a
 4fc:	81155203 			@ <UNDEFINED> instruction: 81155203
 500:	02000000 			@ <UNDEFINED> instruction: 02000000
 504:	312f0408 			@ <UNDEFINED> instruction: 312f0408
 508:	71010000 			@ <UNDEFINED> instruction: 71010000
 50c:	04000047 			@ <UNDEFINED> instruction: 04000047
 510:	00a0121a 			@ <UNDEFINED> instruction: 00a0121a
 514:	5b010000 			@ <UNDEFINED> instruction: 5b010000
 518:	04000051 			@ <UNDEFINED> instruction: 04000051
 51c:	00a0121c 			@ <UNDEFINED> instruction: 00a0121c
 520:	0d010000 			@ <UNDEFINED> instruction: 0d010000
 524:	0400004c 			@ <UNDEFINED> instruction: 0400004c
 528:	00a0121d 			@ <UNDEFINED> instruction: 00a0121d
 52c:	02100000 			@ <UNDEFINED> instruction: 02100000
 530:	0000004b 			@ <UNDEFINED> instruction: 0000004b
 534:	0001011e 			@ <UNDEFINED> instruction: 0001011e
 538:	26980700 			@ <UNDEFINED> instruction: 26980700
 53c:	17010000 			@ <UNDEFINED> instruction: 17010000
 540:	000006d9 	ldrdeq	r0, [r0], -r9
 544:	010003e8 	smlatteq	r0, r8, r3, r0
 548:	00003259 			@ <UNDEFINED> instruction: 00003259
 54c:	e8032104 			@ <UNDEFINED> instruction: e8032104
 550:	10000000 			@ <UNDEFINED> instruction: 10000000
 554:	00003101 			@ <UNDEFINED> instruction: 00003101
 558:	01312200 			@ <UNDEFINED> instruction: 01312200
 55c:	9d070000 			@ <UNDEFINED> instruction: 9d070000
 560:	0000004e 			@ <UNDEFINED> instruction: 0000004e
 564:	00506707 			@ <UNDEFINED> instruction: 00506707
 568:	55070100 			@ <UNDEFINED> instruction: 55070100
 56c:	0200004b 			@ <UNDEFINED> instruction: 0200004b
 570:	00500a07 			@ <UNDEFINED> instruction: 00500a07
 574:	01000300 			@ <UNDEFINED> instruction: 01000300
 578:	00004b1c 			@ <UNDEFINED> instruction: 00004b1c
 57c:	0d032704 			@ <UNDEFINED> instruction: 0d032704
 580:	18000001 			@ <UNDEFINED> instruction: 18000001
 584:	00004c85 			@ <UNDEFINED> instruction: 00004c85
 588:	10290414 			@ <UNDEFINED> instruction: 10290414
 58c:	00000187 			@ <UNDEFINED> instruction: 00000187
 590:	004b9c08 			@ <UNDEFINED> instruction: 004b9c08
 594:	870f2a00 			@ <UNDEFINED> instruction: 870f2a00
 598:	00000001 			@ <UNDEFINED> instruction: 00000001
 59c:	004e9408 			@ <UNDEFINED> instruction: 004e9408
 5a0:	a00e2b00 			@ <UNDEFINED> instruction: a00e2b00
 5a4:	04000000 			@ <UNDEFINED> instruction: 04000000
 5a8:	004aee08 			@ <UNDEFINED> instruction: 004aee08
 5ac:	310f2c00 			@ <UNDEFINED> instruction: 310f2c00
 5b0:	08000001 			@ <UNDEFINED> instruction: 08000001
 5b4:	004c0a08 			@ <UNDEFINED> instruction: 004c0a08
 5b8:	dc0a2d00 			@ <UNDEFINED> instruction: dc0a2d00
 5bc:	0c000000 			@ <UNDEFINED> instruction: 0c000000
 5c0:	00503e08 			@ <UNDEFINED> instruction: 00503e08
 5c4:	8c112e00 			@ <UNDEFINED> instruction: 8c112e00
 5c8:	10000001 			@ <UNDEFINED> instruction: 10000001
 5cc:	00a00900 			@ <UNDEFINED> instruction: 00a00900
 5d0:	98090000 			@ <UNDEFINED> instruction: 98090000
 5d4:	02000001 			@ <UNDEFINED> instruction: 02000001
 5d8:	04ce0801 			@ <UNDEFINED> instruction: 04ce0801
 5dc:	910f0000 			@ <UNDEFINED> instruction: 910f0000
 5e0:	01000001 			@ <UNDEFINED> instruction: 01000001
 5e4:	00004c85 			@ <UNDEFINED> instruction: 00004c85
 5e8:	3d032f04 			@ <UNDEFINED> instruction: 3d032f04
 5ec:	03000001 	movweq	r0, #1
 5f0:	00004e2f 			@ <UNDEFINED> instruction: 00004e2f
 5f4:	00dc0d10 			@ <UNDEFINED> instruction: 00dc0d10
 5f8:	03050000 	movweq	r0, #20480	@ 0x5000
 5fc:	200001c0 			@ <UNDEFINED> instruction: 200001c0
 600:	00019d11 			@ <UNDEFINED> instruction: 00019d11
 604:	0001ca00 			@ <UNDEFINED> instruction: 0001ca00
 608:	008d0b00 			@ <UNDEFINED> instruction: 008d0b00
 60c:	00030000 			@ <UNDEFINED> instruction: 00030000
 610:	004f1e03 			@ <UNDEFINED> instruction: 004f1e03
 614:	ba191100 			@ <UNDEFINED> instruction: ba191100
 618:	05000001 			@ <UNDEFINED> instruction: 05000001
 61c:	0001c403 			@ <UNDEFINED> instruction: 0001c403
 620:	50140320 			@ <UNDEFINED> instruction: 50140320
 624:	12120000 			@ <UNDEFINED> instruction: 12120000
 628:	000000d0 	ldrdeq	r0, [r0], -r0	@ <UNPREDICTABLE>
 62c:	02140305 			@ <UNDEFINED> instruction: 02140305
 630:	ec032000 			@ <UNDEFINED> instruction: ec032000
 634:	1300004c 	movwne	r0, #76	@ 0x4c
 638:	0001fd1a 			@ <UNDEFINED> instruction: 0001fd1a
 63c:	18030500 			@ <UNDEFINED> instruction: 18030500
 640:	09200002 			@ <UNDEFINED> instruction: 09200002
 644:	0000019d 			@ <UNDEFINED> instruction: 0000019d
 648:	00508203 			@ <UNDEFINED> instruction: 00508203
 64c:	a0111400 			@ <UNDEFINED> instruction: a0111400
 650:	05000000 			@ <UNDEFINED> instruction: 05000000
 654:	00021c03 			@ <UNDEFINED> instruction: 00021c03
 658:	00a01120 			@ <UNDEFINED> instruction: 00a01120
 65c:	02290000 			@ <UNDEFINED> instruction: 02290000
 660:	8d0b0000 			@ <UNDEFINED> instruction: 8d0b0000
 664:	03000000 	movweq	r0, #0
 668:	00008d0b 			@ <UNDEFINED> instruction: 00008d0b
 66c:	0300ff00 	movweq	pc, #3840	@ 0xf00	@ <UNPREDICTABLE>
 670:	0000505a 			@ <UNDEFINED> instruction: 0000505a
 674:	02131116 			@ <UNDEFINED> instruction: 02131116
 678:	03050000 	movweq	r0, #20480	@ 0x5000
 67c:	00000000 			@ <UNDEFINED> instruction: 00000000
 680:	004b4112 			@ <UNDEFINED> instruction: 004b4112
 684:	0500fa00 			@ <UNDEFINED> instruction: 0500fa00
 688:	002a0800 			@ <UNDEFINED> instruction: 002a0800
 68c:	9c010000 			@ <UNDEFINED> instruction: 9c010000
 690:	004e3b0c 			@ <UNDEFINED> instruction: 004e3b0c
 694:	0026dc00 			@ <UNDEFINED> instruction: 0026dc00
 698:	a0000000 			@ <UNDEFINED> instruction: a0000000
 69c:	01000000 			@ <UNDEFINED> instruction: 01000000
 6a0:	0002829c 			@ <UNDEFINED> instruction: 0002829c
 6a4:	4aa41900 			@ <UNDEFINED> instruction: 4aa41900
 6a8:	f0010000 			@ <UNDEFINED> instruction: f0010000
 6ac:	0000ac14 			@ <UNDEFINED> instruction: 0000ac14
 6b0:	00000c00 			@ <UNDEFINED> instruction: 00000c00
 6b4:	00000d00 			@ <UNDEFINED> instruction: 00000d00
 6b8:	04fb0000 			@ <UNDEFINED> instruction: 04fb0000
 6bc:	00130000 			@ <UNDEFINED> instruction: 00130000
 6c0:	bb000000 			@ <UNDEFINED> instruction: bb000000
 6c4:	00000004 			@ <UNDEFINED> instruction: 00000004
 6c8:	004ad60a 			@ <UNDEFINED> instruction: 004ad60a
 6cc:	0000d400 			@ <UNDEFINED> instruction: 0000d400
 6d0:	00480000 			@ <UNDEFINED> instruction: 00480000
 6d4:	9c010000 			@ <UNDEFINED> instruction: 9c010000
 6d8:	000002a5 			@ <UNDEFINED> instruction: 000002a5
 6dc:	004cfa04 			@ <UNDEFINED> instruction: 004cfa04
 6e0:	d01bd400 			@ <UNDEFINED> instruction: d01bd400
 6e4:	02000000 			@ <UNDEFINED> instruction: 02000000
 6e8:	0a007491 			@ <UNDEFINED> instruction: 0a007491
 6ec:	00004c6d 			@ <UNDEFINED> instruction: 00004c6d
 6f0:	000000c9 			@ <UNDEFINED> instruction: 000000c9
 6f4:	00004000 			@ <UNDEFINED> instruction: 00004000
 6f8:	c89c0100 			@ <UNDEFINED> instruction: c89c0100
 6fc:	04000002 			@ <UNDEFINED> instruction: 04000002
 700:	00004b0e 			@ <UNDEFINED> instruction: 00004b0e
 704:	00c41ac9 			@ <UNDEFINED> instruction: 00c41ac9
 708:	91020000 			@ <UNDEFINED> instruction: 91020000
 70c:	6b0a0074 			@ <UNDEFINED> instruction: 6b0a0074
 710:	c4000047 			@ <UNDEFINED> instruction: c4000047
 714:	00000000 			@ <UNDEFINED> instruction: 00000000
 718:	00000022 			@ <UNDEFINED> instruction: 00000022
 71c:	02f99c01 			@ <UNDEFINED> instruction: 02f99c01
 720:	24040000 			@ <UNDEFINED> instruction: 24040000
 724:	c400004e 			@ <UNDEFINED> instruction: c400004e
 728:	0000c418 			@ <UNDEFINED> instruction: 0000c418
 72c:	74910200 			@ <UNDEFINED> instruction: 74910200
 730:	004b5004 			@ <UNDEFINED> instruction: 004b5004
 734:	0132c400 			@ <UNDEFINED> instruction: 0132c400
 738:	02000001 			@ <UNDEFINED> instruction: 02000001
 73c:	1a007291 			@ <UNDEFINED> instruction: 1a007291
 740:	00005151 			@ <UNDEFINED> instruction: 00005151
 744:	d00bbf01 			@ <UNDEFINED> instruction: d00bbf01
 748:	00000000 			@ <UNDEFINED> instruction: 00000000
 74c:	14000000 			@ <UNDEFINED> instruction: 14000000
 750:	01000000 			@ <UNDEFINED> instruction: 01000000
 754:	4b14149c 			@ <UNDEFINED> instruction: 4b14149c
 758:	06b40000 			@ <UNDEFINED> instruction: 06b40000
 75c:	00000000 			@ <UNDEFINED> instruction: 00000000
 760:	00000020 			@ <UNDEFINED> instruction: 00000020
 764:	8b0a9c01 			@ <UNDEFINED> instruction: 8b0a9c01
 768:	8900004a 			@ <UNDEFINED> instruction: 8900004a
 76c:	080003f4 			@ <UNDEFINED> instruction: 080003f4
 770:	0000010c 			@ <UNDEFINED> instruction: 0000010c
 774:	037b9c01 			@ <UNDEFINED> instruction: 037b9c01
 778:	0a050000 			@ <UNDEFINED> instruction: 0a050000
 77c:	d8080004 			@ <UNDEFINED> instruction: d8080004
 780:	03000000 	movweq	r0, #0
 784:	00004b6f 			@ <UNDEFINED> instruction: 00004b6f
 788:	00a01291 			@ <UNDEFINED> instruction: 00a01291
 78c:	91020000 			@ <UNDEFINED> instruction: 91020000
 790:	040e0574 			@ <UNDEFINED> instruction: 040e0574
 794:	00be0800 			@ <UNDEFINED> instruction: 00be0800
 798:	690e0000 			@ <UNDEFINED> instruction: 690e0000
 79c:	a0179300 			@ <UNDEFINED> instruction: a0179300
 7a0:	02000000 			@ <UNDEFINED> instruction: 02000000
 7a4:	14057091 			@ <UNDEFINED> instruction: 14057091
 7a8:	a8080004 			@ <UNDEFINED> instruction: a8080004
 7ac:	03000000 	movweq	r0, #0
 7b0:	0000514c 			@ <UNDEFINED> instruction: 0000514c
 7b4:	00a01694 			@ <UNDEFINED> instruction: 00a01694
 7b8:	91020000 			@ <UNDEFINED> instruction: 91020000
 7bc:	0000006c 			@ <UNDEFINED> instruction: 0000006c
 7c0:	50ac0c00 			@ <UNDEFINED> instruction: 50ac0c00
 7c4:	06590000 			@ <UNDEFINED> instruction: 06590000
 7c8:	00000000 			@ <UNDEFINED> instruction: 00000000
 7cc:	00000180 			@ <UNDEFINED> instruction: 00000180
 7d0:	04379c01 			@ <UNDEFINED> instruction: 04379c01
 7d4:	e1040000 			@ <UNDEFINED> instruction: e1040000
 7d8:	5900004a 			@ <UNDEFINED> instruction: 5900004a
 7dc:	00044418 			@ <UNDEFINED> instruction: 00044418
 7e0:	5c910200 			@ <UNDEFINED> instruction: 5c910200
 7e4:	00503e04 			@ <UNDEFINED> instruction: 00503e04
 7e8:	8c3b5900 			@ <UNDEFINED> instruction: 8c3b5900
 7ec:	02000001 			@ <UNDEFINED> instruction: 02000001
 7f0:	7a045891 			@ <UNDEFINED> instruction: 7a045891
 7f4:	5900004d 			@ <UNDEFINED> instruction: 5900004d
 7f8:	0000944a 			@ <UNDEFINED> instruction: 0000944a
 7fc:	56910200 			@ <UNDEFINED> instruction: 56910200
 800:	004acb04 			@ <UNDEFINED> instruction: 004acb04
 804:	425b5900 			@ <UNDEFINED> instruction: 425b5900
 808:	02000004 			@ <UNDEFINED> instruction: 02000004
 80c:	94045091 			@ <UNDEFINED> instruction: 94045091
 810:	5900004e 			@ <UNDEFINED> instruction: 5900004e
 814:	0000a070 			@ <UNDEFINED> instruction: 0000a070
 818:	00910200 			@ <UNDEFINED> instruction: 00910200
 81c:	00000005 			@ <UNDEFINED> instruction: 00000005
 820:	00015600 			@ <UNDEFINED> instruction: 00015600
 824:	00690e00 			@ <UNDEFINED> instruction: 00690e00
 828:	00a0135e 			@ <UNDEFINED> instruction: 00a0135e
 82c:	91020000 			@ <UNDEFINED> instruction: 91020000
 830:	00000574 			@ <UNDEFINED> instruction: 00000574
 834:	012a0000 			@ <UNDEFINED> instruction: 012a0000
 838:	e6030000 			@ <UNDEFINED> instruction: e6030000
 83c:	6000004c 			@ <UNDEFINED> instruction: 6000004c
 840:	0000a016 			@ <UNDEFINED> instruction: 0000a016
 844:	70910200 			@ <UNDEFINED> instruction: 70910200
 848:	004aab03 			@ <UNDEFINED> instruction: 004aab03
 84c:	87176800 			@ <UNDEFINED> instruction: 87176800
 850:	02000001 			@ <UNDEFINED> instruction: 02000001
 854:	7e036491 			@ <UNDEFINED> instruction: 7e036491
 858:	6900004b 			@ <UNDEFINED> instruction: 6900004b
 85c:	00018717 			@ <UNDEFINED> instruction: 00018717
 860:	6c910200 			@ <UNDEFINED> instruction: 6c910200
 864:	00000005 			@ <UNDEFINED> instruction: 00000005
 868:	00001e00 			@ <UNDEFINED> instruction: 00001e00
 86c:	006a0e00 			@ <UNDEFINED> instruction: 006a0e00
 870:	007a1677 			@ <UNDEFINED> instruction: 007a1677
 874:	91020000 			@ <UNDEFINED> instruction: 91020000
 878:	00000068 			@ <UNDEFINED> instruction: 00000068
 87c:	04421b00 			@ <UNDEFINED> instruction: 04421b00
 880:	421c0000 			@ <UNDEFINED> instruction: 421c0000
 884:	00000004 			@ <UNDEFINED> instruction: 00000004
 888:	3709041d 	smladcc	r9, sp, r4, r0
 88c:	14000004 			@ <UNDEFINED> instruction: 14000004
 890:	00004b5f 			@ <UNDEFINED> instruction: 00004b5f
 894:	03d42152 			@ <UNDEFINED> instruction: 03d42152
 898:	00200800 			@ <UNDEFINED> instruction: 00200800
 89c:	9c010000 			@ <UNDEFINED> instruction: 9c010000
 8a0:	00512912 			@ <UNDEFINED> instruction: 00512912
 8a4:	03b04200 			@ <UNDEFINED> instruction: 03b04200
 8a8:	00200800 			@ <UNDEFINED> instruction: 00200800
 8ac:	9c010000 			@ <UNDEFINED> instruction: 9c010000
 8b0:	004b3b0c 			@ <UNDEFINED> instruction: 004b3b0c
 8b4:	00263a00 			@ <UNDEFINED> instruction: 00263a00
 8b8:	12000000 			@ <UNDEFINED> instruction: 12000000
 8bc:	01000000 			@ <UNDEFINED> instruction: 01000000
 8c0:	00049b9c 			@ <UNDEFINED> instruction: 00049b9c
 8c4:	00000d00 			@ <UNDEFINED> instruction: 00000d00
 8c8:	04ab0000 			@ <UNDEFINED> instruction: 04ab0000
 8cc:	000d0000 			@ <UNDEFINED> instruction: 000d0000
 8d0:	eb000000 			@ <UNDEFINED> instruction: eb000000
 8d4:	13000004 	movwne	r0, #4
 8d8:	00000000 			@ <UNDEFINED> instruction: 00000000
 8dc:	000004db 	ldrdeq	r0, [r0], -fp
 8e0:	51050600 			@ <UNDEFINED> instruction: 51050600
 8e4:	a0350000 			@ <UNDEFINED> instruction: a0350000
 8e8:	0e080003 			@ <UNDEFINED> instruction: 0e080003
 8ec:	01000000 			@ <UNDEFINED> instruction: 01000000
 8f0:	4fe4069c 			@ <UNDEFINED> instruction: 4fe4069c
 8f4:	88300000 			@ <UNDEFINED> instruction: 88300000
 8f8:	18080003 			@ <UNDEFINED> instruction: 18080003
 8fc:	01000000 			@ <UNDEFINED> instruction: 01000000
 900:	5074069c 			@ <UNDEFINED> instruction: 0x5074069c
 904:	002b0000 			@ <UNDEFINED> instruction: 002b0000
 908:	0e000000 			@ <UNDEFINED> instruction: 0e000000
 90c:	01000000 			@ <UNDEFINED> instruction: 01000000
 910:	4bf9069c 			@ <UNDEFINED> instruction: 4bf9069c
 914:	6c260000 			@ <UNDEFINED> instruction: 6c260000
 918:	1c080003 			@ <UNDEFINED> instruction: 1c080003
 91c:	01000000 			@ <UNDEFINED> instruction: 01000000
 920:	4e1e069c 			@ <UNDEFINED> instruction: 4e1e069c
 924:	00210000 			@ <UNDEFINED> instruction: 00210000
 928:	10000000 			@ <UNDEFINED> instruction: 10000000
 92c:	01000000 			@ <UNDEFINED> instruction: 01000000
 930:	506e069c 	mlspl	lr, ip, r6, r0
 934:	001d0000 			@ <UNDEFINED> instruction: 001d0000
 938:	10000000 			@ <UNDEFINED> instruction: 10000000
 93c:	01000000 			@ <UNDEFINED> instruction: 01000000
 940:	4c7b1e9c 			@ <UNDEFINED> instruction: 4c7b1e9c
 944:	18010000 			@ <UNDEFINED> instruction: 18010000
 948:	00000014 			@ <UNDEFINED> instruction: 00000014
 94c:	00001800 			@ <UNDEFINED> instruction: 00001800
 950:	1f9c0100 			@ <UNDEFINED> instruction: 1f9c0100
 954:	00707370 			@ <UNDEFINED> instruction: 00707370
 958:	a0271801 			@ <UNDEFINED> instruction: a0271801
 95c:	02000000 			@ <UNDEFINED> instruction: 02000000
 960:	00007491 			@ <UNDEFINED> instruction: 00007491
 964:	000003e7 			@ <UNDEFINED> instruction: 000003e7
 968:	04010005 			@ <UNDEFINED> instruction: 04010005
 96c:	0000035e 			@ <UNDEFINED> instruction: 0000035e
 970:	0005a40b 			@ <UNDEFINED> instruction: 0005a40b
 974:	528b1d00 			@ <UNDEFINED> instruction: 528b1d00
 978:	18dd0000 			@ <UNDEFINED> instruction: 18dd0000
 97c:	00ad0000 			@ <UNDEFINED> instruction: 00ad0000
 980:	00000000 			@ <UNDEFINED> instruction: 00000000
 984:	0b4d0000 			@ <UNDEFINED> instruction: 0b4d0000
 988:	14540000 			@ <UNDEFINED> instruction: 14540000
 98c:	01020000 			@ <UNDEFINED> instruction: 01020000
 990:	0004c706 			@ <UNDEFINED> instruction: 0004c706
 994:	08010200 			@ <UNDEFINED> instruction: 08010200
 998:	0000086a 			@ <UNDEFINED> instruction: 0000086a
 99c:	9a050202 			@ <UNDEFINED> instruction: 9a050202
 9a0:	02000005 			@ <UNDEFINED> instruction: 02000005
 9a4:	368a0702 			@ <UNDEFINED> instruction: 368a0702
 9a8:	04020000 			@ <UNDEFINED> instruction: 04020000
 9ac:	00385f05 			@ <UNDEFINED> instruction: 00385f05
 9b0:	20790400 			@ <UNDEFINED> instruction: 20790400
 9b4:	4f020000 			@ <UNDEFINED> instruction: 4f020000
 9b8:	00005919 			@ <UNDEFINED> instruction: 00005919
 9bc:	07040200 			@ <UNDEFINED> instruction: 07040200
 9c0:	00000fd3 	ldrdeq	r0, [r0], -r3
 9c4:	7f050802 			@ <UNDEFINED> instruction: 7f050802
 9c8:	02000028 			@ <UNDEFINED> instruction: 02000028
 9cc:	3d280708 			@ <UNDEFINED> instruction: 3d280708
 9d0:	040c0000 			@ <UNDEFINED> instruction: 040c0000
 9d4:	746e6905 			@ <UNDEFINED> instruction: 746e6905
 9d8:	07040200 			@ <UNDEFINED> instruction: 07040200
 9dc:	000012f6 	strdeq	r1, [r0], -r6
 9e0:	00207b04 			@ <UNDEFINED> instruction: 00207b04
 9e4:	14300300 			@ <UNDEFINED> instruction: 14300300
 9e8:	0000004d 			@ <UNDEFINED> instruction: 0000004d
 9ec:	2f040802 			@ <UNDEFINED> instruction: 2f040802
 9f0:	04000031 			@ <UNDEFINED> instruction: 04000031
 9f4:	00004771 			@ <UNDEFINED> instruction: 00004771
 9f8:	7c121a04 			@ <UNDEFINED> instruction: 7c121a04
 9fc:	09000000 			@ <UNDEFINED> instruction: 09000000
 a00:	00003f02 			@ <UNDEFINED> instruction: 00003f02
 a04:	b51e0400 			@ <UNDEFINED> instruction: b51e0400
 a08:	05000000 			@ <UNDEFINED> instruction: 05000000
 a0c:	00002698 			@ <UNDEFINED> instruction: 00002698
 a10:	06d90601 			@ <UNDEFINED> instruction: 06d90601
 a14:	03e80000 			@ <UNDEFINED> instruction: 03e80000
 a18:	32590400 			@ <UNDEFINED> instruction: 32590400
 a1c:	21040000 			@ <UNDEFINED> instruction: 21040000
 a20:	00009b03 			@ <UNDEFINED> instruction: 00009b03
 a24:	08010200 			@ <UNDEFINED> instruction: 08010200
 a28:	000004ce 			@ <UNDEFINED> instruction: 000004ce
 a2c:	00310109 			@ <UNDEFINED> instruction: 00310109
 a30:	11050000 			@ <UNDEFINED> instruction: 11050000
 a34:	000000ed 			@ <UNDEFINED> instruction: 000000ed
 a38:	0051d405 			@ <UNDEFINED> instruction: 0051d405
 a3c:	e2051c00 			@ <UNDEFINED> instruction: e2051c00
 a40:	1d000051 			@ <UNDEFINED> instruction: 1d000051
 a44:	0051f005 			@ <UNDEFINED> instruction: 0051f005
 a48:	b4051e00 			@ <UNDEFINED> instruction: b4051e00
 a4c:	32000051 			@ <UNDEFINED> instruction: 32000051
 a50:	520b0400 			@ <UNDEFINED> instruction: 520b0400
 a54:	16050000 			@ <UNDEFINED> instruction: 16050000
 a58:	0000c803 			@ <UNDEFINED> instruction: 0000c803
 a5c:	3f020900 			@ <UNDEFINED> instruction: 3f020900
 a60:	06000000 			@ <UNDEFINED> instruction: 06000000
 a64:	00012f29 			@ <UNDEFINED> instruction: 00012f29
 a68:	51650500 			@ <UNDEFINED> instruction: 51650500
 a6c:	06000000 			@ <UNDEFINED> instruction: 06000000
 a70:	0000516b 			@ <UNDEFINED> instruction: 0000516b
 a74:	71060400 			@ <UNDEFINED> instruction: 71060400
 a78:	00000051 			@ <UNDEFINED> instruction: 00000051
 a7c:	51770608 			@ <UNDEFINED> instruction: 51770608
 a80:	0c000000 			@ <UNDEFINED> instruction: 0c000000
 a84:	00517d06 			@ <UNDEFINED> instruction: 00517d06
 a88:	06100000 			@ <UNDEFINED> instruction: 06100000
 a8c:	00005183 			@ <UNDEFINED> instruction: 00005183
 a90:	04001400 			@ <UNDEFINED> instruction: 04001400
 a94:	0000523c 			@ <UNDEFINED> instruction: 0000523c
 a98:	f9033006 			@ <UNDEFINED> instruction: f9033006
 a9c:	07000000 			@ <UNDEFINED> instruction: 07000000
 aa0:	000052d4 	ldrdeq	r5, [r0], -r4
 aa4:	063221a3 			@ <UNDEFINED> instruction: 063221a3
 aa8:	00320800 			@ <UNDEFINED> instruction: 00320800
 aac:	9c010000 			@ <UNDEFINED> instruction: 9c010000
 ab0:	0000015e 			@ <UNDEFINED> instruction: 0000015e
 ab4:	00527708 			@ <UNDEFINED> instruction: 00527708
 ab8:	012fa500 			@ <UNDEFINED> instruction: 012fa500
 abc:	91020000 			@ <UNDEFINED> instruction: 91020000
 ac0:	1607006e 			@ <UNDEFINED> instruction: 1607006e
 ac4:	9c000052 			@ <UNDEFINED> instruction: 9c000052
 ac8:	00060021 			@ <UNDEFINED> instruction: 00060021
 acc:	00003208 			@ <UNDEFINED> instruction: 00003208
 ad0:	819c0100 			@ <UNDEFINED> instruction: 819c0100
 ad4:	08000001 			@ <UNDEFINED> instruction: 08000001
 ad8:	00005277 			@ <UNDEFINED> instruction: 00005277
 adc:	00012f9e 			@ <UNDEFINED> instruction: 00012f9e
 ae0:	6e910200 			@ <UNDEFINED> instruction: 6e910200
 ae4:	51890700 			@ <UNDEFINED> instruction: 51890700
 ae8:	21950000 			@ <UNDEFINED> instruction: 21950000
 aec:	080005ce 			@ <UNDEFINED> instruction: 080005ce
 af0:	00000032 			@ <UNDEFINED> instruction: 00000032
 af4:	01a49c01 			@ <UNDEFINED> instruction: 01a49c01
 af8:	77080000 			@ <UNDEFINED> instruction: 77080000
 afc:	97000052 	smlsdls	r0, r2, r0, r0
 b00:	0000012f 			@ <UNDEFINED> instruction: 0000012f
 b04:	006e9102 			@ <UNDEFINED> instruction: 006e9102
 b08:	00524407 			@ <UNDEFINED> instruction: 00524407
 b0c:	9e218e00 			@ <UNDEFINED> instruction: 9e218e00
 b10:	30080005 			@ <UNDEFINED> instruction: 30080005
 b14:	01000000 			@ <UNDEFINED> instruction: 01000000
 b18:	0001c79c 			@ <UNDEFINED> instruction: 0001c79c
 b1c:	52770800 			@ <UNDEFINED> instruction: 52770800
 b20:	2f900000 			@ <UNDEFINED> instruction: 2f900000
 b24:	02000001 			@ <UNDEFINED> instruction: 02000001
 b28:	0d006e91 			@ <UNDEFINED> instruction: 0d006e91
 b2c:	00005226 			@ <UNDEFINED> instruction: 00005226
 b30:	00066d01 			@ <UNDEFINED> instruction: 00066d01
 b34:	b2000000 			@ <UNDEFINED> instruction: b2000000
 b38:	01000000 			@ <UNDEFINED> instruction: 01000000
 b3c:	52310e9c 			@ <UNDEFINED> instruction: 52310e9c
 b40:	68010000 			@ <UNDEFINED> instruction: 68010000
 b44:	00000006 			@ <UNDEFINED> instruction: 00000006
 b48:	00001600 			@ <UNDEFINED> instruction: 00001600
 b4c:	0c9c0100 			@ <UNDEFINED> instruction: 0c9c0100
 b50:	01000002 			@ <UNDEFINED> instruction: 01000002
 b54:	00004e24 			@ <UNDEFINED> instruction: 00004e24
 b58:	008f1768 			@ <UNDEFINED> instruction: 008f1768
 b5c:	91020000 			@ <UNDEFINED> instruction: 91020000
 b60:	4b500174 			@ <UNDEFINED> instruction: 4b500174
 b64:	31680000 			@ <UNDEFINED> instruction: 31680000
 b68:	000000b5 			@ <UNDEFINED> instruction: 000000b5
 b6c:	00729102 			@ <UNDEFINED> instruction: 00729102
 b70:	00525407 			@ <UNDEFINED> instruction: 00525407
 b74:	00066000 			@ <UNDEFINED> instruction: 00066000
 b78:	42000000 			@ <UNDEFINED> instruction: 42000000
 b7c:	01000000 			@ <UNDEFINED> instruction: 01000000
 b80:	00024c9c 			@ <UNDEFINED> instruction: 00024c9c
 b84:	52770100 			@ <UNDEFINED> instruction: 52770100
 b88:	23600000 			@ <UNDEFINED> instruction: 23600000
 b8c:	0000012f 			@ <UNDEFINED> instruction: 0000012f
 b90:	01769102 			@ <UNDEFINED> instruction: 01769102
 b94:	00004e24 			@ <UNDEFINED> instruction: 00004e24
 b98:	008f3060 			@ <UNDEFINED> instruction: 008f3060
 b9c:	91020000 			@ <UNDEFINED> instruction: 91020000
 ba0:	4b500170 			@ <UNDEFINED> instruction: 4b500170
 ba4:	4a600000 			@ <UNDEFINED> instruction: 4a600000
 ba8:	000000b5 			@ <UNDEFINED> instruction: 000000b5
 bac:	00749102 			@ <UNDEFINED> instruction: 00749102
 bb0:	0051c203 			@ <UNDEFINED> instruction: 0051c203
 bb4:	00005b00 			@ <UNDEFINED> instruction: 00005b00
 bb8:	00260000 			@ <UNDEFINED> instruction: 00260000
 bbc:	9c010000 			@ <UNDEFINED> instruction: 9c010000
 bc0:	0000027e 			@ <UNDEFINED> instruction: 0000027e
 bc4:	00527701 			@ <UNDEFINED> instruction: 00527701
 bc8:	2f245b00 			@ <UNDEFINED> instruction: 2f245b00
 bcc:	02000001 			@ <UNDEFINED> instruction: 02000001
 bd0:	610f7691 			@ <UNDEFINED> instruction: 610f7691
 bd4:	01007272 			@ <UNDEFINED> instruction: 01007272
 bd8:	007c345b 			@ <UNDEFINED> instruction: 007c345b
 bdc:	91020000 			@ <UNDEFINED> instruction: 91020000
 be0:	b4030070 			@ <UNDEFINED> instruction: b4030070
 be4:	56000052 			@ <UNDEFINED> instruction: 56000052
 be8:	00000000 			@ <UNDEFINED> instruction: 00000000
 bec:	00000026 			@ <UNDEFINED> instruction: 00000026
 bf0:	02af9c01 			@ <UNDEFINED> instruction: 02af9c01
 bf4:	77010000 			@ <UNDEFINED> instruction: 77010000
 bf8:	56000052 			@ <UNDEFINED> instruction: 56000052
 bfc:	00012f24 			@ <UNDEFINED> instruction: 00012f24
 c00:	76910200 			@ <UNDEFINED> instruction: 76910200
 c04:	0051ca01 			@ <UNDEFINED> instruction: 0051ca01
 c08:	7c345600 			@ <UNDEFINED> instruction: 7c345600
 c0c:	02000000 			@ <UNDEFINED> instruction: 02000000
 c10:	0a007091 			@ <UNDEFINED> instruction: 0a007091
 c14:	0000527d 			@ <UNDEFINED> instruction: 0000527d
 c18:	00000050 			@ <UNDEFINED> instruction: 00000050
 c1c:	00003c00 			@ <UNDEFINED> instruction: 00003c00
 c20:	e19c0100 			@ <UNDEFINED> instruction: e19c0100
 c24:	01000002 			@ <UNDEFINED> instruction: 01000002
 c28:	00005277 			@ <UNDEFINED> instruction: 00005277
 c2c:	012f2a50 			@ <UNDEFINED> instruction: 012f2a50
 c30:	91020000 			@ <UNDEFINED> instruction: 91020000
 c34:	7269106e 			@ <UNDEFINED> instruction: 7269106e
 c38:	52010071 			@ <UNDEFINED> instruction: 52010071
 c3c:	0000ed10 			@ <UNDEFINED> instruction: 0000ed10
 c40:	77910200 			@ <UNDEFINED> instruction: 77910200
 c44:	53170300 			@ <UNDEFINED> instruction: 53170300
 c48:	004b0000 			@ <UNDEFINED> instruction: 004b0000
 c4c:	28000000 			@ <UNDEFINED> instruction: 28000000
 c50:	01000000 			@ <UNDEFINED> instruction: 01000000
 c54:	0003049c 			@ <UNDEFINED> instruction: 0003049c
 c58:	52770100 			@ <UNDEFINED> instruction: 52770100
 c5c:	2a4b0000 			@ <UNDEFINED> instruction: 2a4b0000
 c60:	0000012f 			@ <UNDEFINED> instruction: 0000012f
 c64:	00769102 			@ <UNDEFINED> instruction: 00769102
 c68:	0051990a 			@ <UNDEFINED> instruction: 0051990a
 c6c:	00004400 			@ <UNDEFINED> instruction: 00004400
 c70:	003c0000 			@ <UNDEFINED> instruction: 003c0000
 c74:	9c010000 			@ <UNDEFINED> instruction: 9c010000
 c78:	00000327 			@ <UNDEFINED> instruction: 00000327
 c7c:	00527701 			@ <UNDEFINED> instruction: 00527701
 c80:	2f2a4400 			@ <UNDEFINED> instruction: 2f2a4400
 c84:	02000001 			@ <UNDEFINED> instruction: 02000001
 c88:	11007691 			@ <UNDEFINED> instruction: 11007691
 c8c:	000051fe 	strdeq	r5, [r0], -lr
 c90:	00143f01 			@ <UNDEFINED> instruction: 00143f01
 c94:	0e000000 			@ <UNDEFINED> instruction: 0e000000
 c98:	01000000 			@ <UNDEFINED> instruction: 01000000
 c9c:	51a7039c 			@ <UNDEFINED> instruction: 51a7039c
 ca0:	003a0000 			@ <UNDEFINED> instruction: 003a0000
 ca4:	2e000000 			@ <UNDEFINED> instruction: 2e000000
 ca8:	01000000 			@ <UNDEFINED> instruction: 01000000
 cac:	00035c9c 			@ <UNDEFINED> instruction: 00035c9c
 cb0:	52770100 			@ <UNDEFINED> instruction: 52770100
 cb4:	293a0000 			@ <UNDEFINED> instruction: 293a0000
 cb8:	0000012f 			@ <UNDEFINED> instruction: 0000012f
 cbc:	00769102 			@ <UNDEFINED> instruction: 00769102
 cc0:	0052fb03 			@ <UNDEFINED> instruction: 0052fb03
 cc4:	055e2e00 			@ <UNDEFINED> instruction: 055e2e00
 cc8:	00400800 			@ <UNDEFINED> instruction: 00400800
 ccc:	9c010000 			@ <UNDEFINED> instruction: 9c010000
 cd0:	0000037f 			@ <UNDEFINED> instruction: 0000037f
 cd4:	00527701 			@ <UNDEFINED> instruction: 00527701
 cd8:	2f382e00 			@ <UNDEFINED> instruction: 2f382e00
 cdc:	02000001 			@ <UNDEFINED> instruction: 02000001
 ce0:	03007691 	movweq	r7, #1681	@ 0x691
 ce4:	000052bc 			@ <UNDEFINED> instruction: 000052bc
 ce8:	00053029 			@ <UNDEFINED> instruction: 00053029
 cec:	00002e08 			@ <UNDEFINED> instruction: 00002e08
 cf0:	a29c0100 			@ <UNDEFINED> instruction: a29c0100
 cf4:	01000003 			@ <UNDEFINED> instruction: 01000003
 cf8:	00005277 			@ <UNDEFINED> instruction: 00005277
 cfc:	012f3429 			@ <UNDEFINED> instruction: 012f3429
 d00:	91020000 			@ <UNDEFINED> instruction: 91020000
 d04:	e4030076 			@ <UNDEFINED> instruction: e4030076
 d08:	24000052 			@ <UNDEFINED> instruction: 24000052
 d0c:	00000000 			@ <UNDEFINED> instruction: 00000000
 d10:	0000002e 			@ <UNDEFINED> instruction: 0000002e
 d14:	03c59c01 			@ <UNDEFINED> instruction: 03c59c01
 d18:	77010000 			@ <UNDEFINED> instruction: 77010000
 d1c:	24000052 			@ <UNDEFINED> instruction: 24000052
 d20:	00012f33 			@ <UNDEFINED> instruction: 00012f33
 d24:	76910200 			@ <UNDEFINED> instruction: 76910200
 d28:	52691200 			@ <UNDEFINED> instruction: 52691200
 d2c:	04010000 			@ <UNDEFINED> instruction: 04010000
 d30:	0000ed1a 			@ <UNDEFINED> instruction: 0000ed1a
 d34:	00000000 			@ <UNDEFINED> instruction: 00000000
 d38:	00004c00 			@ <UNDEFINED> instruction: 00004c00
 d3c:	019c0100 			@ <UNDEFINED> instruction: 019c0100
 d40:	00005277 			@ <UNDEFINED> instruction: 00005277
 d44:	012f3604 			@ <UNDEFINED> instruction: 012f3604
 d48:	91020000 			@ <UNDEFINED> instruction: 91020000
 d4c:	2c000076 			@ <UNDEFINED> instruction: 2c000076
 d50:	05000000 			@ <UNDEFINED> instruction: 05000000
 d54:	bd040100 			@ <UNDEFINED> instruction: bd040100
 d58:	01000004 			@ <UNDEFINED> instruction: 01000004
 d5c:	000010dc 	ldrdeq	r1, [r0], -ip
 d60:	00000127 			@ <UNDEFINED> instruction: 00000127
 d64:	00005325 			@ <UNDEFINED> instruction: 00005325
 d68:	000018dd 	ldrdeq	r1, [r0], -sp
 d6c:	0000535c 			@ <UNDEFINED> instruction: 0000535c
 d70:	6a028001 			@ <UNDEFINED> instruction: 6a028001
 d74:	2e000053 			@ <UNDEFINED> instruction: 2e000053
 d78:	08000665 			@ <UNDEFINED> instruction: 08000665
 d7c:	Address 0xd7c is out of bounds.


Disassembly of section .debug_abbrev:

00000000 <.debug_abbrev>:
   0:	03002801 	movweq	r2, #2049	@ 0x801
   4:	000b1c0e 			@ <UNDEFINED> instruction: 000b1c0e
   8:	00160200 			@ <UNDEFINED> instruction: 00160200
   c:	0b3a0e03 			@ <UNDEFINED> instruction: 0b3a0e03
  10:	0b390b3b 			@ <UNDEFINED> instruction: 0b390b3b
  14:	00001349 			@ <UNDEFINED> instruction: 00001349
  18:	0b002403 			@ <UNDEFINED> instruction: 0b002403
  1c:	030b3e0b 	movweq	r3, #48651	@ 0xbe0b
  20:	0400000e 			@ <UNDEFINED> instruction: 0400000e
  24:	0e03000d 			@ <UNDEFINED> instruction: 0e03000d
  28:	0b3b0b3a 			@ <UNDEFINED> instruction: 0b3b0b3a
  2c:	13490b39 	movtne	r0, #39737	@ 0x9b39
  30:	00000b38 			@ <UNDEFINED> instruction: 00000b38
  34:	03002805 	movweq	r2, #2053	@ 0x805
  38:	00061c0e 			@ <UNDEFINED> instruction: 00061c0e
  3c:	01040600 			@ <UNDEFINED> instruction: 01040600
  40:	0b07213e 			@ <UNDEFINED> instruction: 0b07213e
  44:	3a13490b 			@ <UNDEFINED> instruction: 3a13490b
  48:	390b3b0b 			@ <UNDEFINED> instruction: 390b3b0b
  4c:	13010e21 	movwne	r0, #7713	@ 0x1e21
  50:	0d070000 			@ <UNDEFINED> instruction: 0d070000
  54:	3a080300 			@ <UNDEFINED> instruction: 3a080300
  58:	0b3b0521 			@ <UNDEFINED> instruction: 0b3b0521
  5c:	13490b39 	movtne	r0, #39737	@ 0x9b39
  60:	00000b38 			@ <UNDEFINED> instruction: 00000b38
  64:	0b011308 			@ <UNDEFINED> instruction: 0b011308
  68:	3b0b3a0b 			@ <UNDEFINED> instruction: 3b0b3a0b
  6c:	0921390b 			@ <UNDEFINED> instruction: 0921390b
  70:	00001301 			@ <UNDEFINED> instruction: 00001301
  74:	49000509 			@ <UNDEFINED> instruction: 49000509
  78:	0a000013 			@ <UNDEFINED> instruction: 0a000013
  7c:	0e030034 			@ <UNDEFINED> instruction: 0e030034
  80:	3b01213a 			@ <UNDEFINED> instruction: 3b01213a
  84:	490b390b 			@ <UNDEFINED> instruction: 490b390b
  88:	00180213 			@ <UNDEFINED> instruction: 00180213
  8c:	00350b00 			@ <UNDEFINED> instruction: 00350b00
  90:	00001349 			@ <UNDEFINED> instruction: 00001349
  94:	0300340c 	movweq	r3, #1036	@ 0x40c
  98:	01213a0e 			@ <UNDEFINED> instruction: 01213a0e
  9c:	21390b3b 			@ <UNDEFINED> instruction: 21390b3b
  a0:	3f134905 			@ <UNDEFINED> instruction: 3f134905
  a4:	00180219 			@ <UNDEFINED> instruction: 00180219
  a8:	012e0d00 			@ <UNDEFINED> instruction: 012e0d00
  ac:	0e03193f 			@ <UNDEFINED> instruction: 0e03193f
  b0:	0b3b0b3a 			@ <UNDEFINED> instruction: 0b3b0b3a
  b4:	27062139 	smladxcs	r6, r9, r1, r2
  b8:	01193c19 			@ <UNDEFINED> instruction: 01193c19
  bc:	0e000013 			@ <UNDEFINED> instruction: 0e000013
  c0:	0e030005 			@ <UNDEFINED> instruction: 0e030005
  c4:	3b01213a 			@ <UNDEFINED> instruction: 3b01213a
  c8:	1421390b 			@ <UNDEFINED> instruction: 1421390b
  cc:	18021349 			@ <UNDEFINED> instruction: 18021349
  d0:	110f0000 			@ <UNDEFINED> instruction: 110f0000
  d4:	130e2501 	movwne	r2, #58625	@ 0xe501
  d8:	1b0e030b 			@ <UNDEFINED> instruction: 1b0e030b
  dc:	1117550e 			@ <UNDEFINED> instruction: 1117550e
  e0:	79171001 			@ <UNDEFINED> instruction: 79171001
  e4:	10000017 			@ <UNDEFINED> instruction: 10000017
  e8:	0b0b0024 			@ <UNDEFINED> instruction: 0b0b0024
  ec:	08030b3e 			@ <UNDEFINED> instruction: 08030b3e
  f0:	01110000 			@ <UNDEFINED> instruction: 01110000
  f4:	01134901 			@ <UNDEFINED> instruction: 01134901
  f8:	12000013 			@ <UNDEFINED> instruction: 12000013
  fc:	13490021 	movtne	r0, #36897	@ 0x9021
 100:	00000b2f 			@ <UNDEFINED> instruction: 00000b2f
 104:	0b000f13 			@ <UNDEFINED> instruction: 0b000f13
 108:	0013490b 			@ <UNDEFINED> instruction: 0013490b
 10c:	00281400 			@ <UNDEFINED> instruction: 00281400
 110:	051c0e03 			@ <UNDEFINED> instruction: 051c0e03
 114:	2e150000 			@ <UNDEFINED> instruction: 2e150000
 118:	03193f01 			@ <UNDEFINED> instruction: 03193f01
 11c:	3b0b3a0e 			@ <UNDEFINED> instruction: 3b0b3a0e
 120:	270b390b 			@ <UNDEFINED> instruction: 270b390b
 124:	11134919 			@ <UNDEFINED> instruction: 11134919
 128:	40061201 			@ <UNDEFINED> instruction: 40061201
 12c:	01197a18 			@ <UNDEFINED> instruction: 01197a18
 130:	16000013 			@ <UNDEFINED> instruction: 16000013
 134:	193f012e 			@ <UNDEFINED> instruction: 193f012e
 138:	0b3a0e03 			@ <UNDEFINED> instruction: 0b3a0e03
 13c:	0b390b3b 			@ <UNDEFINED> instruction: 0b390b3b
 140:	01111927 			@ <UNDEFINED> instruction: 01111927
 144:	18400612 			@ <UNDEFINED> instruction: 18400612
 148:	1301197c 	movwne	r1, #6524	@ 0x197c
 14c:	0f170000 			@ <UNDEFINED> instruction: 0f170000
 150:	000b0b00 			@ <UNDEFINED> instruction: 000b0b00
 154:	012e1800 			@ <UNDEFINED> instruction: 012e1800
 158:	0e03193f 			@ <UNDEFINED> instruction: 0e03193f
 15c:	0b3b0b3a 			@ <UNDEFINED> instruction: 0b3b0b3a
 160:	19270b39 			@ <UNDEFINED> instruction: 19270b39
 164:	06120111 			@ <UNDEFINED> instruction: 06120111
 168:	197c1840 			@ <UNDEFINED> instruction: 197c1840
 16c:	01000000 			@ <UNDEFINED> instruction: 01000000
 170:	0e030016 			@ <UNDEFINED> instruction: 0e030016
 174:	0b3b0b3a 			@ <UNDEFINED> instruction: 0b3b0b3a
 178:	13490b39 	movtne	r0, #39737	@ 0x9b39
 17c:	24020000 			@ <UNDEFINED> instruction: 24020000
 180:	3e0b0b00 	vmlacc.f64	d0, d11, d0
 184:	000e030b 			@ <UNDEFINED> instruction: 000e030b
 188:	00340300 			@ <UNDEFINED> instruction: 00340300
 18c:	213a0e03 			@ <UNDEFINED> instruction: 213a0e03
 190:	390b3b01 			@ <UNDEFINED> instruction: 390b3b01
 194:	0213490b 			@ <UNDEFINED> instruction: 0213490b
 198:	04000018 			@ <UNDEFINED> instruction: 04000018
 19c:	0e030005 			@ <UNDEFINED> instruction: 0e030005
 1a0:	3b01213a 			@ <UNDEFINED> instruction: 3b01213a
 1a4:	490b390b 			@ <UNDEFINED> instruction: 490b390b
 1a8:	00180213 			@ <UNDEFINED> instruction: 00180213
 1ac:	010b0500 			@ <UNDEFINED> instruction: 010b0500
 1b0:	06120111 			@ <UNDEFINED> instruction: 06120111
 1b4:	2e060000 			@ <UNDEFINED> instruction: 2e060000
 1b8:	3a0e0300 			@ <UNDEFINED> instruction: 3a0e0300
 1bc:	0b3b0121 			@ <UNDEFINED> instruction: 0b3b0121
 1c0:	27142139 			@ <UNDEFINED> instruction: 27142139
 1c4:	12011119 			@ <UNDEFINED> instruction: 12011119
 1c8:	7a184006 			@ <UNDEFINED> instruction: 7a184006
 1cc:	07000019 	smladeq	r0, r9, r0, r0
 1d0:	0e030028 			@ <UNDEFINED> instruction: 0e030028
 1d4:	00000b1c 			@ <UNDEFINED> instruction: 00000b1c
 1d8:	03000d08 	movweq	r0, #3336	@ 0xd08
 1dc:	04213a0e 			@ <UNDEFINED> instruction: 04213a0e
 1e0:	0b390b3b 			@ <UNDEFINED> instruction: 0b390b3b
 1e4:	0b381349 			@ <UNDEFINED> instruction: 0b381349
 1e8:	0f090000 			@ <UNDEFINED> instruction: 0f090000
 1ec:	04210b00 			@ <UNDEFINED> instruction: 04210b00
 1f0:	00001349 			@ <UNDEFINED> instruction: 00001349
 1f4:	3f012e0a 			@ <UNDEFINED> instruction: 3f012e0a
 1f8:	3a0e0319 			@ <UNDEFINED> instruction: 3a0e0319
 1fc:	0b3b0121 			@ <UNDEFINED> instruction: 0b3b0121
 200:	27062139 	smladxcs	r6, r9, r1, r2
 204:	12011119 			@ <UNDEFINED> instruction: 12011119
 208:	7c184006 			@ <UNDEFINED> instruction: 7c184006
 20c:	00130119 			@ <UNDEFINED> instruction: 00130119
 210:	00210b00 			@ <UNDEFINED> instruction: 00210b00
 214:	0b2f1349 			@ <UNDEFINED> instruction: 0b2f1349
 218:	2e0c0000 			@ <UNDEFINED> instruction: 2e0c0000
 21c:	03193f01 			@ <UNDEFINED> instruction: 03193f01
 220:	01213a0e 			@ <UNDEFINED> instruction: 01213a0e
 224:	0b390b3b 			@ <UNDEFINED> instruction: 0b390b3b
 228:	01111927 			@ <UNDEFINED> instruction: 01111927
 22c:	18400612 			@ <UNDEFINED> instruction: 18400612
 230:	1301197a 	movwne	r1, #6522	@ 0x197a
 234:	480d0000 			@ <UNDEFINED> instruction: 480d0000
 238:	7f017d00 			@ <UNDEFINED> instruction: 7f017d00
 23c:	0e000013 			@ <UNDEFINED> instruction: 0e000013
 240:	08030034 			@ <UNDEFINED> instruction: 08030034
 244:	3b01213a 			@ <UNDEFINED> instruction: 3b01213a
 248:	490b390b 			@ <UNDEFINED> instruction: 490b390b
 24c:	00180213 			@ <UNDEFINED> instruction: 00180213
 250:	00260f00 			@ <UNDEFINED> instruction: 00260f00
 254:	00001349 			@ <UNDEFINED> instruction: 00001349
 258:	3e010410 			@ <UNDEFINED> instruction: 3e010410
 25c:	0b0b0721 			@ <UNDEFINED> instruction: 0b0b0721
 260:	213a1349 			@ <UNDEFINED> instruction: 213a1349
 264:	390b3b04 			@ <UNDEFINED> instruction: 390b3b04
 268:	13010e21 	movwne	r0, #7713	@ 0x1e21
 26c:	01110000 			@ <UNDEFINED> instruction: 01110000
 270:	01134901 			@ <UNDEFINED> instruction: 01134901
 274:	12000013 			@ <UNDEFINED> instruction: 12000013
 278:	193f002e 			@ <UNDEFINED> instruction: 193f002e
 27c:	213a0e03 			@ <UNDEFINED> instruction: 213a0e03
 280:	390b3b01 			@ <UNDEFINED> instruction: 390b3b01
 284:	19271d21 			@ <UNDEFINED> instruction: 19271d21
 288:	06120111 			@ <UNDEFINED> instruction: 06120111
 28c:	197a1840 			@ <UNDEFINED> instruction: 197a1840
 290:	48130000 			@ <UNDEFINED> instruction: 48130000
 294:	82017d00 			@ <UNDEFINED> instruction: 82017d00
 298:	137f1901 			@ <UNDEFINED> instruction: 137f1901
 29c:	2e140000 			@ <UNDEFINED> instruction: 2e140000
 2a0:	03193f00 			@ <UNDEFINED> instruction: 03193f00
 2a4:	01213a0e 			@ <UNDEFINED> instruction: 01213a0e
 2a8:	0b390b3b 			@ <UNDEFINED> instruction: 0b390b3b
 2ac:	01111927 			@ <UNDEFINED> instruction: 01111927
 2b0:	18400612 			@ <UNDEFINED> instruction: 18400612
 2b4:	0000197c 			@ <UNDEFINED> instruction: 0000197c
 2b8:	25011115 			@ <UNDEFINED> instruction: 25011115
 2bc:	030b130e 	movweq	r1, #45838	@ 0xb30e
 2c0:	550e1b0e 			@ <UNDEFINED> instruction: 550e1b0e
 2c4:	10011117 			@ <UNDEFINED> instruction: 10011117
 2c8:	00177917 			@ <UNDEFINED> instruction: 00177917
 2cc:	00241600 			@ <UNDEFINED> instruction: 00241600
 2d0:	0b3e0b0b 			@ <UNDEFINED> instruction: 0b3e0b0b
 2d4:	00000803 			@ <UNDEFINED> instruction: 00000803
 2d8:	03002817 	movweq	r2, #2071	@ 0x817
 2dc:	00051c0e 			@ <UNDEFINED> instruction: 00051c0e
 2e0:	01131800 			@ <UNDEFINED> instruction: 01131800
 2e4:	0b0b0e03 			@ <UNDEFINED> instruction: 0b0b0e03
 2e8:	0b3b0b3a 			@ <UNDEFINED> instruction: 0b3b0b3a
 2ec:	13010b39 	movwne	r0, #6969	@ 0x1b39
 2f0:	34190000 			@ <UNDEFINED> instruction: 34190000
 2f4:	3a0e0300 			@ <UNDEFINED> instruction: 3a0e0300
 2f8:	390b3b0b 			@ <UNDEFINED> instruction: 390b3b0b
 2fc:	0213490b 			@ <UNDEFINED> instruction: 0213490b
 300:	1a000017 			@ <UNDEFINED> instruction: 1a000017
 304:	193f002e 			@ <UNDEFINED> instruction: 193f002e
 308:	0b3a0e03 			@ <UNDEFINED> instruction: 0b3a0e03
 30c:	0b390b3b 			@ <UNDEFINED> instruction: 0b390b3b
 310:	13491927 	movtne	r1, #39207	@ 0x9927
 314:	06120111 			@ <UNDEFINED> instruction: 06120111
 318:	197a1840 			@ <UNDEFINED> instruction: 197a1840
 31c:	151b0000 			@ <UNDEFINED> instruction: 151b0000
 320:	01192701 			@ <UNDEFINED> instruction: 01192701
 324:	1c000013 			@ <UNDEFINED> instruction: 1c000013
 328:	13490005 	movtne	r0, #36869	@ 0x9005
 32c:	0f1d0000 			@ <UNDEFINED> instruction: 0f1d0000
 330:	000b0b00 			@ <UNDEFINED> instruction: 000b0b00
 334:	012e1e00 			@ <UNDEFINED> instruction: 012e1e00
 338:	0b3a0e03 			@ <UNDEFINED> instruction: 0b3a0e03
 33c:	0b390b3b 			@ <UNDEFINED> instruction: 0b390b3b
 340:	01111927 			@ <UNDEFINED> instruction: 01111927
 344:	18400612 			@ <UNDEFINED> instruction: 18400612
 348:	0000197a 			@ <UNDEFINED> instruction: 0000197a
 34c:	0300051f 	movweq	r0, #1311	@ 0x51f
 350:	3b0b3a08 			@ <UNDEFINED> instruction: 3b0b3a08
 354:	490b390b 			@ <UNDEFINED> instruction: 490b390b
 358:	00180213 			@ <UNDEFINED> instruction: 00180213
 35c:	05010000 			@ <UNDEFINED> instruction: 05010000
 360:	3a0e0300 			@ <UNDEFINED> instruction: 3a0e0300
 364:	0b3b0121 			@ <UNDEFINED> instruction: 0b3b0121
 368:	13490b39 	movtne	r0, #39737	@ 0x9b39
 36c:	00001802 			@ <UNDEFINED> instruction: 00001802
 370:	0b002402 			@ <UNDEFINED> instruction: 0b002402
 374:	030b3e0b 	movweq	r3, #48651	@ 0xbe0b
 378:	0300000e 	movweq	r0, #14
 37c:	0e03012e 			@ <UNDEFINED> instruction: 0e03012e
 380:	3b01213a 			@ <UNDEFINED> instruction: 3b01213a
 384:	1421390b 			@ <UNDEFINED> instruction: 1421390b
 388:	01111927 			@ <UNDEFINED> instruction: 01111927
 38c:	18400612 			@ <UNDEFINED> instruction: 18400612
 390:	1301197a 	movwne	r1, #6522	@ 0x197a
 394:	16040000 			@ <UNDEFINED> instruction: 16040000
 398:	3a0e0300 			@ <UNDEFINED> instruction: 3a0e0300
 39c:	390b3b0b 			@ <UNDEFINED> instruction: 390b3b0b
 3a0:	0013490b 			@ <UNDEFINED> instruction: 0013490b
 3a4:	00280500 			@ <UNDEFINED> instruction: 00280500
 3a8:	0b1c0e03 			@ <UNDEFINED> instruction: 0b1c0e03
 3ac:	28060000 			@ <UNDEFINED> instruction: 28060000
 3b0:	1c0e0300 			@ <UNDEFINED> instruction: 1c0e0300
 3b4:	07000005 			@ <UNDEFINED> instruction: 07000005
 3b8:	193f012e 			@ <UNDEFINED> instruction: 193f012e
 3bc:	213a0e03 			@ <UNDEFINED> instruction: 213a0e03
 3c0:	390b3b01 			@ <UNDEFINED> instruction: 390b3b01
 3c4:	1119270b 			@ <UNDEFINED> instruction: 1119270b
 3c8:	40061201 			@ <UNDEFINED> instruction: 40061201
 3cc:	01197c18 			@ <UNDEFINED> instruction: 01197c18
 3d0:	08000013 			@ <UNDEFINED> instruction: 08000013
 3d4:	0e030034 			@ <UNDEFINED> instruction: 0e030034
 3d8:	3b01213a 			@ <UNDEFINED> instruction: 3b01213a
 3dc:	0d21390b 			@ <UNDEFINED> instruction: 0d21390b
 3e0:	18021349 			@ <UNDEFINED> instruction: 18021349
 3e4:	04090000 			@ <UNDEFINED> instruction: 04090000
 3e8:	07213e01 			@ <UNDEFINED> instruction: 07213e01
 3ec:	13490b0b 	movtne	r0, #39691	@ 0x9b0b
 3f0:	0b3b0b3a 			@ <UNDEFINED> instruction: 0b3b0b3a
 3f4:	010e2139 			@ <UNDEFINED> instruction: 010e2139
 3f8:	0a000013 			@ <UNDEFINED> instruction: 0a000013
 3fc:	0e03012e 			@ <UNDEFINED> instruction: 0e03012e
 400:	3b01213a 			@ <UNDEFINED> instruction: 3b01213a
 404:	1421390b 			@ <UNDEFINED> instruction: 1421390b
 408:	01111927 			@ <UNDEFINED> instruction: 01111927
 40c:	18400612 			@ <UNDEFINED> instruction: 18400612
 410:	1301197c 	movwne	r1, #6524	@ 0x197c
 414:	110b0000 			@ <UNDEFINED> instruction: 110b0000
 418:	130e2501 	movwne	r2, #58625	@ 0xe501
 41c:	1b0e030b 			@ <UNDEFINED> instruction: 1b0e030b
 420:	1117550e 			@ <UNDEFINED> instruction: 1117550e
 424:	79171001 			@ <UNDEFINED> instruction: 79171001
 428:	0c000017 			@ <UNDEFINED> instruction: 0c000017
 42c:	0b0b0024 			@ <UNDEFINED> instruction: 0b0b0024
 430:	08030b3e 			@ <UNDEFINED> instruction: 08030b3e
 434:	2e0d0000 			@ <UNDEFINED> instruction: 2e0d0000
 438:	03193f00 			@ <UNDEFINED> instruction: 03193f00
 43c:	3b0b3a0e 			@ <UNDEFINED> instruction: 3b0b3a0e
 440:	270b390b 			@ <UNDEFINED> instruction: 270b390b
 444:	12011119 			@ <UNDEFINED> instruction: 12011119
 448:	7c184006 			@ <UNDEFINED> instruction: 7c184006
 44c:	0e000019 			@ <UNDEFINED> instruction: 0e000019
 450:	193f012e 			@ <UNDEFINED> instruction: 193f012e
 454:	0b3a0e03 			@ <UNDEFINED> instruction: 0b3a0e03
 458:	0b390b3b 			@ <UNDEFINED> instruction: 0b390b3b
 45c:	01111927 			@ <UNDEFINED> instruction: 01111927
 460:	18400612 			@ <UNDEFINED> instruction: 18400612
 464:	1301197a 	movwne	r1, #6522	@ 0x197a
 468:	050f0000 			@ <UNDEFINED> instruction: 050f0000
 46c:	3a080300 			@ <UNDEFINED> instruction: 3a080300
 470:	390b3b0b 			@ <UNDEFINED> instruction: 390b3b0b
 474:	0213490b 			@ <UNDEFINED> instruction: 0213490b
 478:	10000018 			@ <UNDEFINED> instruction: 10000018
 47c:	08030034 			@ <UNDEFINED> instruction: 08030034
 480:	0b3b0b3a 			@ <UNDEFINED> instruction: 0b3b0b3a
 484:	13490b39 	movtne	r0, #39737	@ 0x9b39
 488:	00001802 			@ <UNDEFINED> instruction: 00001802
 48c:	03002e11 	movweq	r2, #3601	@ 0xe11
 490:	3b0b3a0e 			@ <UNDEFINED> instruction: 3b0b3a0e
 494:	270b390b 			@ <UNDEFINED> instruction: 270b390b
 498:	12011119 			@ <UNDEFINED> instruction: 12011119
 49c:	7a184006 			@ <UNDEFINED> instruction: 7a184006
 4a0:	12000019 			@ <UNDEFINED> instruction: 12000019
 4a4:	0e03012e 			@ <UNDEFINED> instruction: 0e03012e
 4a8:	0b3b0b3a 			@ <UNDEFINED> instruction: 0b3b0b3a
 4ac:	19270b39 			@ <UNDEFINED> instruction: 19270b39
 4b0:	01111349 			@ <UNDEFINED> instruction: 01111349
 4b4:	18400612 			@ <UNDEFINED> instruction: 18400612
 4b8:	0000197a 			@ <UNDEFINED> instruction: 0000197a
 4bc:	01110100 			@ <UNDEFINED> instruction: 01110100
 4c0:	17551710 	smmlane	r5, r0, r7, r1
 4c4:	0e1b0e03 			@ <UNDEFINED> instruction: 0e1b0e03
 4c8:	05130e25 			@ <UNDEFINED> instruction: 05130e25
 4cc:	2e020000 			@ <UNDEFINED> instruction: 2e020000
 4d0:	490e0300 			@ <UNDEFINED> instruction: 490e0300
 4d4:	12011115 			@ <UNDEFINED> instruction: 12011115
 4d8:	0300000f 	movweq	r0, #15
 4dc:	0000003b 			@ <UNDEFINED> instruction: 0000003b
	...

Disassembly of section .debug_aranges:

00000000 <.debug_aranges>:
   0:	0000002c 			@ <UNDEFINED> instruction: 0000002c
   4:	00000002 			@ <UNDEFINED> instruction: 00000002
   8:	00040000 			@ <UNDEFINED> instruction: 00040000
	...
  14:	00000040 			@ <UNDEFINED> instruction: 00000040
  18:	00000000 			@ <UNDEFINED> instruction: 00000000
  1c:	00000040 			@ <UNDEFINED> instruction: 00000040
  20:	08000338 			@ <UNDEFINED> instruction: 08000338
  24:	00000034 			@ <UNDEFINED> instruction: 00000034
	...
  30:	000000ac 			@ <UNDEFINED> instruction: 000000ac
  34:	04460002 			@ <UNDEFINED> instruction: 04460002
  38:	00040000 			@ <UNDEFINED> instruction: 00040000
	...
  44:	00000018 			@ <UNDEFINED> instruction: 00000018
  48:	00000000 			@ <UNDEFINED> instruction: 00000000
  4c:	00000010 			@ <UNDEFINED> instruction: 00000010
  50:	00000000 			@ <UNDEFINED> instruction: 00000000
  54:	00000010 			@ <UNDEFINED> instruction: 00000010
  58:	0800036c 			@ <UNDEFINED> instruction: 0800036c
  5c:	0000001c 			@ <UNDEFINED> instruction: 0000001c
  60:	00000000 			@ <UNDEFINED> instruction: 00000000
  64:	0000000e 			@ <UNDEFINED> instruction: 0000000e
  68:	08000388 			@ <UNDEFINED> instruction: 08000388
  6c:	00000018 			@ <UNDEFINED> instruction: 00000018
  70:	080003a0 			@ <UNDEFINED> instruction: 080003a0
  74:	0000000e 			@ <UNDEFINED> instruction: 0000000e
  78:	00000000 			@ <UNDEFINED> instruction: 00000000
  7c:	00000012 			@ <UNDEFINED> instruction: 00000012
  80:	080003b0 			@ <UNDEFINED> instruction: 080003b0
  84:	00000020 			@ <UNDEFINED> instruction: 00000020
  88:	080003d4 			@ <UNDEFINED> instruction: 080003d4
  8c:	00000020 			@ <UNDEFINED> instruction: 00000020
  90:	00000000 			@ <UNDEFINED> instruction: 00000000
  94:	00000180 			@ <UNDEFINED> instruction: 00000180
  98:	080003f4 			@ <UNDEFINED> instruction: 080003f4
  9c:	0000010c 			@ <UNDEFINED> instruction: 0000010c
  a0:	00000000 			@ <UNDEFINED> instruction: 00000000
  a4:	00000020 			@ <UNDEFINED> instruction: 00000020
  a8:	00000000 			@ <UNDEFINED> instruction: 00000000
  ac:	00000014 			@ <UNDEFINED> instruction: 00000014
  b0:	00000000 			@ <UNDEFINED> instruction: 00000000
  b4:	00000022 			@ <UNDEFINED> instruction: 00000022
  b8:	00000000 			@ <UNDEFINED> instruction: 00000000
  bc:	00000040 			@ <UNDEFINED> instruction: 00000040
  c0:	00000000 			@ <UNDEFINED> instruction: 00000000
  c4:	00000048 			@ <UNDEFINED> instruction: 00000048
  c8:	00000000 			@ <UNDEFINED> instruction: 00000000
  cc:	000000a0 			@ <UNDEFINED> instruction: 000000a0
  d0:	08000500 			@ <UNDEFINED> instruction: 08000500
  d4:	0000002a 			@ <UNDEFINED> instruction: 0000002a
	...
  e0:	000000a4 			@ <UNDEFINED> instruction: 000000a4
  e4:	09640002 			@ <UNDEFINED> instruction: 09640002
  e8:	00040000 			@ <UNDEFINED> instruction: 00040000
	...
  f4:	0000004c 			@ <UNDEFINED> instruction: 0000004c
  f8:	00000000 			@ <UNDEFINED> instruction: 00000000
  fc:	0000002e 			@ <UNDEFINED> instruction: 0000002e
 100:	08000530 			@ <UNDEFINED> instruction: 08000530
 104:	0000002e 			@ <UNDEFINED> instruction: 0000002e
 108:	0800055e 			@ <UNDEFINED> instruction: 0800055e
 10c:	00000040 			@ <UNDEFINED> instruction: 00000040
 110:	00000000 			@ <UNDEFINED> instruction: 00000000
 114:	0000002e 			@ <UNDEFINED> instruction: 0000002e
 118:	00000000 			@ <UNDEFINED> instruction: 00000000
 11c:	0000000e 			@ <UNDEFINED> instruction: 0000000e
 120:	00000000 			@ <UNDEFINED> instruction: 00000000
 124:	0000003c 			@ <UNDEFINED> instruction: 0000003c
 128:	00000000 			@ <UNDEFINED> instruction: 00000000
 12c:	00000028 			@ <UNDEFINED> instruction: 00000028
 130:	00000000 			@ <UNDEFINED> instruction: 00000000
 134:	0000003c 			@ <UNDEFINED> instruction: 0000003c
 138:	00000000 			@ <UNDEFINED> instruction: 00000000
 13c:	00000026 			@ <UNDEFINED> instruction: 00000026
 140:	00000000 			@ <UNDEFINED> instruction: 00000000
 144:	00000026 			@ <UNDEFINED> instruction: 00000026
 148:	00000000 			@ <UNDEFINED> instruction: 00000000
 14c:	00000042 			@ <UNDEFINED> instruction: 00000042
 150:	00000000 			@ <UNDEFINED> instruction: 00000000
 154:	00000016 			@ <UNDEFINED> instruction: 00000016
 158:	00000000 			@ <UNDEFINED> instruction: 00000000
 15c:	000000b2 			@ <UNDEFINED> instruction: 000000b2
 160:	0800059e 			@ <UNDEFINED> instruction: 0800059e
 164:	00000030 			@ <UNDEFINED> instruction: 00000030
 168:	080005ce 			@ <UNDEFINED> instruction: 080005ce
 16c:	00000032 			@ <UNDEFINED> instruction: 00000032
 170:	08000600 			@ <UNDEFINED> instruction: 08000600
 174:	00000032 			@ <UNDEFINED> instruction: 00000032
 178:	08000632 			@ <UNDEFINED> instruction: 08000632
 17c:	00000032 			@ <UNDEFINED> instruction: 00000032
	...
 188:	00000024 			@ <UNDEFINED> instruction: 00000024
 18c:	0d4f0002 			@ <UNDEFINED> instruction: 0d4f0002
 190:	00040000 			@ <UNDEFINED> instruction: 00040000
 194:	00000000 			@ <UNDEFINED> instruction: 00000000
 198:	08000664 			@ <UNDEFINED> instruction: 08000664
 19c:	00000050 			@ <UNDEFINED> instruction: 00000050
 1a0:	080006b4 			@ <UNDEFINED> instruction: 080006b4
 1a4:	00000002 			@ <UNDEFINED> instruction: 00000002
	...

Disassembly of section .debug_rnglists:

00000000 <.debug_rnglists>:
   0:	0000001b 			@ <UNDEFINED> instruction: 0000001b
   4:	00040005 			@ <UNDEFINED> instruction: 00040005
   8:	00000000 			@ <UNDEFINED> instruction: 00000000
   c:	00000007 			@ <UNDEFINED> instruction: 00000007
  10:	00074000 			@ <UNDEFINED> instruction: 00074000
  14:	40000000 			@ <UNDEFINED> instruction: 40000000
  18:	00033807 			@ <UNDEFINED> instruction: 00033807
  1c:	7e003408 			@ <UNDEFINED> instruction: 7e003408
  20:	05000000 			@ <UNDEFINED> instruction: 05000000
  24:	00000400 			@ <UNDEFINED> instruction: 00000400
  28:	07000000 			@ <UNDEFINED> instruction: 07000000
  2c:	00000000 			@ <UNDEFINED> instruction: 00000000
  30:	00000718 			@ <UNDEFINED> instruction: 00000718
  34:	07100000 			@ <UNDEFINED> instruction: 07100000
  38:	00000000 			@ <UNDEFINED> instruction: 00000000
  3c:	036c0710 			@ <UNDEFINED> instruction: 036c0710
  40:	071c0800 			@ <UNDEFINED> instruction: 071c0800
  44:	00000000 			@ <UNDEFINED> instruction: 00000000
  48:	0388070e 			@ <UNDEFINED> instruction: 0388070e
  4c:	07180800 			@ <UNDEFINED> instruction: 07180800
  50:	080003a0 			@ <UNDEFINED> instruction: 080003a0
  54:	0000070e 			@ <UNDEFINED> instruction: 0000070e
  58:	07120000 			@ <UNDEFINED> instruction: 07120000
  5c:	080003b0 			@ <UNDEFINED> instruction: 080003b0
  60:	03d40720 			@ <UNDEFINED> instruction: 03d40720
  64:	07200800 			@ <UNDEFINED> instruction: 07200800
  68:	00000000 			@ <UNDEFINED> instruction: 00000000
  6c:	f4070380 	vst2.32	{d0-d3}, [r7], r0
  70:	8c080003 			@ <UNDEFINED> instruction: 8c080003
  74:	00000702 			@ <UNDEFINED> instruction: 00000702
  78:	07200000 			@ <UNDEFINED> instruction: 07200000
  7c:	00000000 			@ <UNDEFINED> instruction: 00000000
  80:	00000714 			@ <UNDEFINED> instruction: 00000714
  84:	07220000 			@ <UNDEFINED> instruction: 07220000
  88:	00000000 			@ <UNDEFINED> instruction: 00000000
  8c:	00000740 			@ <UNDEFINED> instruction: 00000740
  90:	07480000 			@ <UNDEFINED> instruction: 07480000
  94:	00000000 			@ <UNDEFINED> instruction: 00000000
  98:	000701a0 			@ <UNDEFINED> instruction: 000701a0
  9c:	2a080005 			@ <UNDEFINED> instruction: 2a080005
  a0:	00007600 			@ <UNDEFINED> instruction: 00007600
  a4:	04000500 			@ <UNDEFINED> instruction: 04000500
  a8:	00000000 			@ <UNDEFINED> instruction: 00000000
  ac:	00000700 			@ <UNDEFINED> instruction: 00000700
  b0:	074c0000 			@ <UNDEFINED> instruction: 074c0000
  b4:	00000000 			@ <UNDEFINED> instruction: 00000000
  b8:	0530072e 			@ <UNDEFINED> instruction: 0530072e
  bc:	072e0800 			@ <UNDEFINED> instruction: 072e0800
  c0:	0800055e 			@ <UNDEFINED> instruction: 0800055e
  c4:	00000740 			@ <UNDEFINED> instruction: 00000740
  c8:	072e0000 			@ <UNDEFINED> instruction: 072e0000
  cc:	00000000 			@ <UNDEFINED> instruction: 00000000
  d0:	0000070e 			@ <UNDEFINED> instruction: 0000070e
  d4:	073c0000 			@ <UNDEFINED> instruction: 073c0000
  d8:	00000000 			@ <UNDEFINED> instruction: 00000000
  dc:	00000728 			@ <UNDEFINED> instruction: 00000728
  e0:	073c0000 			@ <UNDEFINED> instruction: 073c0000
  e4:	00000000 			@ <UNDEFINED> instruction: 00000000
  e8:	00000726 			@ <UNDEFINED> instruction: 00000726
  ec:	07260000 			@ <UNDEFINED> instruction: 07260000
  f0:	00000000 			@ <UNDEFINED> instruction: 00000000
  f4:	00000742 			@ <UNDEFINED> instruction: 00000742
  f8:	07160000 			@ <UNDEFINED> instruction: 07160000
  fc:	00000000 			@ <UNDEFINED> instruction: 00000000
 100:	9e0701b2 			@ <UNDEFINED> instruction: 9e0701b2
 104:	30080005 			@ <UNDEFINED> instruction: 30080005
 108:	0005ce07 			@ <UNDEFINED> instruction: 0005ce07
 10c:	00073208 			@ <UNDEFINED> instruction: 00073208
 110:	32080006 			@ <UNDEFINED> instruction: 32080006
 114:	00063207 			@ <UNDEFINED> instruction: 00063207
 118:	15003208 			@ <UNDEFINED> instruction: 15003208
 11c:	05000000 			@ <UNDEFINED> instruction: 05000000
 120:	00000400 			@ <UNDEFINED> instruction: 00000400
 124:	07000000 			@ <UNDEFINED> instruction: 07000000
 128:	08000664 			@ <UNDEFINED> instruction: 08000664
 12c:	06b40750 	ssateq	r0, #21, r0, asr #14
 130:	00020800 			@ <UNDEFINED> instruction: 00020800

Disassembly of section .debug_macro:

00000000 <.debug_macro>:
       0:	00020005 			@ <UNDEFINED> instruction: 00020005
       4:	07000000 			@ <UNDEFINED> instruction: 07000000
       8:	000000df 	ldrdeq	r0, [r0], -pc	@ <UNPREDICTABLE>
       c:	03010003 	movweq	r0, #4099	@ 0x1003
      10:	b1070813 			@ <UNDEFINED> instruction: b1070813
      14:	0400000b 			@ <UNDEFINED> instruction: 0400000b
      18:	03091403 	movweq	r1, #37891	@ 0x9403
      1c:	0a050a09 			@ <UNDEFINED> instruction: 0a050a09
      20:	00000488 			@ <UNDEFINED> instruction: 00000488
      24:	05020c03 			@ <UNDEFINED> instruction: 05020c03
      28:	002ff506 			@ <UNDEFINED> instruction: 002ff506
      2c:	0b080300 			@ <UNDEFINED> instruction: 0b080300
      30:	153e1605 			@ <UNDEFINED> instruction: 153e1605
      34:	1c030000 			@ <UNDEFINED> instruction: 1c030000
      38:	0d56070c 			@ <UNDEFINED> instruction: 0d56070c
      3c:	07040000 			@ <UNDEFINED> instruction: 07040000
      40:	00000d78 			@ <UNDEFINED> instruction: 00000d78
      44:	0e060704 			@ <UNDEFINED> instruction: 0e060704
      48:	03040000 	movweq	r0, #16384	@ 0x4000
      4c:	57070d0d 			@ <UNDEFINED> instruction: 57070d0d
      50:	0400000e 			@ <UNDEFINED> instruction: 0400000e
      54:	07030e03 			@ <UNDEFINED> instruction: 07030e03
      58:	00000f5a 			@ <UNDEFINED> instruction: 00000f5a
      5c:	0fc40704 			@ <UNDEFINED> instruction: 0fc40704
      60:	05040000 			@ <UNDEFINED> instruction: 05040000
      64:	00047f0d 			@ <UNDEFINED> instruction: 00047f0d
      68:	15030400 			@ <UNDEFINED> instruction: 15030400
      6c:	11a3070e 			@ <UNDEFINED> instruction: 11a3070e
      70:	03040000 	movweq	r0, #16384	@ 0x4000
      74:	02050f16 			@ <UNDEFINED> instruction: 02050f16
      78:	00001161 			@ <UNDEFINED> instruction: 00001161
      7c:	06170304 			@ <UNDEFINED> instruction: 06170304
      80:	28bc0205 			@ <UNDEFINED> instruction: 28bc0205
      84:	09030000 			@ <UNDEFINED> instruction: 09030000
      88:	12020505 			@ <UNDEFINED> instruction: 12020505
      8c:	03000014 	movweq	r0, #20
      90:	fb070405 	blx	1c10ae <_Min_Stack_Size+0x1c0cae>
      94:	04000011 			@ <UNDEFINED> instruction: 04000011
      98:	00121107 			@ <UNDEFINED> instruction: 00121107
      9c:	51070400 			@ <UNDEFINED> instruction: 51070400
      a0:	04000012 			@ <UNDEFINED> instruction: 04000012
      a4:	05071803 			@ <UNDEFINED> instruction: 05071803
      a8:	00393a02 			@ <UNDEFINED> instruction: 00393a02
      ac:	08050300 			@ <UNDEFINED> instruction: 08050300
      b0:	10060304 			@ <UNDEFINED> instruction: 10060304
      b4:	00126107 			@ <UNDEFINED> instruction: 00126107
      b8:	71070400 			@ <UNDEFINED> instruction: 71070400
      bc:	04000012 			@ <UNDEFINED> instruction: 04000012
      c0:	04051903 			@ <UNDEFINED> instruction: 04051903
      c4:	05111a03 			@ <UNDEFINED> instruction: 05111a03
      c8:	00495702 			@ <UNDEFINED> instruction: 00495702
      cc:	12060300 			@ <UNDEFINED> instruction: 12060300
      d0:	400e0205 			@ <UNDEFINED> instruction: 400e0205
      d4:	07040000 			@ <UNDEFINED> instruction: 07040000
      d8:	000012ab 			@ <UNDEFINED> instruction: 000012ab
      dc:	05000404 			@ <UNDEFINED> instruction: 05000404
      e0:	00050000 			@ <UNDEFINED> instruction: 00050000
      e4:	00004194 			@ <UNDEFINED> instruction: 00004194
      e8:	24090005 			@ <UNDEFINED> instruction: 24090005
      ec:	00050000 			@ <UNDEFINED> instruction: 00050000
      f0:	00002cb9 			@ <UNDEFINED> instruction: 00002cb9
      f4:	13140005 			@ <UNDEFINED> instruction: 13140005
      f8:	00050000 			@ <UNDEFINED> instruction: 00050000
      fc:	00004154 			@ <UNDEFINED> instruction: 00004154
     100:	253e0005 			@ <UNDEFINED> instruction: 253e0005
     104:	00050000 			@ <UNDEFINED> instruction: 00050000
     108:	00003a31 			@ <UNDEFINED> instruction: 00003a31
     10c:	3ed40005 			@ <UNDEFINED> instruction: 3ed40005
     110:	00050000 			@ <UNDEFINED> instruction: 00050000
     114:	0000015f 			@ <UNDEFINED> instruction: 0000015f
     118:	3e3a0005 			@ <UNDEFINED> instruction: 3e3a0005
     11c:	00050000 			@ <UNDEFINED> instruction: 00050000
     120:	000013e3 			@ <UNDEFINED> instruction: 000013e3
     124:	1e500005 			@ <UNDEFINED> instruction: 1e500005
     128:	00050000 			@ <UNDEFINED> instruction: 00050000
     12c:	0000236e 			@ <UNDEFINED> instruction: 0000236e
     130:	48aa0005 			@ <UNDEFINED> instruction: 48aa0005
     134:	00050000 			@ <UNDEFINED> instruction: 00050000
     138:	000002f7 	strdeq	r0, [r0], -r7
     13c:	24500005 			@ <UNDEFINED> instruction: 24500005
     140:	00050000 			@ <UNDEFINED> instruction: 00050000
     144:	00000338 			@ <UNDEFINED> instruction: 00000338
     148:	10770005 			@ <UNDEFINED> instruction: 10770005
     14c:	00050000 			@ <UNDEFINED> instruction: 00050000
     150:	00000353 			@ <UNDEFINED> instruction: 00000353
     154:	14b40005 			@ <UNDEFINED> instruction: 14b40005
     158:	00050000 			@ <UNDEFINED> instruction: 00050000
     15c:	00001326 			@ <UNDEFINED> instruction: 00001326
     160:	10890005 			@ <UNDEFINED> instruction: 10890005
     164:	00050000 			@ <UNDEFINED> instruction: 00050000
     168:	0000154f 			@ <UNDEFINED> instruction: 0000154f
     16c:	3cdb0005 			@ <UNDEFINED> instruction: 3cdb0005
     170:	00050000 			@ <UNDEFINED> instruction: 00050000
     174:	00002c4f 			@ <UNDEFINED> instruction: 00002c4f
     178:	30100005 			@ <UNDEFINED> instruction: 30100005
     17c:	00050000 			@ <UNDEFINED> instruction: 00050000
     180:	0000344e 			@ <UNDEFINED> instruction: 0000344e
     184:	09d90005 			@ <UNDEFINED> instruction: 09d90005
     188:	00050000 			@ <UNDEFINED> instruction: 00050000
     18c:	0000044a 			@ <UNDEFINED> instruction: 0000044a
     190:	29e20005 			@ <UNDEFINED> instruction: 29e20005
     194:	00050000 			@ <UNDEFINED> instruction: 00050000
     198:	00002dcb 			@ <UNDEFINED> instruction: 00002dcb
     19c:	0e610005 			@ <UNDEFINED> instruction: 0e610005
     1a0:	00050000 			@ <UNDEFINED> instruction: 00050000
     1a4:	0000112b 			@ <UNDEFINED> instruction: 0000112b
     1a8:	0f6f0005 			@ <UNDEFINED> instruction: 0f6f0005
     1ac:	00050000 			@ <UNDEFINED> instruction: 00050000
     1b0:	00000464 			@ <UNDEFINED> instruction: 00000464
     1b4:	18b30005 			@ <UNDEFINED> instruction: 18b30005
     1b8:	00050000 			@ <UNDEFINED> instruction: 00050000
     1bc:	00001584 			@ <UNDEFINED> instruction: 00001584
     1c0:	2cfa0005 			@ <UNDEFINED> instruction: 2cfa0005
     1c4:	00050000 			@ <UNDEFINED> instruction: 00050000
     1c8:	00003a87 			@ <UNDEFINED> instruction: 00003a87
     1cc:	2c140005 			@ <UNDEFINED> instruction: 2c140005
     1d0:	00050000 			@ <UNDEFINED> instruction: 00050000
     1d4:	0000085b 			@ <UNDEFINED> instruction: 0000085b
     1d8:	367a0005 			@ <UNDEFINED> instruction: 367a0005
     1dc:	00050000 			@ <UNDEFINED> instruction: 00050000
     1e0:	00000fc3 			@ <UNDEFINED> instruction: 00000fc3
     1e4:	07780005 			@ <UNDEFINED> instruction: 07780005
     1e8:	00050000 			@ <UNDEFINED> instruction: 00050000
     1ec:	000004b9 			@ <UNDEFINED> instruction: 000004b9
     1f0:	058b0005 			@ <UNDEFINED> instruction: 058b0005
     1f4:	00050000 			@ <UNDEFINED> instruction: 00050000
     1f8:	00003850 			@ <UNDEFINED> instruction: 00003850
     1fc:	28700005 			@ <UNDEFINED> instruction: 28700005
     200:	00050000 			@ <UNDEFINED> instruction: 00050000
     204:	00002145 			@ <UNDEFINED> instruction: 00002145
     208:	20480005 			@ <UNDEFINED> instruction: 20480005
     20c:	00050000 			@ <UNDEFINED> instruction: 00050000
     210:	00001021 			@ <UNDEFINED> instruction: 00001021
     214:	3d180005 			@ <UNDEFINED> instruction: 3d180005
     218:	00050000 			@ <UNDEFINED> instruction: 00050000
     21c:	000048bd 			@ <UNDEFINED> instruction: 000048bd
     220:	465d0005 			@ <UNDEFINED> instruction: 465d0005
     224:	00050000 			@ <UNDEFINED> instruction: 00050000
     228:	0000334c 			@ <UNDEFINED> instruction: 0000334c
     22c:	4a150005 			@ <UNDEFINED> instruction: 4a150005
     230:	00050000 			@ <UNDEFINED> instruction: 00050000
     234:	00002e1e 			@ <UNDEFINED> instruction: 00002e1e
     238:	36150005 			@ <UNDEFINED> instruction: 36150005
     23c:	00050000 			@ <UNDEFINED> instruction: 00050000
     240:	00003a42 			@ <UNDEFINED> instruction: 00003a42
     244:	22850005 			@ <UNDEFINED> instruction: 22850005
     248:	00050000 			@ <UNDEFINED> instruction: 00050000
     24c:	00000dfd 	strdeq	r0, [r0], -sp
     250:	35a40005 			@ <UNDEFINED> instruction: 35a40005
     254:	00050000 			@ <UNDEFINED> instruction: 00050000
     258:	00002e94 			@ <UNDEFINED> instruction: 00002e94
     25c:	079d0005 			@ <UNDEFINED> instruction: 079d0005
     260:	00050000 			@ <UNDEFINED> instruction: 00050000
     264:	000020cc 			@ <UNDEFINED> instruction: 000020cc
     268:	44fe0005 			@ <UNDEFINED> instruction: 44fe0005
     26c:	00050000 			@ <UNDEFINED> instruction: 00050000
     270:	000012e1 			@ <UNDEFINED> instruction: 000012e1
     274:	160e0005 			@ <UNDEFINED> instruction: 160e0005
     278:	00050000 			@ <UNDEFINED> instruction: 00050000
     27c:	00003c10 			@ <UNDEFINED> instruction: 00003c10
     280:	3c240005 			@ <UNDEFINED> instruction: 3c240005
     284:	00050000 			@ <UNDEFINED> instruction: 00050000
     288:	000007bf 			@ <UNDEFINED> instruction: 000007bf
     28c:	2c890005 			@ <UNDEFINED> instruction: 2c890005
     290:	00050000 			@ <UNDEFINED> instruction: 00050000
     294:	00001457 			@ <UNDEFINED> instruction: 00001457
     298:	49fe0005 			@ <UNDEFINED> instruction: 49fe0005
     29c:	00050000 			@ <UNDEFINED> instruction: 00050000
     2a0:	00003d73 			@ <UNDEFINED> instruction: 00003d73
     2a4:	30f80005 			@ <UNDEFINED> instruction: 30f80005
     2a8:	00050000 			@ <UNDEFINED> instruction: 00050000
     2ac:	0000031e 			@ <UNDEFINED> instruction: 0000031e
     2b0:	259c0005 			@ <UNDEFINED> instruction: 259c0005
     2b4:	00050000 			@ <UNDEFINED> instruction: 00050000
     2b8:	0000461f 			@ <UNDEFINED> instruction: 0000461f
     2bc:	45ee0005 			@ <UNDEFINED> instruction: 45ee0005
     2c0:	00050000 			@ <UNDEFINED> instruction: 00050000
     2c4:	00000229 			@ <UNDEFINED> instruction: 00000229
     2c8:	47770005 			@ <UNDEFINED> instruction: 47770005
     2cc:	00050000 			@ <UNDEFINED> instruction: 00050000
     2d0:	00000afe 	strdeq	r0, [r0], -lr
     2d4:	2e410005 			@ <UNDEFINED> instruction: 2e410005
     2d8:	00050000 			@ <UNDEFINED> instruction: 00050000
     2dc:	00003fe6 			@ <UNDEFINED> instruction: 00003fe6
     2e0:	254f0005 			@ <UNDEFINED> instruction: 254f0005
     2e4:	00050000 			@ <UNDEFINED> instruction: 00050000
     2e8:	000026ed 			@ <UNDEFINED> instruction: 000026ed
     2ec:	48400005 			@ <UNDEFINED> instruction: 48400005
     2f0:	00050000 			@ <UNDEFINED> instruction: 00050000
     2f4:	000043c8 			@ <UNDEFINED> instruction: 000043c8
     2f8:	0a6f0005 			@ <UNDEFINED> instruction: 0a6f0005
     2fc:	00050000 			@ <UNDEFINED> instruction: 00050000
     300:	00004590 			@ <UNDEFINED> instruction: 00004590
     304:	02860005 			@ <UNDEFINED> instruction: 02860005
     308:	00050000 			@ <UNDEFINED> instruction: 00050000
     30c:	00000119 			@ <UNDEFINED> instruction: 00000119
     310:	49840005 			@ <UNDEFINED> instruction: 49840005
     314:	00050000 			@ <UNDEFINED> instruction: 00050000
     318:	00000e49 			@ <UNDEFINED> instruction: 00000e49
     31c:	040e0005 			@ <UNDEFINED> instruction: 040e0005
     320:	00050000 			@ <UNDEFINED> instruction: 00050000
     324:	00003e79 			@ <UNDEFINED> instruction: 00003e79
     328:	1a700005 			@ <UNDEFINED> instruction: 1a700005
     32c:	00050000 			@ <UNDEFINED> instruction: 00050000
     330:	000040ab 			@ <UNDEFINED> instruction: 000040ab
     334:	1f7e0005 			@ <UNDEFINED> instruction: 1f7e0005
     338:	00050000 			@ <UNDEFINED> instruction: 00050000
     33c:	00003fac 			@ <UNDEFINED> instruction: 00003fac
     340:	212b0005 			@ <UNDEFINED> instruction: 212b0005
     344:	00050000 			@ <UNDEFINED> instruction: 00050000
     348:	0000249f 			@ <UNDEFINED> instruction: 0000249f
     34c:	16f60005 			@ <UNDEFINED> instruction: 16f60005
     350:	00050000 			@ <UNDEFINED> instruction: 00050000
     354:	00001431 			@ <UNDEFINED> instruction: 00001431
     358:	1d5b0005 			@ <UNDEFINED> instruction: 1d5b0005
     35c:	00050000 			@ <UNDEFINED> instruction: 00050000
     360:	00001d36 			@ <UNDEFINED> instruction: 00001d36
     364:	1e050005 			@ <UNDEFINED> instruction: 1e050005
     368:	00050000 			@ <UNDEFINED> instruction: 00050000
     36c:	00003187 			@ <UNDEFINED> instruction: 00003187
     370:	46380005 			@ <UNDEFINED> instruction: 46380005
     374:	00050000 			@ <UNDEFINED> instruction: 00050000
     378:	0000179b 			@ <UNDEFINED> instruction: 0000179b
     37c:	48530005 			@ <UNDEFINED> instruction: 48530005
     380:	00050000 			@ <UNDEFINED> instruction: 00050000
     384:	00001b54 			@ <UNDEFINED> instruction: 00001b54
     388:	296e0005 			@ <UNDEFINED> instruction: 296e0005
     38c:	00050000 			@ <UNDEFINED> instruction: 00050000
     390:	000009b5 			@ <UNDEFINED> instruction: 000009b5
     394:	109d0005 			@ <UNDEFINED> instruction: 109d0005
     398:	00050000 			@ <UNDEFINED> instruction: 00050000
     39c:	00002183 			@ <UNDEFINED> instruction: 00002183
     3a0:	3d3f0005 			@ <UNDEFINED> instruction: 3d3f0005
     3a4:	00050000 			@ <UNDEFINED> instruction: 00050000
     3a8:	00001f30 			@ <UNDEFINED> instruction: 00001f30
     3ac:	1a9d0005 			@ <UNDEFINED> instruction: 1a9d0005
     3b0:	00050000 			@ <UNDEFINED> instruction: 00050000
     3b4:	0000057c 			@ <UNDEFINED> instruction: 0000057c
     3b8:	12550005 			@ <UNDEFINED> instruction: 12550005
     3bc:	00050000 			@ <UNDEFINED> instruction: 00050000
     3c0:	00003dde 	ldrdeq	r3, [r0], -lr
     3c4:	1ebe0005 			@ <UNDEFINED> instruction: 1ebe0005
     3c8:	00050000 			@ <UNDEFINED> instruction: 00050000
     3cc:	00001817 			@ <UNDEFINED> instruction: 00001817
     3d0:	336a0005 			@ <UNDEFINED> instruction: 336a0005
     3d4:	00050000 			@ <UNDEFINED> instruction: 00050000
     3d8:	0000226e 			@ <UNDEFINED> instruction: 0000226e
     3dc:	41db0005 			@ <UNDEFINED> instruction: 41db0005
     3e0:	00050000 			@ <UNDEFINED> instruction: 00050000
     3e4:	00002ca2 			@ <UNDEFINED> instruction: 00002ca2
     3e8:	36e00005 			@ <UNDEFINED> instruction: 36e00005
     3ec:	00050000 			@ <UNDEFINED> instruction: 00050000
     3f0:	00000b10 			@ <UNDEFINED> instruction: 00000b10
     3f4:	13c50005 			@ <UNDEFINED> instruction: 13c50005
     3f8:	00050000 			@ <UNDEFINED> instruction: 00050000
     3fc:	000012b3 			@ <UNDEFINED> instruction: 000012b3
     400:	0d280005 			@ <UNDEFINED> instruction: 0d280005
     404:	00050000 			@ <UNDEFINED> instruction: 00050000
     408:	0000093b 			@ <UNDEFINED> instruction: 0000093b
     40c:	0a840005 			@ <UNDEFINED> instruction: 0a840005
     410:	00050000 			@ <UNDEFINED> instruction: 00050000
     414:	00000b97 			@ <UNDEFINED> instruction: 00000b97
     418:	10430005 			@ <UNDEFINED> instruction: 10430005
     41c:	00050000 			@ <UNDEFINED> instruction: 00050000
     420:	0000272f 			@ <UNDEFINED> instruction: 0000272f
     424:	0b500005 			@ <UNDEFINED> instruction: 0b500005
     428:	00050000 			@ <UNDEFINED> instruction: 00050000
     42c:	00002770 			@ <UNDEFINED> instruction: 00002770
     430:	1b380005 			@ <UNDEFINED> instruction: 1b380005
     434:	00050000 			@ <UNDEFINED> instruction: 00050000
     438:	0000139b 			@ <UNDEFINED> instruction: 0000139b
     43c:	1fed0005 			@ <UNDEFINED> instruction: 1fed0005
     440:	00050000 			@ <UNDEFINED> instruction: 00050000
     444:	00002c73 			@ <UNDEFINED> instruction: 00002c73
     448:	208e0005 			@ <UNDEFINED> instruction: 208e0005
     44c:	00050000 			@ <UNDEFINED> instruction: 00050000
     450:	00001b6d 			@ <UNDEFINED> instruction: 00001b6d
     454:	26450005 			@ <UNDEFINED> instruction: 26450005
     458:	00050000 			@ <UNDEFINED> instruction: 00050000
     45c:	000023a5 			@ <UNDEFINED> instruction: 000023a5
     460:	12a50005 			@ <UNDEFINED> instruction: 12a50005
     464:	00050000 			@ <UNDEFINED> instruction: 00050000
     468:	00002846 			@ <UNDEFINED> instruction: 00002846
     46c:	34bc0005 			@ <UNDEFINED> instruction: 34bc0005
     470:	00050000 			@ <UNDEFINED> instruction: 00050000
     474:	00001063 			@ <UNDEFINED> instruction: 00001063
     478:	136b0005 			@ <UNDEFINED> instruction: 136b0005
     47c:	00050000 			@ <UNDEFINED> instruction: 00050000
     480:	00001168 			@ <UNDEFINED> instruction: 00001168
     484:	420f0005 			@ <UNDEFINED> instruction: 420f0005
     488:	00050000 			@ <UNDEFINED> instruction: 00050000
     48c:	0000346b 			@ <UNDEFINED> instruction: 0000346b
     490:	163a0005 			@ <UNDEFINED> instruction: 163a0005
     494:	00050000 			@ <UNDEFINED> instruction: 00050000
     498:	00001856 			@ <UNDEFINED> instruction: 00001856
     49c:	17b60005 			@ <UNDEFINED> instruction: 17b60005
     4a0:	00050000 			@ <UNDEFINED> instruction: 00050000
     4a4:	0000467c 			@ <UNDEFINED> instruction: 0000467c
     4a8:	1f490005 			@ <UNDEFINED> instruction: 1f490005
     4ac:	00050000 			@ <UNDEFINED> instruction: 00050000
     4b0:	00002ec7 			@ <UNDEFINED> instruction: 00002ec7
     4b4:	39440005 			@ <UNDEFINED> instruction: 39440005
     4b8:	00050000 			@ <UNDEFINED> instruction: 00050000
     4bc:	000049aa 			@ <UNDEFINED> instruction: 000049aa
     4c0:	3c9e0005 			@ <UNDEFINED> instruction: 3c9e0005
     4c4:	00050000 			@ <UNDEFINED> instruction: 00050000
     4c8:	000031b3 			@ <UNDEFINED> instruction: 000031b3
     4cc:	13ab0005 			@ <UNDEFINED> instruction: 13ab0005
     4d0:	00050000 			@ <UNDEFINED> instruction: 00050000
     4d4:	0000234b 			@ <UNDEFINED> instruction: 0000234b
     4d8:	189c0005 			@ <UNDEFINED> instruction: 189c0005
     4dc:	00050000 			@ <UNDEFINED> instruction: 00050000
     4e0:	00003f66 			@ <UNDEFINED> instruction: 00003f66
     4e4:	46910005 			@ <UNDEFINED> instruction: 46910005
     4e8:	00050000 			@ <UNDEFINED> instruction: 00050000
     4ec:	00002a7f 			@ <UNDEFINED> instruction: 00002a7f
     4f0:	0d6a0005 			@ <UNDEFINED> instruction: 0d6a0005
     4f4:	00050000 			@ <UNDEFINED> instruction: 00050000
     4f8:	00001ee0 			@ <UNDEFINED> instruction: 00001ee0
     4fc:	2b090005 			@ <UNDEFINED> instruction: 2b090005
     500:	00050000 			@ <UNDEFINED> instruction: 00050000
     504:	00001734 			@ <UNDEFINED> instruction: 00001734
     508:	3e620005 			@ <UNDEFINED> instruction: 3e620005
     50c:	00050000 			@ <UNDEFINED> instruction: 00050000
     510:	00003b57 			@ <UNDEFINED> instruction: 00003b57
     514:	100a0005 			@ <UNDEFINED> instruction: 100a0005
     518:	00050000 			@ <UNDEFINED> instruction: 00050000
     51c:	00000567 			@ <UNDEFINED> instruction: 00000567
     520:	45660005 			@ <UNDEFINED> instruction: 45660005
     524:	00050000 			@ <UNDEFINED> instruction: 00050000
     528:	00000544 			@ <UNDEFINED> instruction: 00000544
     52c:	2eac0005 			@ <UNDEFINED> instruction: 2eac0005
     530:	00050000 			@ <UNDEFINED> instruction: 00050000
     534:	0000171e 			@ <UNDEFINED> instruction: 0000171e
     538:	2ad20005 			@ <UNDEFINED> instruction: 2ad20005
     53c:	00050000 			@ <UNDEFINED> instruction: 00050000
     540:	00000018 			@ <UNDEFINED> instruction: 00000018
     544:	419f0005 			@ <UNDEFINED> instruction: 419f0005
     548:	00050000 			@ <UNDEFINED> instruction: 00050000
     54c:	00002612 			@ <UNDEFINED> instruction: 00002612
     550:	2fca0005 			@ <UNDEFINED> instruction: 2fca0005
     554:	00050000 			@ <UNDEFINED> instruction: 00050000
     558:	000002d1 	ldrdeq	r0, [r0], -r1
     55c:	22d70005 			@ <UNDEFINED> instruction: 22d70005
     560:	00050000 			@ <UNDEFINED> instruction: 00050000
     564:	00002472 			@ <UNDEFINED> instruction: 00002472
     568:	32a90005 			@ <UNDEFINED> instruction: 32a90005
     56c:	00050000 			@ <UNDEFINED> instruction: 00050000
     570:	00002b59 			@ <UNDEFINED> instruction: 00002b59
     574:	26a70005 			@ <UNDEFINED> instruction: 26a70005
     578:	00050000 			@ <UNDEFINED> instruction: 00050000
     57c:	000034e9 			@ <UNDEFINED> instruction: 000034e9
     580:	21f10005 			@ <UNDEFINED> instruction: 21f10005
     584:	00050000 			@ <UNDEFINED> instruction: 00050000
     588:	0000322c 			@ <UNDEFINED> instruction: 0000322c
     58c:	08870005 			@ <UNDEFINED> instruction: 08870005
     590:	00050000 			@ <UNDEFINED> instruction: 00050000
     594:	00002f72 			@ <UNDEFINED> instruction: 00002f72
     598:	0efd0005 			@ <UNDEFINED> instruction: 0efd0005
     59c:	00050000 			@ <UNDEFINED> instruction: 00050000
     5a0:	00000828 			@ <UNDEFINED> instruction: 00000828
     5a4:	05120005 			@ <UNDEFINED> instruction: 05120005
     5a8:	00050000 			@ <UNDEFINED> instruction: 00050000
     5ac:	00003c76 			@ <UNDEFINED> instruction: 00003c76
     5b0:	492a0005 			@ <UNDEFINED> instruction: 492a0005
     5b4:	00050000 			@ <UNDEFINED> instruction: 00050000
     5b8:	000004d3 	ldrdeq	r0, [r0], -r3
     5bc:	2a090005 			@ <UNDEFINED> instruction: 2a090005
     5c0:	00050000 			@ <UNDEFINED> instruction: 00050000
     5c4:	00002207 			@ <UNDEFINED> instruction: 00002207
     5c8:	41f80005 			@ <UNDEFINED> instruction: 41f80005
     5cc:	00050000 			@ <UNDEFINED> instruction: 00050000
     5d0:	000046d4 	ldrdeq	r4, [r0], -r4	@ <UNPREDICTABLE>
     5d4:	19d30005 			@ <UNDEFINED> instruction: 19d30005
     5d8:	00050000 			@ <UNDEFINED> instruction: 00050000
     5dc:	00001676 			@ <UNDEFINED> instruction: 00001676
     5e0:	03820005 			@ <UNDEFINED> instruction: 03820005
     5e4:	00050000 			@ <UNDEFINED> instruction: 00050000
     5e8:	000045fe 	strdeq	r4, [r0], -lr
     5ec:	0a550005 			@ <UNDEFINED> instruction: 0a550005
     5f0:	00050000 			@ <UNDEFINED> instruction: 00050000
     5f4:	000008fc 	strdeq	r0, [r0], -ip
     5f8:	27ce0005 			@ <UNDEFINED> instruction: 27ce0005
     5fc:	00050000 			@ <UNDEFINED> instruction: 00050000
     600:	00000e30 			@ <UNDEFINED> instruction: 00000e30
     604:	02b80005 			@ <UNDEFINED> instruction: 02b80005
     608:	00050000 			@ <UNDEFINED> instruction: 00050000
     60c:	0000067c 			@ <UNDEFINED> instruction: 0000067c
     610:	428a0005 			@ <UNDEFINED> instruction: 428a0005
     614:	00050000 			@ <UNDEFINED> instruction: 00050000
     618:	00002808 			@ <UNDEFINED> instruction: 00002808
     61c:	40c30005 			@ <UNDEFINED> instruction: 40c30005
     620:	00050000 			@ <UNDEFINED> instruction: 00050000
     624:	0000012f 			@ <UNDEFINED> instruction: 0000012f
     628:	2be80005 			@ <UNDEFINED> instruction: 2be80005
     62c:	00050000 			@ <UNDEFINED> instruction: 00050000
     630:	000001bc 			@ <UNDEFINED> instruction: 000001bc
     634:	2b7a0005 			@ <UNDEFINED> instruction: 2b7a0005
     638:	00050000 			@ <UNDEFINED> instruction: 00050000
     63c:	000033c0 			@ <UNDEFINED> instruction: 000033c0
     640:	48290005 			@ <UNDEFINED> instruction: 48290005
     644:	00050000 			@ <UNDEFINED> instruction: 00050000
     648:	0000369d 			@ <UNDEFINED> instruction: 0000369d
     64c:	10c90005 			@ <UNDEFINED> instruction: 10c90005
     650:	00050000 			@ <UNDEFINED> instruction: 00050000
     654:	000039df 	ldrdeq	r3, [r0], -pc	@ <UNPREDICTABLE>
     658:	1ea60005 			@ <UNDEFINED> instruction: 1ea60005
     65c:	00050000 			@ <UNDEFINED> instruction: 00050000
     660:	00002017 			@ <UNDEFINED> instruction: 00002017
     664:	0d500005 			@ <UNDEFINED> instruction: 0d500005
     668:	00050000 			@ <UNDEFINED> instruction: 00050000
     66c:	000038f5 	strdeq	r3, [r0], -r5
     670:	2f380005 			@ <UNDEFINED> instruction: 2f380005
     674:	00050000 			@ <UNDEFINED> instruction: 00050000
     678:	000027a3 			@ <UNDEFINED> instruction: 000027a3
     67c:	0db40005 			@ <UNDEFINED> instruction: 0db40005
     680:	00050000 			@ <UNDEFINED> instruction: 00050000
     684:	00001339 			@ <UNDEFINED> instruction: 00001339
     688:	238d0005 			@ <UNDEFINED> instruction: 238d0005
     68c:	00050000 			@ <UNDEFINED> instruction: 00050000
     690:	00000c93 			@ <UNDEFINED> instruction: 00000c93
     694:	0d990005 			@ <UNDEFINED> instruction: 0d990005
     698:	00050000 			@ <UNDEFINED> instruction: 00050000
     69c:	00001b0b 			@ <UNDEFINED> instruction: 00001b0b
     6a0:	03fc0005 			@ <UNDEFINED> instruction: 03fc0005
     6a4:	00050000 			@ <UNDEFINED> instruction: 00050000
     6a8:	0000298e 			@ <UNDEFINED> instruction: 0000298e
     6ac:	1fc00005 			@ <UNDEFINED> instruction: 1fc00005
     6b0:	00050000 			@ <UNDEFINED> instruction: 00050000
     6b4:	00004810 			@ <UNDEFINED> instruction: 00004810
     6b8:	09900005 			@ <UNDEFINED> instruction: 09900005
     6bc:	00050000 			@ <UNDEFINED> instruction: 00050000
     6c0:	000022c4 			@ <UNDEFINED> instruction: 000022c4
     6c4:	16b60005 			@ <UNDEFINED> instruction: 16b60005
     6c8:	00050000 			@ <UNDEFINED> instruction: 00050000
     6cc:	000016d4 	ldrdeq	r1, [r0], -r4
     6d0:	08400005 			@ <UNDEFINED> instruction: 08400005
     6d4:	00050000 			@ <UNDEFINED> instruction: 00050000
     6d8:	00001b9a 			@ <UNDEFINED> instruction: 00001b9a
     6dc:	12020005 			@ <UNDEFINED> instruction: 12020005
     6e0:	00050000 			@ <UNDEFINED> instruction: 00050000
     6e4:	000033af 			@ <UNDEFINED> instruction: 000033af
     6e8:	03980005 			@ <UNDEFINED> instruction: 03980005
     6ec:	00050000 			@ <UNDEFINED> instruction: 00050000
     6f0:	00001381 			@ <UNDEFINED> instruction: 00001381
     6f4:	21100005 			@ <UNDEFINED> instruction: 21100005
     6f8:	00050000 			@ <UNDEFINED> instruction: 00050000
     6fc:	00002a5c 			@ <UNDEFINED> instruction: 00002a5c
     700:	31610005 			@ <UNDEFINED> instruction: 31610005
     704:	00050000 			@ <UNDEFINED> instruction: 00050000
     708:	00000c6a 			@ <UNDEFINED> instruction: 00000c6a
     70c:	29130005 			@ <UNDEFINED> instruction: 29130005
     710:	00050000 			@ <UNDEFINED> instruction: 00050000
     714:	0000257f 			@ <UNDEFINED> instruction: 0000257f
     718:	288d0005 			@ <UNDEFINED> instruction: 288d0005
     71c:	00050000 			@ <UNDEFINED> instruction: 00050000
     720:	00003195 			@ <UNDEFINED> instruction: 00003195
     724:	1f120005 			@ <UNDEFINED> instruction: 1f120005
     728:	00050000 			@ <UNDEFINED> instruction: 00050000
     72c:	00002d58 			@ <UNDEFINED> instruction: 00002d58
     730:	2eff0005 			@ <UNDEFINED> instruction: 2eff0005
     734:	00050000 			@ <UNDEFINED> instruction: 00050000
     738:	000008e8 			@ <UNDEFINED> instruction: 000008e8
     73c:	49be0005 			@ <UNDEFINED> instruction: 49be0005
     740:	00050000 			@ <UNDEFINED> instruction: 00050000
     744:	000037a3 			@ <UNDEFINED> instruction: 000037a3
     748:	35f30005 			@ <UNDEFINED> instruction: 35f30005
     74c:	00050000 			@ <UNDEFINED> instruction: 00050000
     750:	00003c42 			@ <UNDEFINED> instruction: 00003c42
     754:	46c00005 			@ <UNDEFINED> instruction: 46c00005
     758:	00050000 			@ <UNDEFINED> instruction: 00050000
     75c:	0000443a 			@ <UNDEFINED> instruction: 0000443a
     760:	44670005 			@ <UNDEFINED> instruction: 44670005
     764:	00050000 			@ <UNDEFINED> instruction: 00050000
     768:	00003bad 			@ <UNDEFINED> instruction: 00003bad
     76c:	47f10005 			@ <UNDEFINED> instruction: 47f10005
     770:	00050000 			@ <UNDEFINED> instruction: 00050000
     774:	00000763 			@ <UNDEFINED> instruction: 00000763
     778:	24db0005 			@ <UNDEFINED> instruction: 24db0005
     77c:	00050000 			@ <UNDEFINED> instruction: 00050000
     780:	000043da 	ldrdeq	r4, [r0], -sl
     784:	0f2e0005 			@ <UNDEFINED> instruction: 0f2e0005
     788:	00050000 			@ <UNDEFINED> instruction: 00050000
     78c:	0000408a 			@ <UNDEFINED> instruction: 0000408a
     790:	32df0005 			@ <UNDEFINED> instruction: 32df0005
     794:	00050000 			@ <UNDEFINED> instruction: 00050000
     798:	00003576 			@ <UNDEFINED> instruction: 00003576
     79c:	35d10005 			@ <UNDEFINED> instruction: 35d10005
     7a0:	00050000 			@ <UNDEFINED> instruction: 00050000
     7a4:	00003146 			@ <UNDEFINED> instruction: 00003146
     7a8:	44980005 			@ <UNDEFINED> instruction: 44980005
     7ac:	00050000 			@ <UNDEFINED> instruction: 00050000
     7b0:	00001971 			@ <UNDEFINED> instruction: 00001971
     7b4:	2bae0005 			@ <UNDEFINED> instruction: 2bae0005
     7b8:	00050000 			@ <UNDEFINED> instruction: 00050000
     7bc:	000004fb 	strdeq	r0, [r0], -fp
     7c0:	03df0005 			@ <UNDEFINED> instruction: 03df0005
     7c4:	00050000 			@ <UNDEFINED> instruction: 00050000
     7c8:	00003b39 			@ <UNDEFINED> instruction: 00003b39
     7cc:	0ced0005 			@ <UNDEFINED> instruction: 0ced0005
     7d0:	00050000 			@ <UNDEFINED> instruction: 00050000
     7d4:	00003d9e 			@ <UNDEFINED> instruction: 00003d9e
     7d8:	33160005 			@ <UNDEFINED> instruction: 33160005
     7dc:	00050000 			@ <UNDEFINED> instruction: 00050000
     7e0:	00001f60 			@ <UNDEFINED> instruction: 00001f60
     7e4:	452c0005 			@ <UNDEFINED> instruction: 452c0005
     7e8:	00050000 			@ <UNDEFINED> instruction: 00050000
     7ec:	0000256c 			@ <UNDEFINED> instruction: 0000256c
     7f0:	0cff0005 			@ <UNDEFINED> instruction: 0cff0005
     7f4:	00050000 			@ <UNDEFINED> instruction: 00050000
     7f8:	00001841 			@ <UNDEFINED> instruction: 00001841
     7fc:	2d250005 			@ <UNDEFINED> instruction: 2d250005
     800:	00050000 			@ <UNDEFINED> instruction: 00050000
     804:	000008a0 			@ <UNDEFINED> instruction: 000008a0
     808:	09650005 			@ <UNDEFINED> instruction: 09650005
     80c:	00050000 			@ <UNDEFINED> instruction: 00050000
     810:	00000abd 			@ <UNDEFINED> instruction: 00000abd
     814:	41b70005 			@ <UNDEFINED> instruction: 41b70005
     818:	00050000 			@ <UNDEFINED> instruction: 00050000
     81c:	00003652 			@ <UNDEFINED> instruction: 00003652
     820:	020c0005 			@ <UNDEFINED> instruction: 020c0005
     824:	00050000 			@ <UNDEFINED> instruction: 00050000
     828:	0000030a 			@ <UNDEFINED> instruction: 0000030a
     82c:	34d50005 			@ <UNDEFINED> instruction: 34d50005
     830:	00050000 			@ <UNDEFINED> instruction: 00050000
     834:	000025ed 			@ <UNDEFINED> instruction: 000025ed
     838:	37790005 			@ <UNDEFINED> instruction: 37790005
     83c:	00050000 			@ <UNDEFINED> instruction: 00050000
     840:	00004547 			@ <UNDEFINED> instruction: 00004547
     844:	39cb0005 			@ <UNDEFINED> instruction: 39cb0005
     848:	00050000 			@ <UNDEFINED> instruction: 00050000
     84c:	000020ed 			@ <UNDEFINED> instruction: 000020ed
     850:	01d50005 			@ <UNDEFINED> instruction: 01d50005
     854:	00050000 			@ <UNDEFINED> instruction: 00050000
     858:	00001bee 			@ <UNDEFINED> instruction: 00001bee
     85c:	12140005 			@ <UNDEFINED> instruction: 12140005
     860:	00050000 			@ <UNDEFINED> instruction: 00050000
     864:	000014c7 			@ <UNDEFINED> instruction: 000014c7
     868:	2bff0005 			@ <UNDEFINED> instruction: 2bff0005
     86c:	00050000 			@ <UNDEFINED> instruction: 00050000
     870:	0000423c 			@ <UNDEFINED> instruction: 0000423c
     874:	03b30005 			@ <UNDEFINED> instruction: 03b30005
     878:	00050000 			@ <UNDEFINED> instruction: 00050000
     87c:	00003525 			@ <UNDEFINED> instruction: 00003525
     880:	24380005 			@ <UNDEFINED> instruction: 24380005
     884:	00050000 			@ <UNDEFINED> instruction: 00050000
     888:	0000399c 			@ <UNDEFINED> instruction: 0000399c
     88c:	473c0005 			@ <UNDEFINED> instruction: 473c0005
     890:	00050000 			@ <UNDEFINED> instruction: 00050000
     894:	000048dd 	ldrdeq	r4, [r0], -sp
     898:	09f30005 			@ <UNDEFINED> instruction: 09f30005
     89c:	00050000 			@ <UNDEFINED> instruction: 00050000
     8a0:	0000043c 			@ <UNDEFINED> instruction: 0000043c
     8a4:	35570005 			@ <UNDEFINED> instruction: 35570005
     8a8:	00050000 			@ <UNDEFINED> instruction: 00050000
     8ac:	00003818 			@ <UNDEFINED> instruction: 00003818
     8b0:	14470005 			@ <UNDEFINED> instruction: 14470005
     8b4:	00050000 			@ <UNDEFINED> instruction: 00050000
     8b8:	000002aa 			@ <UNDEFINED> instruction: 000002aa
     8bc:	2ceb0005 			@ <UNDEFINED> instruction: 2ceb0005
     8c0:	00050000 			@ <UNDEFINED> instruction: 00050000
     8c4:	00001a59 			@ <UNDEFINED> instruction: 00001a59
     8c8:	01fc0005 			@ <UNDEFINED> instruction: 01fc0005
     8cc:	00050000 			@ <UNDEFINED> instruction: 00050000
     8d0:	00003595 			@ <UNDEFINED> instruction: 00003595
     8d4:	09c90005 			@ <UNDEFINED> instruction: 09c90005
     8d8:	00050000 			@ <UNDEFINED> instruction: 00050000
     8dc:	00003a22 			@ <UNDEFINED> instruction: 00003a22
     8e0:	2a6f0005 			@ <UNDEFINED> instruction: 2a6f0005
     8e4:	00050000 			@ <UNDEFINED> instruction: 00050000
     8e8:	000023c9 			@ <UNDEFINED> instruction: 000023c9
     8ec:	36b70005 			@ <UNDEFINED> instruction: 36b70005
     8f0:	00050000 			@ <UNDEFINED> instruction: 00050000
     8f4:	000038c6 			@ <UNDEFINED> instruction: 000038c6
     8f8:	165e0005 			@ <UNDEFINED> instruction: 165e0005
     8fc:	00050000 			@ <UNDEFINED> instruction: 00050000
     900:	00002762 			@ <UNDEFINED> instruction: 00002762
     904:	38d50005 			@ <UNDEFINED> instruction: 38d50005
     908:	00050000 			@ <UNDEFINED> instruction: 00050000
     90c:	00001fde 	ldrdeq	r1, [r0], -lr
     910:	177f0005 			@ <UNDEFINED> instruction: 177f0005
     914:	00050000 			@ <UNDEFINED> instruction: 00050000
     918:	0000487f 			@ <UNDEFINED> instruction: 0000487f
     91c:	1a130005 			@ <UNDEFINED> instruction: 1a130005
     920:	00050000 			@ <UNDEFINED> instruction: 00050000
     924:	00003038 			@ <UNDEFINED> instruction: 00003038
     928:	002b0005 			@ <UNDEFINED> instruction: 002b0005
     92c:	00050000 			@ <UNDEFINED> instruction: 00050000
     930:	00001296 			@ <UNDEFINED> instruction: 00001296
     934:	2e840005 			@ <UNDEFINED> instruction: 2e840005
     938:	00050000 			@ <UNDEFINED> instruction: 00050000
     93c:	000015a0 			@ <UNDEFINED> instruction: 000015a0
     940:	0e140005 			@ <UNDEFINED> instruction: 0e140005
     944:	00050000 			@ <UNDEFINED> instruction: 00050000
     948:	00003dee 			@ <UNDEFINED> instruction: 00003dee
     94c:	11510005 			@ <UNDEFINED> instruction: 11510005
     950:	00050000 			@ <UNDEFINED> instruction: 00050000
     954:	0000411c 			@ <UNDEFINED> instruction: 0000411c
     958:	3c610005 			@ <UNDEFINED> instruction: 3c610005
     95c:	00050000 			@ <UNDEFINED> instruction: 00050000
     960:	00001d1f 			@ <UNDEFINED> instruction: 00001d1f
     964:	11d10005 			@ <UNDEFINED> instruction: 11d10005
     968:	00050000 			@ <UNDEFINED> instruction: 00050000
     96c:	00003e03 			@ <UNDEFINED> instruction: 00003e03
     970:	019e0005 			@ <UNDEFINED> instruction: 019e0005
     974:	00050000 			@ <UNDEFINED> instruction: 00050000
     978:	000006e7 			@ <UNDEFINED> instruction: 000006e7
     97c:	15b00005 			@ <UNDEFINED> instruction: 15b00005
     980:	00050000 			@ <UNDEFINED> instruction: 00050000
     984:	000032f1 	strdeq	r3, [r0], -r1
     988:	0e9f0005 			@ <UNDEFINED> instruction: 0e9f0005
     98c:	00050000 			@ <UNDEFINED> instruction: 00050000
     990:	00003fc1 			@ <UNDEFINED> instruction: 00003fc1
     994:	24ff0005 			@ <UNDEFINED> instruction: 24ff0005
     998:	00050000 			@ <UNDEFINED> instruction: 00050000
     99c:	00002324 			@ <UNDEFINED> instruction: 00002324
     9a0:	12330005 			@ <UNDEFINED> instruction: 12330005
     9a4:	00050000 			@ <UNDEFINED> instruction: 00050000
     9a8:	0000017d 			@ <UNDEFINED> instruction: 0000017d
     9ac:	187d0005 			@ <UNDEFINED> instruction: 187d0005
     9b0:	00050000 			@ <UNDEFINED> instruction: 00050000
     9b4:	00003aa5 			@ <UNDEFINED> instruction: 00003aa5
     9b8:	25cf0005 			@ <UNDEFINED> instruction: 25cf0005
     9bc:	00050000 			@ <UNDEFINED> instruction: 00050000
     9c0:	00002784 			@ <UNDEFINED> instruction: 00002784
     9c4:	19840005 			@ <UNDEFINED> instruction: 19840005
     9c8:	00050000 			@ <UNDEFINED> instruction: 00050000
     9cc:	00003dbe 			@ <UNDEFINED> instruction: 00003dbe
     9d0:	44110005 			@ <UNDEFINED> instruction: 44110005
     9d4:	00050000 			@ <UNDEFINED> instruction: 00050000
     9d8:	00000b76 			@ <UNDEFINED> instruction: 00000b76
     9dc:	32bf0005 			@ <UNDEFINED> instruction: 32bf0005
     9e0:	00050000 			@ <UNDEFINED> instruction: 00050000
     9e4:	00001f90 			@ <UNDEFINED> instruction: 00001f90
     9e8:	15680005 			@ <UNDEFINED> instruction: 15680005
     9ec:	00050000 			@ <UNDEFINED> instruction: 00050000
     9f0:	000028c3 			@ <UNDEFINED> instruction: 000028c3
     9f4:	41660005 			@ <UNDEFINED> instruction: 41660005
     9f8:	00050000 			@ <UNDEFINED> instruction: 00050000
     9fc:	00002d78 			@ <UNDEFINED> instruction: 00002d78
     a00:	39880005 			@ <UNDEFINED> instruction: 39880005
     a04:	00050000 			@ <UNDEFINED> instruction: 00050000
     a08:	00000f5a 			@ <UNDEFINED> instruction: 00000f5a
     a0c:	24c20005 			@ <UNDEFINED> instruction: 24c20005
     a10:	00060000 			@ <UNDEFINED> instruction: 00060000
     a14:	00003337 			@ <UNDEFINED> instruction: 00003337
     a18:	22b20006 			@ <UNDEFINED> instruction: 22b20006
     a1c:	00060000 			@ <UNDEFINED> instruction: 00060000
     a20:	00004897 			@ <UNDEFINED> instruction: 00004897
     a24:	417a0005 			@ <UNDEFINED> instruction: 417a0005
     a28:	00060000 			@ <UNDEFINED> instruction: 00060000
     a2c:	0000307a 			@ <UNDEFINED> instruction: 0000307a
     a30:	412c0006 			@ <UNDEFINED> instruction: 412c0006
     a34:	00060000 			@ <UNDEFINED> instruction: 00060000
     a38:	0000434f 			@ <UNDEFINED> instruction: 0000434f
     a3c:	1e630006 			@ <UNDEFINED> instruction: 1e630006
     a40:	00050000 			@ <UNDEFINED> instruction: 00050000
     a44:	00003173 			@ <UNDEFINED> instruction: 00003173
     a48:	295a0006 			@ <UNDEFINED> instruction: 295a0006
     a4c:	00060000 			@ <UNDEFINED> instruction: 00060000
     a50:	00000c04 			@ <UNDEFINED> instruction: 00000c04
     a54:	04220006 			@ <UNDEFINED> instruction: 04220006
     a58:	00060000 			@ <UNDEFINED> instruction: 00060000
     a5c:	00003cc1 			@ <UNDEFINED> instruction: 00003cc1
     a60:	20050006 			@ <UNDEFINED> instruction: 20050006
     a64:	00060000 			@ <UNDEFINED> instruction: 00060000
     a68:	00002669 			@ <UNDEFINED> instruction: 00002669
     a6c:	2ccb0006 			@ <UNDEFINED> instruction: 2ccb0006
     a70:	00050000 			@ <UNDEFINED> instruction: 00050000
     a74:	000047db 	ldrdeq	r4, [r0], -fp
     a78:	1e360005 			@ <UNDEFINED> instruction: 1e360005
     a7c:	00060000 			@ <UNDEFINED> instruction: 00060000
     a80:	00003a6a 			@ <UNDEFINED> instruction: 00003a6a
     a84:	3ff70005 			@ <UNDEFINED> instruction: 3ff70005
     a88:	00050000 			@ <UNDEFINED> instruction: 00050000
     a8c:	00002f1c 			@ <UNDEFINED> instruction: 00002f1c
     a90:	1e8f0005 			@ <UNDEFINED> instruction: 1e8f0005
     a94:	00060000 			@ <UNDEFINED> instruction: 00060000
     a98:	0000285d 			@ <UNDEFINED> instruction: 0000285d
     a9c:	12710005 			@ <UNDEFINED> instruction: 12710005
     aa0:	00050000 			@ <UNDEFINED> instruction: 00050000
     aa4:	00002f68 			@ <UNDEFINED> instruction: 00002f68
     aa8:	47900006 			@ <UNDEFINED> instruction: 47900006
     aac:	00050000 			@ <UNDEFINED> instruction: 00050000
     ab0:	00002638 			@ <UNDEFINED> instruction: 00002638
     ab4:	21ac0005 			@ <UNDEFINED> instruction: 21ac0005
     ab8:	00050000 			@ <UNDEFINED> instruction: 00050000
     abc:	000044b4 			@ <UNDEFINED> instruction: 000044b4
     ac0:	46ed0005 			@ <UNDEFINED> instruction: 46ed0005
     ac4:	00050000 			@ <UNDEFINED> instruction: 00050000
     ac8:	00004365 			@ <UNDEFINED> instruction: 00004365
     acc:	397a0005 			@ <UNDEFINED> instruction: 397a0005
     ad0:	00060000 			@ <UNDEFINED> instruction: 00060000
     ad4:	000018c8 			@ <UNDEFINED> instruction: 000018c8
     ad8:	30e10005 			@ <UNDEFINED> instruction: 30e10005
     adc:	00050000 			@ <UNDEFINED> instruction: 00050000
     ae0:	0000470b 			@ <UNDEFINED> instruction: 0000470b
     ae4:	0b280005 			@ <UNDEFINED> instruction: 0b280005
     ae8:	00060000 			@ <UNDEFINED> instruction: 00060000
     aec:	00002759 			@ <UNDEFINED> instruction: 00002759
     af0:	44db0005 			@ <UNDEFINED> instruction: 44db0005
     af4:	00060000 			@ <UNDEFINED> instruction: 00060000
     af8:	00002031 			@ <UNDEFINED> instruction: 00002031
     afc:	2fac0006 			@ <UNDEFINED> instruction: 2fac0006
     b00:	00060000 			@ <UNDEFINED> instruction: 00060000
     b04:	00002d15 			@ <UNDEFINED> instruction: 00002d15
     b08:	3b140006 			@ <UNDEFINED> instruction: 3b140006
     b0c:	00060000 			@ <UNDEFINED> instruction: 00060000
     b10:	00000fe5 			@ <UNDEFINED> instruction: 00000fe5
     b14:	1b830006 			@ <UNDEFINED> instruction: 1b830006
     b18:	00050000 			@ <UNDEFINED> instruction: 00050000
     b1c:	000011bd 			@ <UNDEFINED> instruction: 000011bd
     b20:	0ed20006 			@ <UNDEFINED> instruction: 0ed20006
     b24:	00060000 			@ <UNDEFINED> instruction: 00060000
     b28:	000016eb 			@ <UNDEFINED> instruction: 000016eb
     b2c:	2a340006 			@ <UNDEFINED> instruction: 2a340006
     b30:	00050000 			@ <UNDEFINED> instruction: 00050000
     b34:	00000f18 			@ <UNDEFINED> instruction: 00000f18
     b38:	3b010005 			@ <UNDEFINED> instruction: 3b010005
     b3c:	00050000 			@ <UNDEFINED> instruction: 00050000
     b40:	000043a5 			@ <UNDEFINED> instruction: 000043a5
     b44:	392b0005 			@ <UNDEFINED> instruction: 392b0005
     b48:	00060000 			@ <UNDEFINED> instruction: 00060000
     b4c:	0000166c 			@ <UNDEFINED> instruction: 0000166c
     b50:	3f250005 			@ <UNDEFINED> instruction: 3f250005
     b54:	00050000 			@ <UNDEFINED> instruction: 00050000
     b58:	00002db6 			@ <UNDEFINED> instruction: 00002db6
     b5c:	42e60005 			@ <UNDEFINED> instruction: 42e60005
     b60:	00060000 			@ <UNDEFINED> instruction: 00060000
     b64:	00003e4d 			@ <UNDEFINED> instruction: 00003e4d
     b68:	2aea0005 			@ <UNDEFINED> instruction: 2aea0005
     b6c:	00060000 			@ <UNDEFINED> instruction: 00060000
     b70:	00003d8c 			@ <UNDEFINED> instruction: 00003d8c
     b74:	4a380006 			@ <UNDEFINED> instruction: 4a380006
     b78:	00060000 			@ <UNDEFINED> instruction: 00060000
     b7c:	00001906 			@ <UNDEFINED> instruction: 00001906
     b80:	47170006 			@ <UNDEFINED> instruction: 47170006
     b84:	00060000 			@ <UNDEFINED> instruction: 00060000
     b88:	000021ba 			@ <UNDEFINED> instruction: 000021ba
     b8c:	38320006 			@ <UNDEFINED> instruction: 38320006
     b90:	00050000 			@ <UNDEFINED> instruction: 00050000
     b94:	00002162 			@ <UNDEFINED> instruction: 00002162
     b98:	01b20005 			@ <UNDEFINED> instruction: 01b20005
     b9c:	00050000 			@ <UNDEFINED> instruction: 00050000
     ba0:	000014a0 			@ <UNDEFINED> instruction: 000014a0
     ba4:	0ce50005 			@ <UNDEFINED> instruction: 0ce50005
     ba8:	00050000 			@ <UNDEFINED> instruction: 00050000
     bac:	00003f8d 			@ <UNDEFINED> instruction: 00003f8d
     bb0:	00000500 			@ <UNDEFINED> instruction: 00000500
     bb4:	24f42705 			@ <UNDEFINED> instruction: 24f42705
     bb8:	28050000 			@ <UNDEFINED> instruction: 28050000
     bbc:	000031a7 			@ <UNDEFINED> instruction: 000031a7
     bc0:	24ef2a05 			@ <UNDEFINED> instruction: 24ef2a05
     bc4:	93050000 	movwls	r0, #20480	@ 0x5000
     bc8:	00302c01 			@ <UNDEFINED> instruction: 00302c01
     bcc:	01940500 			@ <UNDEFINED> instruction: 01940500
     bd0:	0000178e 			@ <UNDEFINED> instruction: 0000178e
     bd4:	df019505 			@ <UNDEFINED> instruction: df019505
     bd8:	0500002c 			@ <UNDEFINED> instruction: 0500002c
     bdc:	35880196 			@ <UNDEFINED> instruction: 35880196
     be0:	97050000 			@ <UNDEFINED> instruction: 97050000
     be4:	0008c101 			@ <UNDEFINED> instruction: 0008c101
     be8:	01980500 			@ <UNDEFINED> instruction: 01980500
     bec:	000008bd 			@ <UNDEFINED> instruction: 000008bd
     bf0:	9d019905 			@ <UNDEFINED> instruction: 9d019905
     bf4:	0500000f 			@ <UNDEFINED> instruction: 0500000f
     bf8:	3028019a 			@ <UNDEFINED> instruction: 3028019a
     bfc:	9b050000 			@ <UNDEFINED> instruction: 9b050000
     c00:	002e6f01 			@ <UNDEFINED> instruction: 002e6f01
     c04:	019c0500 			@ <UNDEFINED> instruction: 019c0500
     c08:	000047b5 			@ <UNDEFINED> instruction: 000047b5
     c0c:	5501ad06 			@ <UNDEFINED> instruction: 5501ad06
     c10:	0500003f 			@ <UNDEFINED> instruction: 0500003f
     c14:	0e2401c8 			@ <UNDEFINED> instruction: 0e2401c8
     c18:	c9050000 			@ <UNDEFINED> instruction: c9050000
     c1c:	0007fe01 			@ <UNDEFINED> instruction: 0007fe01
     c20:	01ca0500 			@ <UNDEFINED> instruction: 01ca0500
     c24:	000043bf 			@ <UNDEFINED> instruction: 000043bf
     c28:	d601cb05 			@ <UNDEFINED> instruction: d601cb05
     c2c:	0500000c 			@ <UNDEFINED> instruction: 0500000c
     c30:	208401cc 			@ <UNDEFINED> instruction: 208401cc
     c34:	cd050000 			@ <UNDEFINED> instruction: cd050000
     c38:	0009ac01 			@ <UNDEFINED> instruction: 0009ac01
     c3c:	01ce0500 			@ <UNDEFINED> instruction: 01ce0500
     c40:	00001bc9 			@ <UNDEFINED> instruction: 00001bc9
     c44:	7801cf05 			@ <UNDEFINED> instruction: 7801cf05
     c48:	05000038 			@ <UNDEFINED> instruction: 05000038
     c4c:	387401d0 			@ <UNDEFINED> instruction: 387401d0
     c50:	d1050000 			@ <UNDEFINED> instruction: d1050000
     c54:	0012cf01 			@ <UNDEFINED> instruction: 0012cf01
     c58:	01d20500 			@ <UNDEFINED> instruction: 01d20500
     c5c:	00003546 			@ <UNDEFINED> instruction: 00003546
     c60:	cb01d305 			@ <UNDEFINED> instruction: cb01d305
     c64:	05000012 			@ <UNDEFINED> instruction: 05000012
     c68:	0fb101d4 			@ <UNDEFINED> instruction: 0fb101d4
     c6c:	d5050000 			@ <UNDEFINED> instruction: d5050000
     c70:	0013f601 			@ <UNDEFINED> instruction: 0013f601
     c74:	01d60500 			@ <UNDEFINED> instruction: 01d60500
     c78:	00001303 			@ <UNDEFINED> instruction: 00001303
     c7c:	bb01d705 			@ <UNDEFINED> instruction: bb01d705
     c80:	05000043 			@ <UNDEFINED> instruction: 05000043
     c84:	2b7101d8 			@ <UNDEFINED> instruction: 2b7101d8
     c88:	df050000 			@ <UNDEFINED> instruction: df050000
     c8c:	00091801 			@ <UNDEFINED> instruction: 00091801
     c90:	01fc0600 			@ <UNDEFINED> instruction: 01fc0600
     c94:	00002604 			@ <UNDEFINED> instruction: 00002604
     c98:	32029a05 			@ <UNDEFINED> instruction: 32029a05
     c9c:	05000007 			@ <UNDEFINED> instruction: 05000007
     ca0:	2d8f029b 			@ <UNDEFINED> instruction: 2d8f029b
     ca4:	9c050000 			@ <UNDEFINED> instruction: 9c050000
     ca8:	002dfc02 			@ <UNDEFINED> instruction: 002dfc02
     cac:	029d0500 			@ <UNDEFINED> instruction: 029d0500
     cb0:	00002561 			@ <UNDEFINED> instruction: 00002561
     cb4:	a2029e05 			@ <UNDEFINED> instruction: a2029e05
     cb8:	05000038 			@ <UNDEFINED> instruction: 05000038
     cbc:	27e5029f 			@ <UNDEFINED> instruction: 27e5029f
     cc0:	a0050000 			@ <UNDEFINED> instruction: a0050000
     cc4:	001aba02 			@ <UNDEFINED> instruction: 001aba02
     cc8:	02a10500 			@ <UNDEFINED> instruction: 02a10500
     ccc:	00001ab6 			@ <UNDEFINED> instruction: 00001ab6
     cd0:	eb02a205 			@ <UNDEFINED> instruction: eb02a205
     cd4:	05000048 			@ <UNDEFINED> instruction: 05000048
     cd8:	376702a3 			@ <UNDEFINED> instruction: 376702a3
     cdc:	a4050000 			@ <UNDEFINED> instruction: a4050000
     ce0:	0038e902 			@ <UNDEFINED> instruction: 0038e902
     ce4:	02a50500 			@ <UNDEFINED> instruction: 02a50500
     ce8:	00000953 			@ <UNDEFINED> instruction: 00000953
     cec:	e402a605 			@ <UNDEFINED> instruction: e402a605
     cf0:	05000038 			@ <UNDEFINED> instruction: 05000038
     cf4:	2df802a7 			@ <UNDEFINED> instruction: 2df802a7
     cf8:	a8050000 			@ <UNDEFINED> instruction: a8050000
     cfc:	002c3c02 			@ <UNDEFINED> instruction: 002c3c02
     d00:	02a90500 			@ <UNDEFINED> instruction: 02a90500
     d04:	00002704 			@ <UNDEFINED> instruction: 00002704
     d08:	2c02b606 			@ <UNDEFINED> instruction: 2c02b606
     d0c:	06000044 			@ <UNDEFINED> instruction: 06000044
     d10:	087802ec 			@ <UNDEFINED> instruction: 087802ec
     d14:	9e060000 			@ <UNDEFINED> instruction: 9e060000
     d18:	001c1f03 			@ <UNDEFINED> instruction: 001c1f03
     d1c:	03a30500 			@ <UNDEFINED> instruction: 03a30500
     d20:	00001bb8 			@ <UNDEFINED> instruction: 00001bb8
     d24:	1803a906 			@ <UNDEFINED> instruction: 1803a906
     d28:	0600001c 			@ <UNDEFINED> instruction: 0600001c
     d2c:	47ca03ae 			@ <UNDEFINED> instruction: 47ca03ae
     d30:	af050000 			@ <UNDEFINED> instruction: af050000
     d34:	00223603 			@ <UNDEFINED> instruction: 00223603
     d38:	03b40500 			@ <UNDEFINED> instruction: 03b40500
     d3c:	00003aef 			@ <UNDEFINED> instruction: 00003aef
     d40:	1f03d005 			@ <UNDEFINED> instruction: 1f03d005
     d44:	05000031 			@ <UNDEFINED> instruction: 05000031
     d48:	3cef03d4 			@ <UNDEFINED> instruction: 3cef03d4
     d4c:	d5050000 			@ <UNDEFINED> instruction: d5050000
     d50:	00117e03 			@ <UNDEFINED> instruction: 00117e03
     d54:	00050000 			@ <UNDEFINED> instruction: 00050000
     d58:	b9040500 			@ <UNDEFINED> instruction: b9040500
     d5c:	05000025 			@ <UNDEFINED> instruction: 05000025
     d60:	0027f006 			@ <UNDEFINED> instruction: 0027f006
     d64:	1e070500 			@ <UNDEFINED> instruction: 1e070500
     d68:	05000011 			@ <UNDEFINED> instruction: 05000011
     d6c:	0010b608 			@ <UNDEFINED> instruction: 0010b608
     d70:	d9090500 			@ <UNDEFINED> instruction: d9090500
     d74:	00000033 			@ <UNDEFINED> instruction: 00000033
     d78:	05000005 			@ <UNDEFINED> instruction: 05000005
     d7c:	000c1621 			@ <UNDEFINED> instruction: 000c1621
     d80:	ef280500 			@ <UNDEFINED> instruction: ef280500
     d84:	06000040 			@ <UNDEFINED> instruction: 06000040
     d88:	43950192 			@ <UNDEFINED> instruction: 43950192
     d8c:	93050000 	movwls	r0, #20480	@ 0x5000
     d90:	0021df01 			@ <UNDEFINED> instruction: 0021df01
     d94:	01970600 			@ <UNDEFINED> instruction: 01970600
     d98:	0000206b 			@ <UNDEFINED> instruction: 0000206b
     d9c:	b9019805 			@ <UNDEFINED> instruction: b9019805
     da0:	06000023 			@ <UNDEFINED> instruction: 06000023
     da4:	49740199 			@ <UNDEFINED> instruction: 49740199
     da8:	9a050000 			@ <UNDEFINED> instruction: 9a050000
     dac:	0036c801 			@ <UNDEFINED> instruction: 0036c801
     db0:	01ad0600 			@ <UNDEFINED> instruction: 01ad0600
     db4:	00001d8f 			@ <UNDEFINED> instruction: 00001d8f
     db8:	a001ae05 			@ <UNDEFINED> instruction: a001ae05
     dbc:	05000029 			@ <UNDEFINED> instruction: 05000029
     dc0:	2edf028f 			@ <UNDEFINED> instruction: 2edf028f
     dc4:	95050000 			@ <UNDEFINED> instruction: 95050000
     dc8:	0028d802 			@ <UNDEFINED> instruction: 0028d802
     dcc:	029d0500 			@ <UNDEFINED> instruction: 029d0500
     dd0:	00003566 			@ <UNDEFINED> instruction: 00003566
     dd4:	cb02a205 			@ <UNDEFINED> instruction: cb02a205
     dd8:	05000031 			@ <UNDEFINED> instruction: 05000031
     ddc:	110802b0 			@ <UNDEFINED> instruction: 110802b0
     de0:	b4050000 			@ <UNDEFINED> instruction: b4050000
     de4:	0019a802 			@ <UNDEFINED> instruction: 0019a802
     de8:	02ba0500 			@ <UNDEFINED> instruction: 02ba0500
     dec:	0000141a 			@ <UNDEFINED> instruction: 0000141a
     df0:	3a02cc05 			@ <UNDEFINED> instruction: 3a02cc05
     df4:	05000000 			@ <UNDEFINED> instruction: 05000000
     df8:	401802dc 			@ <UNDEFINED> instruction: 401802dc
     dfc:	ee050000 			@ <UNDEFINED> instruction: ee050000
     e00:	00242202 			@ <UNDEFINED> instruction: 00242202
     e04:	00050000 			@ <UNDEFINED> instruction: 00050000
     e08:	cd0f0500 			@ <UNDEFINED> instruction: cd0f0500
     e0c:	05000029 			@ <UNDEFINED> instruction: 05000029
     e10:	0036fe1a 			@ <UNDEFINED> instruction: 0036fe1a
     e14:	7d210500 			@ <UNDEFINED> instruction: 7d210500
     e18:	0500003f 			@ <UNDEFINED> instruction: 0500003f
     e1c:	001fac2f 			@ <UNDEFINED> instruction: 001fac2f
     e20:	093d0500 			@ <UNDEFINED> instruction: 093d0500
     e24:	05000017 			@ <UNDEFINED> instruction: 05000017
     e28:	00283153 			@ <UNDEFINED> instruction: 00283153
     e2c:	bd6d0500 			@ <UNDEFINED> instruction: bd6d0500
     e30:	0500000e 			@ <UNDEFINED> instruction: 0500000e
     e34:	2d9c018c 			@ <UNDEFINED> instruction: 2d9c018c
     e38:	a6050000 			@ <UNDEFINED> instruction: a6050000
     e3c:	000de201 			@ <UNDEFINED> instruction: 000de201
     e40:	01bc0500 			@ <UNDEFINED> instruction: 01bc0500
     e44:	00001bd3 	ldrdeq	r1, [r0], -r3
     e48:	2f01ce05 			@ <UNDEFINED> instruction: 2f01ce05
     e4c:	06000029 			@ <UNDEFINED> instruction: 06000029
     e50:	2c9c01f4 			@ <UNDEFINED> instruction: 2c9c01f4
     e54:	05000000 			@ <UNDEFINED> instruction: 05000000
     e58:	0a050000 			@ <UNDEFINED> instruction: 0a050000
     e5c:	00004488 			@ <UNDEFINED> instruction: 00004488
     e60:	29b11005 			@ <UNDEFINED> instruction: 29b11005
     e64:	2b060000 			@ <UNDEFINED> instruction: 2b060000
     e68:	00003db2 			@ <UNDEFINED> instruction: 00003db2
     e6c:	3db02c06 			@ <UNDEFINED> instruction: 3db02c06
     e70:	2d060000 			@ <UNDEFINED> instruction: 2d060000
     e74:	000004ce 			@ <UNDEFINED> instruction: 000004ce
     e78:	31402e06 			@ <UNDEFINED> instruction: 31402e06
     e7c:	2f020000 			@ <UNDEFINED> instruction: 2f020000
     e80:	00746e69 			@ <UNDEFINED> instruction: 00746e69
     e84:	48fe3006 			@ <UNDEFINED> instruction: 48fe3006
     e88:	31060000 			@ <UNDEFINED> instruction: 31060000
     e8c:	00000349 			@ <UNDEFINED> instruction: 00000349
     e90:	313b3206 			@ <UNDEFINED> instruction: 313b3206
     e94:	33050000 	movwcc	r0, #20480	@ 0x5000
     e98:	00002383 			@ <UNDEFINED> instruction: 00002383
     e9c:	23813405 			@ <UNDEFINED> instruction: 23813405
     ea0:	35050000 			@ <UNDEFINED> instruction: 35050000
     ea4:	00003c08 			@ <UNDEFINED> instruction: 00003c08
     ea8:	488e3605 			@ <UNDEFINED> instruction: 488e3605
     eac:	37050000 			@ <UNDEFINED> instruction: 37050000
     eb0:	00002467 			@ <UNDEFINED> instruction: 00002467
     eb4:	38823805 			@ <UNDEFINED> instruction: 38823805
     eb8:	39050000 			@ <UNDEFINED> instruction: 39050000
     ebc:	000020af 			@ <UNDEFINED> instruction: 000020af
     ec0:	47d33a05 			@ <UNDEFINED> instruction: 47d33a05
     ec4:	43050000 	movwmi	r0, #20480	@ 0x5000
     ec8:	00001e7f 			@ <UNDEFINED> instruction: 00001e7f
     ecc:	460f4a05 			@ <UNDEFINED> instruction: 460f4a05
     ed0:	52050000 			@ <UNDEFINED> instruction: 52050000
     ed4:	000006cd 			@ <UNDEFINED> instruction: 000006cd
     ed8:	25ad5d05 			@ <UNDEFINED> instruction: 25ad5d05
     edc:	68050000 			@ <UNDEFINED> instruction: 68050000
     ee0:	000042da 	ldrdeq	r4, [r0], -sl
     ee4:	0b437105 			@ <UNDEFINED> instruction: 0b437105
     ee8:	78050000 			@ <UNDEFINED> instruction: 78050000
     eec:	00004233 			@ <UNDEFINED> instruction: 00004233
     ef0:	e4018105 			@ <UNDEFINED> instruction: e4018105
     ef4:	05000010 			@ <UNDEFINED> instruction: 05000010
     ef8:	24460188 			@ <UNDEFINED> instruction: 24460188
     efc:	93050000 	movwls	r0, #20480	@ 0x5000
     f00:	00236001 			@ <UNDEFINED> instruction: 00236001
     f04:	01970500 			@ <UNDEFINED> instruction: 01970500
     f08:	000017e1 			@ <UNDEFINED> instruction: 000017e1
     f0c:	4f01a205 			@ <UNDEFINED> instruction: 4f01a205
     f10:	05000046 			@ <UNDEFINED> instruction: 05000046
     f14:	0b3501ad 			@ <UNDEFINED> instruction: 0b3501ad
     f18:	b6050000 			@ <UNDEFINED> instruction: b6050000
     f1c:	00306b01 			@ <UNDEFINED> instruction: 00306b01
     f20:	01b80600 			@ <UNDEFINED> instruction: 01b80600
     f24:	00003db2 			@ <UNDEFINED> instruction: 00003db2
     f28:	b001b906 			@ <UNDEFINED> instruction: b001b906
     f2c:	0600003d 			@ <UNDEFINED> instruction: 0600003d
     f30:	04ce01ba 			@ <UNDEFINED> instruction: 04ce01ba
     f34:	bb060000 			@ <UNDEFINED> instruction: bb060000
     f38:	00314001 			@ <UNDEFINED> instruction: 00314001
     f3c:	01bc0200 			@ <UNDEFINED> instruction: 01bc0200
     f40:	00746e69 			@ <UNDEFINED> instruction: 00746e69
     f44:	3b01bd06 			@ <UNDEFINED> instruction: 3b01bd06
     f48:	06000031 			@ <UNDEFINED> instruction: 06000031
     f4c:	48fe01c2 			@ <UNDEFINED> instruction: 48fe01c2
     f50:	c3060000 	movwgt	r0, #24576	@ 0x6000
     f54:	00034901 			@ <UNDEFINED> instruction: 00034901
     f58:	00050000 			@ <UNDEFINED> instruction: 00050000
     f5c:	1f0a0500 			@ <UNDEFINED> instruction: 1f0a0500
     f60:	0500000a 			@ <UNDEFINED> instruction: 0500000a
     f64:	0043ff15 			@ <UNDEFINED> instruction: 0043ff15
     f68:	3f190500 			@ <UNDEFINED> instruction: 3f190500
     f6c:	05000037 			@ <UNDEFINED> instruction: 05000037
     f70:	001fad1b 			@ <UNDEFINED> instruction: 001fad1b
     f74:	25210500 			@ <UNDEFINED> instruction: 25210500
     f78:	0500001b 			@ <UNDEFINED> instruction: 0500001b
     f7c:	003cad25 			@ <UNDEFINED> instruction: 003cad25
     f80:	0a270500 			@ <UNDEFINED> instruction: 0a270500
     f84:	05000017 			@ <UNDEFINED> instruction: 05000017
     f88:	0023f62d 			@ <UNDEFINED> instruction: 0023f62d
     f8c:	72310500 			@ <UNDEFINED> instruction: 72310500
     f90:	05000002 			@ <UNDEFINED> instruction: 05000002
     f94:	00283233 			@ <UNDEFINED> instruction: 00283233
     f98:	8f390500 			@ <UNDEFINED> instruction: 8f390500
     f9c:	05000038 			@ <UNDEFINED> instruction: 05000038
     fa0:	0041403d 			@ <UNDEFINED> instruction: 0041403d
     fa4:	be3f0500 			@ <UNDEFINED> instruction: be3f0500
     fa8:	0500000e 			@ <UNDEFINED> instruction: 0500000e
     fac:	00363e44 			@ <UNDEFINED> instruction: 00363e44
     fb0:	bc490500 	mcrrlt	5, 0, r0, r9, cr0
     fb4:	05000035 			@ <UNDEFINED> instruction: 05000035
     fb8:	000c7f4e 			@ <UNDEFINED> instruction: 000c7f4e
     fbc:	52530500 			@ <UNDEFINED> instruction: 52530500
     fc0:	00000037 			@ <UNDEFINED> instruction: 00000037
     fc4:	05000005 			@ <UNDEFINED> instruction: 05000005
     fc8:	002d9d17 			@ <UNDEFINED> instruction: 002d9d17
     fcc:	e31d0500 			@ <UNDEFINED> instruction: e31d0500
     fd0:	0500000d 			@ <UNDEFINED> instruction: 0500000d
     fd4:	001bd423 			@ <UNDEFINED> instruction: 001bd423
     fd8:	30290500 			@ <UNDEFINED> instruction: 30290500
     fdc:	05000029 			@ <UNDEFINED> instruction: 05000029
     fe0:	002e0635 			@ <UNDEFINED> instruction: 002e0635
     fe4:	b33f0500 			@ <UNDEFINED> instruction: b33f0500
     fe8:	0500002a 			@ <UNDEFINED> instruction: 0500002a
     fec:	00092249 			@ <UNDEFINED> instruction: 00092249
     ff0:	87530500 			@ <UNDEFINED> instruction: 87530500
     ff4:	05000014 			@ <UNDEFINED> instruction: 05000014
     ff8:	1a220180 			@ <UNDEFINED> instruction: 1a220180
     ffc:	81050000 			@ <UNDEFINED> instruction: 81050000
    1000:	002e5301 			@ <UNDEFINED> instruction: 002e5301
    1004:	01820500 			@ <UNDEFINED> instruction: 01820500
    1008:	00000edf 	ldrdeq	r0, [r0], -pc	@ <UNPREDICTABLE>
    100c:	02019805 			@ <UNDEFINED> instruction: 02019805
    1010:	0500000a 			@ <UNDEFINED> instruction: 0500000a
    1014:	036a0199 			@ <UNDEFINED> instruction: 036a0199
    1018:	9a050000 			@ <UNDEFINED> instruction: 9a050000
    101c:	00479b01 			@ <UNDEFINED> instruction: 00479b01
    1020:	01a20500 			@ <UNDEFINED> instruction: 01a20500
    1024:	00000249 			@ <UNDEFINED> instruction: 00000249
    1028:	d001a305 			@ <UNDEFINED> instruction: d001a305
    102c:	0500000a 			@ <UNDEFINED> instruction: 0500000a
    1030:	39fc01a4 			@ <UNDEFINED> instruction: 39fc01a4
    1034:	ae050000 			@ <UNDEFINED> instruction: ae050000
    1038:	002f8d01 			@ <UNDEFINED> instruction: 002f8d01
    103c:	01af0500 			@ <UNDEFINED> instruction: 01af0500
    1040:	000008ce 			@ <UNDEFINED> instruction: 000008ce
    1044:	a001b005 			@ <UNDEFINED> instruction: a001b005
    1048:	05000028 			@ <UNDEFINED> instruction: 05000028
    104c:	28e801b8 			@ <UNDEFINED> instruction: 28e801b8
    1050:	b9050000 			@ <UNDEFINED> instruction: b9050000
    1054:	00070c01 			@ <UNDEFINED> instruction: 00070c01
    1058:	01ba0500 			@ <UNDEFINED> instruction: 01ba0500
    105c:	000017ef 			@ <UNDEFINED> instruction: 000017ef
    1060:	5b01c405 			@ <UNDEFINED> instruction: 5b01c405
    1064:	05000039 			@ <UNDEFINED> instruction: 05000039
    1068:	176501c5 			@ <UNDEFINED> instruction: 176501c5
    106c:	c6050000 			@ <UNDEFINED> instruction: c6050000
    1070:	00267c01 			@ <UNDEFINED> instruction: 00267c01
    1074:	01d40500 			@ <UNDEFINED> instruction: 01d40500
    1078:	00001946 			@ <UNDEFINED> instruction: 00001946
    107c:	2001d505 			@ <UNDEFINED> instruction: 2001d505
    1080:	05000019 			@ <UNDEFINED> instruction: 05000019
    1084:	3bd701d6 			@ <UNDEFINED> instruction: 3bd701d6
    1088:	e6050000 			@ <UNDEFINED> instruction: e6050000
    108c:	003e1301 			@ <UNDEFINED> instruction: 003e1301
    1090:	01e70500 			@ <UNDEFINED> instruction: 01e70500
    1094:	00002b3f 			@ <UNDEFINED> instruction: 00002b3f
    1098:	9701e805 			@ <UNDEFINED> instruction: 9701e805
    109c:	0500003e 			@ <UNDEFINED> instruction: 0500003e
    10a0:	0bb701f6 			@ <UNDEFINED> instruction: 0bb701f6
    10a4:	f7050000 			@ <UNDEFINED> instruction: f7050000
    10a8:	000a2f01 			@ <UNDEFINED> instruction: 000a2f01
    10ac:	01f80500 			@ <UNDEFINED> instruction: 01f80500
    10b0:	00003494 			@ <UNDEFINED> instruction: 00003494
    10b4:	c1028605 			@ <UNDEFINED> instruction: c1028605
    10b8:	0500002b 			@ <UNDEFINED> instruction: 0500002b
    10bc:	0be20287 			@ <UNDEFINED> instruction: 0be20287
    10c0:	88050000 			@ <UNDEFINED> instruction: 88050000
    10c4:	00350102 			@ <UNDEFINED> instruction: 00350102
    10c8:	02960500 			@ <UNDEFINED> instruction: 02960500
    10cc:	00001d9e 			@ <UNDEFINED> instruction: 00001d9e
    10d0:	3f029705 			@ <UNDEFINED> instruction: 3f029705
    10d4:	05000007 			@ <UNDEFINED> instruction: 05000007
    10d8:	3b870298 			@ <UNDEFINED> instruction: 3b870298
    10dc:	a6050000 			@ <UNDEFINED> instruction: a6050000
    10e0:	000cad02 			@ <UNDEFINED> instruction: 000cad02
    10e4:	02a70500 			@ <UNDEFINED> instruction: 02a70500
    10e8:	00004906 			@ <UNDEFINED> instruction: 00004906
    10ec:	9302a805 	movwls	sl, #10245	@ 0x2805
    10f0:	05000004 			@ <UNDEFINED> instruction: 05000004
    10f4:	0e7602b6 			@ <UNDEFINED> instruction: 0e7602b6
    10f8:	b7050000 			@ <UNDEFINED> instruction: b7050000
    10fc:	00230002 			@ <UNDEFINED> instruction: 00230002
    1100:	02b80500 			@ <UNDEFINED> instruction: 02b80500
    1104:	00003283 			@ <UNDEFINED> instruction: 00003283
    1108:	4902c605 			@ <UNDEFINED> instruction: 4902c605
    110c:	05000017 			@ <UNDEFINED> instruction: 05000017
    1110:	11a002c7 			@ <UNDEFINED> instruction: 11a002c7
    1114:	cf050000 			@ <UNDEFINED> instruction: cf050000
    1118:	0023d802 			@ <UNDEFINED> instruction: 0023d802
    111c:	02d70500 			@ <UNDEFINED> instruction: 02d70500
    1120:	00003800 			@ <UNDEFINED> instruction: 00003800
    1124:	df02dd05 			@ <UNDEFINED> instruction: df02dd05
    1128:	0500001a 			@ <UNDEFINED> instruction: 0500001a
    112c:	168f02de 	pkhtbne	r0, pc, lr, asr #5	@ <UNPREDICTABLE>
    1130:	e2050000 			@ <UNDEFINED> instruction: e2050000
    1134:	00080a02 			@ <UNDEFINED> instruction: 00080a02
    1138:	02e60500 			@ <UNDEFINED> instruction: 02e60500
    113c:	000015ef 			@ <UNDEFINED> instruction: 000015ef
    1140:	e802eb05 			@ <UNDEFINED> instruction: e802eb05
    1144:	05000011 			@ <UNDEFINED> instruction: 05000011
    1148:	0aa302f6 			@ <UNDEFINED> instruction: 0aa302f6
    114c:	80050000 			@ <UNDEFINED> instruction: 80050000
    1150:	00271703 			@ <UNDEFINED> instruction: 00271703
    1154:	03850500 			@ <UNDEFINED> instruction: 03850500
    1158:	00000000 			@ <UNDEFINED> instruction: 00000000
    115c:	b6038c05 			@ <UNDEFINED> instruction: b6038c05
    1160:	05000020 			@ <UNDEFINED> instruction: 05000020
    1164:	3f3d038d 			@ <UNDEFINED> instruction: 3f3d038d
    1168:	98050000 			@ <UNDEFINED> instruction: 98050000
    116c:	00097803 			@ <UNDEFINED> instruction: 00097803
    1170:	03990500 			@ <UNDEFINED> instruction: 03990500
    1174:	0000444d 			@ <UNDEFINED> instruction: 0000444d
    1178:	6f03a405 			@ <UNDEFINED> instruction: 6f03a405
    117c:	0500003b 			@ <UNDEFINED> instruction: 0500003b
    1180:	2b9403a5 			@ <UNDEFINED> instruction: 2b9403a5
    1184:	b1050000 			@ <UNDEFINED> instruction: b1050000
    1188:	001d7703 			@ <UNDEFINED> instruction: 001d7703
    118c:	03b20500 			@ <UNDEFINED> instruction: 03b20500
    1190:	000039b1 			@ <UNDEFINED> instruction: 000039b1
    1194:	d503c105 			@ <UNDEFINED> instruction: d503c105
    1198:	05000015 			@ <UNDEFINED> instruction: 05000015
    119c:	326703c2 			@ <UNDEFINED> instruction: 326703c2
    11a0:	05000000 			@ <UNDEFINED> instruction: 05000000
    11a4:	02050000 			@ <UNDEFINED> instruction: 02050000
    11a8:	00002b02 			@ <UNDEFINED> instruction: 00002b02
    11ac:	2c5e0a05 	mrrccs	10, 0, r0, lr, cr5
    11b0:	0c050000 			@ <UNDEFINED> instruction: 0c050000
    11b4:	0000182d 			@ <UNDEFINED> instruction: 0000182d
    11b8:	25280d05 			@ <UNDEFINED> instruction: 25280d05
    11bc:	0f050000 			@ <UNDEFINED> instruction: 0f050000
    11c0:	00004576 			@ <UNDEFINED> instruction: 00004576
    11c4:	323c1005 			@ <UNDEFINED> instruction: 323c1005
    11c8:	12050000 			@ <UNDEFINED> instruction: 12050000
    11cc:	000019b9 			@ <UNDEFINED> instruction: 000019b9
    11d0:	48621305 			@ <UNDEFINED> instruction: 48621305
    11d4:	15050000 			@ <UNDEFINED> instruction: 15050000
    11d8:	00004a51 			@ <UNDEFINED> instruction: 00004a51
    11dc:	1dc71605 			@ <UNDEFINED> instruction: 1dc71605
    11e0:	18050000 			@ <UNDEFINED> instruction: 18050000
    11e4:	00004303 			@ <UNDEFINED> instruction: 00004303
    11e8:	31e01905 			@ <UNDEFINED> instruction: 31e01905
    11ec:	1b050000 			@ <UNDEFINED> instruction: 1b050000
    11f0:	000037ba 			@ <UNDEFINED> instruction: 000037ba
    11f4:	45a21c05 			@ <UNDEFINED> instruction: 45a21c05
    11f8:	05000000 			@ <UNDEFINED> instruction: 05000000
    11fc:	02050000 			@ <UNDEFINED> instruction: 02050000
    1200:	000042d4 	ldrdeq	r4, [r0], -r4	@ <UNPREDICTABLE>
    1204:	1e1d0805 			@ <UNDEFINED> instruction: 1e1d0805
    1208:	09050000 			@ <UNDEFINED> instruction: 09050000
    120c:	000019fb 	strdeq	r1, [r0], -fp
    1210:	00000500 			@ <UNDEFINED> instruction: 00000500
    1214:	495e0b05 			@ <UNDEFINED> instruction: 495e0b05
    1218:	0c050000 			@ <UNDEFINED> instruction: 0c050000
    121c:	00001ac5 			@ <UNDEFINED> instruction: 00001ac5
    1220:	3d540d05 			@ <UNDEFINED> instruction: 3d540d05
    1224:	0e050000 			@ <UNDEFINED> instruction: 0e050000
    1228:	000010ee 			@ <UNDEFINED> instruction: 000010ee
    122c:	2a420f05 			@ <UNDEFINED> instruction: 2a420f05
    1230:	10050000 			@ <UNDEFINED> instruction: 10050000
    1234:	0000052a 			@ <UNDEFINED> instruction: 0000052a
    1238:	33951105 			@ <UNDEFINED> instruction: 33951105
    123c:	12050000 			@ <UNDEFINED> instruction: 12050000
    1240:	000038ac 			@ <UNDEFINED> instruction: 000038ac
    1244:	3eb31405 			@ <UNDEFINED> instruction: 3eb31405
    1248:	60050000 			@ <UNDEFINED> instruction: 60050000
    124c:	0000004b 			@ <UNDEFINED> instruction: 0000004b
    1250:	00000500 			@ <UNDEFINED> instruction: 00000500
    1254:	308e0f05 			@ <UNDEFINED> instruction: 308e0f05
    1258:	10050000 			@ <UNDEFINED> instruction: 10050000
    125c:	000014ea 			@ <UNDEFINED> instruction: 000014ea
    1260:	00000500 			@ <UNDEFINED> instruction: 00000500
    1264:	43f31d05 			@ <UNDEFINED> instruction: 43f31d05
    1268:	31050000 			@ <UNDEFINED> instruction: 31050000
    126c:	0000474b 			@ <UNDEFINED> instruction: 0000474b
    1270:	00000500 			@ <UNDEFINED> instruction: 00000500
    1274:	0b6a0c05 			@ <UNDEFINED> instruction: 0b6a0c05
    1278:	0d050000 			@ <UNDEFINED> instruction: 0d050000
    127c:	000006b9 			@ <UNDEFINED> instruction: 000006b9
    1280:	3eea1005 			@ <UNDEFINED> instruction: 3eea1005
    1284:	11050000 			@ <UNDEFINED> instruction: 11050000
    1288:	00004255 			@ <UNDEFINED> instruction: 00004255
    128c:	3ac21205 			@ <UNDEFINED> instruction: 3ac21205
    1290:	14050000 			@ <UNDEFINED> instruction: 14050000
    1294:	00003712 			@ <UNDEFINED> instruction: 00003712
    1298:	26c01505 			@ <UNDEFINED> instruction: 26c01505
    129c:	16050000 			@ <UNDEFINED> instruction: 16050000
    12a0:	000049d1 	ldrdeq	r4, [r0], -r1
    12a4:	146b1805 			@ <UNDEFINED> instruction: 146b1805
    12a8:	05000000 			@ <UNDEFINED> instruction: 05000000
    12ac:	0e050000 			@ <UNDEFINED> instruction: 0e050000
    12b0:	00000d12 			@ <UNDEFINED> instruction: 00000d12
    12b4:	26551005 			@ <UNDEFINED> instruction: 26551005
    12b8:	11050000 			@ <UNDEFINED> instruction: 11050000
    12bc:	000006a5 			@ <UNDEFINED> instruction: 000006a5
    12c0:	43721305 			@ <UNDEFINED> instruction: 43721305
    12c4:	14050000 			@ <UNDEFINED> instruction: 14050000
    12c8:	00003047 			@ <UNDEFINED> instruction: 00003047
    12cc:	402d1605 			@ <UNDEFINED> instruction: 402d1605
    12d0:	17050000 			@ <UNDEFINED> instruction: 17050000
    12d4:	000033f1 	strdeq	r3, [r0], -r1
    12d8:	1c243e05 			@ <UNDEFINED> instruction: 1c243e05
    12dc:	05000000 			@ <UNDEFINED> instruction: 05000000
    12e0:	03e00200 			@ <UNDEFINED> instruction: 03e00200
    12e4:	df070000 			@ <UNDEFINED> instruction: df070000
    12e8:	03000000 	movweq	r0, #0
    12ec:	01030100 			@ <UNDEFINED> instruction: 01030100
    12f0:	06090305 			@ <UNDEFINED> instruction: 06090305
    12f4:	04880a05 			@ <UNDEFINED> instruction: 04880a05
    12f8:	0c030000 			@ <UNDEFINED> instruction: 0c030000
    12fc:	f5060502 			@ <UNDEFINED> instruction: f5060502
    1300:	0300002f 	movweq	r0, #47	@ 0x2f
    1304:	16050708 			@ <UNDEFINED> instruction: 16050708
    1308:	0000153e 			@ <UNDEFINED> instruction: 0000153e
    130c:	07081c03 			@ <UNDEFINED> instruction: 07081c03
    1310:	00000d56 			@ <UNDEFINED> instruction: 00000d56
    1314:	0d780704 			@ <UNDEFINED> instruction: 0d780704
    1318:	07040000 			@ <UNDEFINED> instruction: 07040000
    131c:	00000e06 			@ <UNDEFINED> instruction: 00000e06
    1320:	090d0304 			@ <UNDEFINED> instruction: 090d0304
    1324:	000e5707 			@ <UNDEFINED> instruction: 000e5707
    1328:	0e030400 			@ <UNDEFINED> instruction: 0e030400
    132c:	0f5a0703 			@ <UNDEFINED> instruction: 0f5a0703
    1330:	07040000 			@ <UNDEFINED> instruction: 07040000
    1334:	00000fc4 			@ <UNDEFINED> instruction: 00000fc4
    1338:	7f0d0504 			@ <UNDEFINED> instruction: 7f0d0504
    133c:	04000004 			@ <UNDEFINED> instruction: 04000004
    1340:	070a0203 			@ <UNDEFINED> instruction: 070a0203
    1344:	00001261 			@ <UNDEFINED> instruction: 00001261
    1348:	0b030304 			@ <UNDEFINED> instruction: 0b030304
    134c:	000bb107 			@ <UNDEFINED> instruction: 000bb107
    1350:	04030400 			@ <UNDEFINED> instruction: 04030400
    1354:	3a020504 			@ <UNDEFINED> instruction: 3a020504
    1358:	03000039 	movweq	r0, #57	@ 0x39
    135c:	07040b05 			@ <UNDEFINED> instruction: 07040b05
    1360:	00001271 			@ <UNDEFINED> instruction: 00001271
    1364:	0c050304 			@ <UNDEFINED> instruction: 0c050304
    1368:	4f3d0205 			@ <UNDEFINED> instruction: 4f3d0205
    136c:	08030000 			@ <UNDEFINED> instruction: 08030000
    1370:	bc02050d 			@ <UNDEFINED> instruction: bc02050d
    1374:	03000028 	movweq	r0, #40	@ 0x28
    1378:	02050e09 			@ <UNDEFINED> instruction: 02050e09
    137c:	00001412 			@ <UNDEFINED> instruction: 00001412
    1380:	070f0503 			@ <UNDEFINED> instruction: 070f0503
    1384:	000011fb 	strdeq	r1, [r0], -fp
    1388:	12110704 			@ <UNDEFINED> instruction: 12110704
    138c:	07040000 			@ <UNDEFINED> instruction: 07040000
    1390:	00001251 			@ <UNDEFINED> instruction: 00001251
    1394:	04090304 			@ <UNDEFINED> instruction: 04090304
    1398:	100a0304 			@ <UNDEFINED> instruction: 100a0304
    139c:	0013aa07 			@ <UNDEFINED> instruction: 0013aa07
    13a0:	d8070400 			@ <UNDEFINED> instruction: d8070400
    13a4:	04000013 			@ <UNDEFINED> instruction: 04000013
    13a8:	00050004 			@ <UNDEFINED> instruction: 00050004
    13ac:	9c020500 			@ <UNDEFINED> instruction: 9c020500
    13b0:	0500004a 			@ <UNDEFINED> instruction: 0500004a
    13b4:	004af408 			@ <UNDEFINED> instruction: 004af408
    13b8:	ed090500 			@ <UNDEFINED> instruction: ed090500
    13bc:	0500004d 			@ <UNDEFINED> instruction: 0500004d
    13c0:	004d2c0b 			@ <UNDEFINED> instruction: 004d2c0b
    13c4:	b70c0500 			@ <UNDEFINED> instruction: b70c0500
    13c8:	05000050 			@ <UNDEFINED> instruction: 05000050
    13cc:	004ea40e 			@ <UNDEFINED> instruction: 004ea40e
    13d0:	000f0500 			@ <UNDEFINED> instruction: 000f0500
    13d4:	0000004d 			@ <UNDEFINED> instruction: 0000004d
    13d8:	05000005 			@ <UNDEFINED> instruction: 05000005
    13dc:	00511a0e 			@ <UNDEFINED> instruction: 00511a0e
    13e0:	b5100500 			@ <UNDEFINED> instruction: b5100500
    13e4:	0500004a 			@ <UNDEFINED> instruction: 0500004a
    13e8:	00513511 			@ <UNDEFINED> instruction: 00513511
    13ec:	43120500 			@ <UNDEFINED> instruction: 43120500
    13f0:	05000050 			@ <UNDEFINED> instruction: 05000050
    13f4:	00509513 			@ <UNDEFINED> instruction: 00509513
    13f8:	07140500 			@ <UNDEFINED> instruction: 07140500
    13fc:	0500004e 			@ <UNDEFINED> instruction: 0500004e
    1400:	004e5415 			@ <UNDEFINED> instruction: 004e5415
    1404:	26160500 			@ <UNDEFINED> instruction: 26160500
    1408:	0500004f 			@ <UNDEFINED> instruction: 0500004f
    140c:	004dd619 			@ <UNDEFINED> instruction: 004dd619
    1410:	d01b0500 			@ <UNDEFINED> instruction: d01b0500
    1414:	0500004e 			@ <UNDEFINED> instruction: 0500004e
    1418:	004f461c 			@ <UNDEFINED> instruction: 004f461c
    141c:	961d0500 			@ <UNDEFINED> instruction: 961d0500
    1420:	0500004c 			@ <UNDEFINED> instruction: 0500004c
    1424:	004c1d1e 			@ <UNDEFINED> instruction: 004c1d1e
    1428:	841f0500 			@ <UNDEFINED> instruction: 841f0500
    142c:	0500004d 			@ <UNDEFINED> instruction: 0500004d
    1430:	004f9620 			@ <UNDEFINED> instruction: 004f9620
    1434:	a9210500 			@ <UNDEFINED> instruction: a9210500
    1438:	0500004b 			@ <UNDEFINED> instruction: 0500004b
    143c:	004ff523 			@ <UNDEFINED> instruction: 004ff523
    1440:	27240500 			@ <UNDEFINED> instruction: 27240500
    1444:	05000050 			@ <UNDEFINED> instruction: 05000050
    1448:	004b2625 			@ <UNDEFINED> instruction: 004b2625
    144c:	87260500 			@ <UNDEFINED> instruction: 87260500
    1450:	0000004b 			@ <UNDEFINED> instruction: 0000004b
    1454:	4d020005 			@ <UNDEFINED> instruction: 4d020005
    1458:	0700000b 			@ <UNDEFINED> instruction: 0700000b
    145c:	000000df 	ldrdeq	r0, [r0], -pc	@ <UNPREDICTABLE>
    1460:	03010003 	movweq	r0, #4099	@ 0x1003
    1464:	02050602 			@ <UNDEFINED> instruction: 02050602
    1468:	00004f3d 			@ <UNDEFINED> instruction: 00004f3d
    146c:	05070803 			@ <UNDEFINED> instruction: 05070803
    1470:	0028bc02 			@ <UNDEFINED> instruction: 0028bc02
    1474:	08080300 			@ <UNDEFINED> instruction: 08080300
    1478:	05090903 			@ <UNDEFINED> instruction: 05090903
    147c:	0004880a 			@ <UNDEFINED> instruction: 0004880a
    1480:	020c0300 			@ <UNDEFINED> instruction: 020c0300
    1484:	2ff50605 			@ <UNDEFINED> instruction: 2ff50605
    1488:	08030000 			@ <UNDEFINED> instruction: 08030000
    148c:	3e16050a 			@ <UNDEFINED> instruction: 3e16050a
    1490:	03000015 	movweq	r0, #21
    1494:	56070b1c 			@ <UNDEFINED> instruction: 56070b1c
    1498:	0400000d 			@ <UNDEFINED> instruction: 0400000d
    149c:	000d7807 			@ <UNDEFINED> instruction: 000d7807
    14a0:	06070400 			@ <UNDEFINED> instruction: 06070400
    14a4:	0400000e 			@ <UNDEFINED> instruction: 0400000e
    14a8:	070c0d03 			@ <UNDEFINED> instruction: 070c0d03
    14ac:	00000e57 			@ <UNDEFINED> instruction: 00000e57
    14b0:	030e0304 	movweq	r0, #58116	@ 0xe304
    14b4:	000f5a07 			@ <UNDEFINED> instruction: 000f5a07
    14b8:	c4070400 			@ <UNDEFINED> instruction: c4070400
    14bc:	0400000f 			@ <UNDEFINED> instruction: 0400000f
    14c0:	047f0d05 			@ <UNDEFINED> instruction: 047f0d05
    14c4:	03040000 	movweq	r0, #16384	@ 0x4000
    14c8:	02050d09 			@ <UNDEFINED> instruction: 02050d09
    14cc:	00001412 			@ <UNDEFINED> instruction: 00001412
    14d0:	070e0503 			@ <UNDEFINED> instruction: 070e0503
    14d4:	000011fb 	strdeq	r1, [r0], -fp
    14d8:	12110704 			@ <UNDEFINED> instruction: 12110704
    14dc:	07040000 			@ <UNDEFINED> instruction: 07040000
    14e0:	00001251 			@ <UNDEFINED> instruction: 00001251
    14e4:	04090304 			@ <UNDEFINED> instruction: 04090304
    14e8:	393a0205 			@ <UNDEFINED> instruction: 393a0205
    14ec:	05030000 			@ <UNDEFINED> instruction: 05030000
    14f0:	0bb1070f 			@ <UNDEFINED> instruction: 0bb1070f
    14f4:	03040000 	movweq	r0, #16384	@ 0x4000
    14f8:	61071006 			@ <UNDEFINED> instruction: 61071006
    14fc:	04000012 			@ <UNDEFINED> instruction: 04000012
    1500:	00127107 			@ <UNDEFINED> instruction: 00127107
    1504:	0a030400 			@ <UNDEFINED> instruction: 0a030400
    1508:	13aa0705 			@ <UNDEFINED> instruction: 13aa0705
    150c:	07040000 			@ <UNDEFINED> instruction: 07040000
    1510:	000013d8 	ldrdeq	r1, [r0], -r8
    1514:	Address 0x1514 is out of bounds.


Disassembly of section .debug_line:

00000000 <.debug_line>:
       0:	000003dc 	ldrdeq	r0, [r0], -ip
       4:	03790003 			@ <UNDEFINED> instruction: 03790003
       8:	01020000 			@ <UNDEFINED> instruction: 01020000
       c:	000d0efb 	strdeq	r0, [sp], -fp
      10:	01010101 			@ <UNDEFINED> instruction: 01010101
      14:	01000000 			@ <UNDEFINED> instruction: 01000000
      18:	44010000 			@ <UNDEFINED> instruction: 44010000
      1c:	6d632f3a 			@ <UNDEFINED> instruction: 6d632f3a
      20:	6a6f7270 			@ <UNDEFINED> instruction: 6a6f7270
      24:	6d74732f 			@ <UNDEFINED> instruction: 6d74732f
      28:	752f3233 			@ <UNDEFINED> instruction: 752f3233
      2c:	72756172 			@ <UNDEFINED> instruction: 72756172
      30:	2d632f61 			@ <UNDEFINED> instruction: 2d632f61
      34:	2f637273 			@ <UNDEFINED> instruction: 2f637273
      38:	00637253 			@ <UNDEFINED> instruction: 00637253
      3c:	555c3a43 			@ <UNDEFINED> instruction: 555c3a43
      40:	73726573 			@ <UNDEFINED> instruction: 73726573
      44:	4e41535c 			@ <UNDEFINED> instruction: 4e41535c
      48:	5c59414a 	mrrcpl	1, 4, r4, r9, cr10
      4c:	44707041 			@ <UNDEFINED> instruction: 44707041
      50:	5c617461 			@ <UNDEFINED> instruction: 5c617461
      54:	61636f4c 			@ <UNDEFINED> instruction: 61636f4c
      58:	74735c6c 			@ <UNDEFINED> instruction: 74735c6c
      5c:	6332336d 			@ <UNDEFINED> instruction: 6332336d
      60:	5c656275 			@ <UNDEFINED> instruction: 5c656275
      64:	646e7562 			@ <UNDEFINED> instruction: 646e7562
      68:	5c73656c 			@ <UNDEFINED> instruction: 5c73656c
      6c:	2d756e67 			@ <UNDEFINED> instruction: 2d756e67
      70:	6c6f6f74 			@ <UNDEFINED> instruction: 6c6f6f74
      74:	6f662d73 			@ <UNDEFINED> instruction: 6f662d73
      78:	74732d72 			@ <UNDEFINED> instruction: 74732d72
      7c:	5c32336d 			@ <UNDEFINED> instruction: 5c32336d
      80:	332e3431 			@ <UNDEFINED> instruction: 332e3431
      84:	732b312e 			@ <UNDEFINED> instruction: 732b312e
      88:	5c322e74 			@ <UNDEFINED> instruction: 5c322e74
      8c:	5c6e6962 			@ <UNDEFINED> instruction: 5c6e6962
      90:	6c2f2e2e 			@ <UNDEFINED> instruction: 6c2f2e2e
      94:	672f6269 			@ <UNDEFINED> instruction: 672f6269
      98:	612f6363 			@ <UNDEFINED> instruction: 612f6363
      9c:	6e2d6d72 			@ <UNDEFINED> instruction: 6e2d6d72
      a0:	2d656e6f 			@ <UNDEFINED> instruction: 2d656e6f
      a4:	69626165 			@ <UNDEFINED> instruction: 69626165
      a8:	2e34312f 			@ <UNDEFINED> instruction: 2e34312f
      ac:	2f312e33 			@ <UNDEFINED> instruction: 2f312e33
      b0:	2e2f2e2e 			@ <UNDEFINED> instruction: 2e2f2e2e
      b4:	2e2e2f2e 			@ <UNDEFINED> instruction: 2e2e2f2e
      b8:	2f2e2e2f 			@ <UNDEFINED> instruction: 2f2e2e2f
      bc:	2d6d7261 			@ <UNDEFINED> instruction: 2d6d7261
      c0:	656e6f6e 			@ <UNDEFINED> instruction: 656e6f6e
      c4:	6261652d 			@ <UNDEFINED> instruction: 6261652d
      c8:	6e692f69 			@ <UNDEFINED> instruction: 6e692f69
      cc:	64756c63 			@ <UNDEFINED> instruction: 64756c63
      d0:	616d2f65 			@ <UNDEFINED> instruction: 616d2f65
      d4:	6e696863 			@ <UNDEFINED> instruction: 6e696863
      d8:	3a430065 			@ <UNDEFINED> instruction: 3a430065
      dc:	6573555c 			@ <UNDEFINED> instruction: 6573555c
      e0:	535c7372 			@ <UNDEFINED> instruction: 535c7372
      e4:	414a4e41 			@ <UNDEFINED> instruction: 414a4e41
      e8:	70415c59 			@ <UNDEFINED> instruction: 70415c59
      ec:	74614470 			@ <UNDEFINED> instruction: 74614470
      f0:	6f4c5c61 			@ <UNDEFINED> instruction: 6f4c5c61
      f4:	5c6c6163 			@ <UNDEFINED> instruction: 5c6c6163
      f8:	336d7473 			@ <UNDEFINED> instruction: 336d7473
      fc:	62756332 			@ <UNDEFINED> instruction: 62756332
     100:	75625c65 			@ <UNDEFINED> instruction: 75625c65
     104:	656c646e 			@ <UNDEFINED> instruction: 656c646e
     108:	6e675c73 			@ <UNDEFINED> instruction: 6e675c73
     10c:	6f742d75 			@ <UNDEFINED> instruction: 6f742d75
     110:	2d736c6f 			@ <UNDEFINED> instruction: 2d736c6f
     114:	2d726f66 			@ <UNDEFINED> instruction: 2d726f66
     118:	336d7473 			@ <UNDEFINED> instruction: 336d7473
     11c:	34315c32 			@ <UNDEFINED> instruction: 34315c32
     120:	312e332e 			@ <UNDEFINED> instruction: 312e332e
     124:	2e74732b 			@ <UNDEFINED> instruction: 2e74732b
     128:	69625c32 			@ <UNDEFINED> instruction: 69625c32
     12c:	2e2e5c6e 			@ <UNDEFINED> instruction: 2e2e5c6e
     130:	62696c2f 			@ <UNDEFINED> instruction: 62696c2f
     134:	6363672f 			@ <UNDEFINED> instruction: 6363672f
     138:	6d72612f 			@ <UNDEFINED> instruction: 6d72612f
     13c:	6e6f6e2d 			@ <UNDEFINED> instruction: 6e6f6e2d
     140:	61652d65 			@ <UNDEFINED> instruction: 61652d65
     144:	312f6962 			@ <UNDEFINED> instruction: 312f6962
     148:	2e332e34 			@ <UNDEFINED> instruction: 2e332e34
     14c:	2e2e2f31 			@ <UNDEFINED> instruction: 2e2e2f31
     150:	2f2e2e2f 			@ <UNDEFINED> instruction: 2f2e2e2f
     154:	2e2f2e2e 			@ <UNDEFINED> instruction: 2e2f2e2e
     158:	72612f2e 			@ <UNDEFINED> instruction: 72612f2e
     15c:	6f6e2d6d 			@ <UNDEFINED> instruction: 6f6e2d6d
     160:	652d656e 			@ <UNDEFINED> instruction: 652d656e
     164:	2f696261 			@ <UNDEFINED> instruction: 2f696261
     168:	6c636e69 			@ <UNDEFINED> instruction: 6c636e69
     16c:	2f656475 			@ <UNDEFINED> instruction: 2f656475
     170:	00737973 			@ <UNDEFINED> instruction: 00737973
     174:	632f3a44 			@ <UNDEFINED> instruction: 632f3a44
     178:	6f72706d 			@ <UNDEFINED> instruction: 6f72706d
     17c:	74732f6a 			@ <UNDEFINED> instruction: 74732f6a
     180:	2f32336d 			@ <UNDEFINED> instruction: 2f32336d
     184:	75617275 			@ <UNDEFINED> instruction: 75617275
     188:	632f6172 			@ <UNDEFINED> instruction: 632f6172
     18c:	6372732d 			@ <UNDEFINED> instruction: 6372732d
     190:	636e492f 			@ <UNDEFINED> instruction: 636e492f
     194:	5c3a4300 			@ <UNDEFINED> instruction: 5c3a4300
     198:	72657355 			@ <UNDEFINED> instruction: 72657355
     19c:	41535c73 			@ <UNDEFINED> instruction: 41535c73
     1a0:	59414a4e 			@ <UNDEFINED> instruction: 59414a4e
     1a4:	7070415c 			@ <UNDEFINED> instruction: 7070415c
     1a8:	61746144 			@ <UNDEFINED> instruction: 61746144
     1ac:	636f4c5c 			@ <UNDEFINED> instruction: 636f4c5c
     1b0:	735c6c61 			@ <UNDEFINED> instruction: 735c6c61
     1b4:	32336d74 			@ <UNDEFINED> instruction: 32336d74
     1b8:	65627563 			@ <UNDEFINED> instruction: 65627563
     1bc:	6e75625c 			@ <UNDEFINED> instruction: 6e75625c
     1c0:	73656c64 			@ <UNDEFINED> instruction: 73656c64
     1c4:	756e675c 			@ <UNDEFINED> instruction: 756e675c
     1c8:	6f6f742d 			@ <UNDEFINED> instruction: 6f6f742d
     1cc:	662d736c 			@ <UNDEFINED> instruction: 662d736c
     1d0:	732d726f 			@ <UNDEFINED> instruction: 732d726f
     1d4:	32336d74 			@ <UNDEFINED> instruction: 32336d74
     1d8:	2e34315c 			@ <UNDEFINED> instruction: 2e34315c
     1dc:	2b312e33 			@ <UNDEFINED> instruction: 2b312e33
     1e0:	322e7473 			@ <UNDEFINED> instruction: 322e7473
     1e4:	6e69625c 			@ <UNDEFINED> instruction: 6e69625c
     1e8:	2f2e2e5c 			@ <UNDEFINED> instruction: 2f2e2e5c
     1ec:	2f62696c 			@ <UNDEFINED> instruction: 2f62696c
     1f0:	2f636367 			@ <UNDEFINED> instruction: 2f636367
     1f4:	2d6d7261 			@ <UNDEFINED> instruction: 2d6d7261
     1f8:	656e6f6e 			@ <UNDEFINED> instruction: 656e6f6e
     1fc:	6261652d 			@ <UNDEFINED> instruction: 6261652d
     200:	34312f69 			@ <UNDEFINED> instruction: 34312f69
     204:	312e332e 			@ <UNDEFINED> instruction: 312e332e
     208:	636e692f 			@ <UNDEFINED> instruction: 636e692f
     20c:	6564756c 			@ <UNDEFINED> instruction: 6564756c
     210:	5c3a4300 			@ <UNDEFINED> instruction: 5c3a4300
     214:	72657355 			@ <UNDEFINED> instruction: 72657355
     218:	41535c73 			@ <UNDEFINED> instruction: 41535c73
     21c:	59414a4e 			@ <UNDEFINED> instruction: 59414a4e
     220:	7070415c 			@ <UNDEFINED> instruction: 7070415c
     224:	61746144 			@ <UNDEFINED> instruction: 61746144
     228:	636f4c5c 			@ <UNDEFINED> instruction: 636f4c5c
     22c:	735c6c61 			@ <UNDEFINED> instruction: 735c6c61
     230:	32336d74 			@ <UNDEFINED> instruction: 32336d74
     234:	65627563 			@ <UNDEFINED> instruction: 65627563
     238:	6e75625c 			@ <UNDEFINED> instruction: 6e75625c
     23c:	73656c64 			@ <UNDEFINED> instruction: 73656c64
     240:	756e675c 			@ <UNDEFINED> instruction: 756e675c
     244:	6f6f742d 			@ <UNDEFINED> instruction: 6f6f742d
     248:	662d736c 			@ <UNDEFINED> instruction: 662d736c
     24c:	732d726f 			@ <UNDEFINED> instruction: 732d726f
     250:	32336d74 			@ <UNDEFINED> instruction: 32336d74
     254:	2e34315c 			@ <UNDEFINED> instruction: 2e34315c
     258:	2b312e33 			@ <UNDEFINED> instruction: 2b312e33
     25c:	322e7473 			@ <UNDEFINED> instruction: 322e7473
     260:	6e69625c 			@ <UNDEFINED> instruction: 6e69625c
     264:	2f2e2e5c 			@ <UNDEFINED> instruction: 2f2e2e5c
     268:	2f62696c 			@ <UNDEFINED> instruction: 2f62696c
     26c:	2f636367 			@ <UNDEFINED> instruction: 2f636367
     270:	2d6d7261 			@ <UNDEFINED> instruction: 2d6d7261
     274:	656e6f6e 			@ <UNDEFINED> instruction: 656e6f6e
     278:	6261652d 			@ <UNDEFINED> instruction: 6261652d
     27c:	34312f69 			@ <UNDEFINED> instruction: 34312f69
     280:	312e332e 			@ <UNDEFINED> instruction: 312e332e
     284:	2f2e2e2f 			@ <UNDEFINED> instruction: 2f2e2e2f
     288:	2e2f2e2e 			@ <UNDEFINED> instruction: 2e2f2e2e
     28c:	2e2e2f2e 			@ <UNDEFINED> instruction: 2e2e2f2e
     290:	6d72612f 			@ <UNDEFINED> instruction: 6d72612f
     294:	6e6f6e2d 			@ <UNDEFINED> instruction: 6e6f6e2d
     298:	61652d65 			@ <UNDEFINED> instruction: 61652d65
     29c:	692f6962 			@ <UNDEFINED> instruction: 692f6962
     2a0:	756c636e 			@ <UNDEFINED> instruction: 756c636e
     2a4:	00006564 			@ <UNDEFINED> instruction: 00006564
     2a8:	6e69616d 			@ <UNDEFINED> instruction: 6e69616d
     2ac:	0100632e 			@ <UNDEFINED> instruction: 0100632e
     2b0:	645f0000 			@ <UNDEFINED> instruction: 645f0000
     2b4:	75616665 			@ <UNDEFINED> instruction: 75616665
     2b8:	745f746c 			@ <UNDEFINED> instruction: 745f746c
     2bc:	73657079 			@ <UNDEFINED> instruction: 73657079
     2c0:	0200682e 			@ <UNDEFINED> instruction: 0200682e
     2c4:	735f0000 			@ <UNDEFINED> instruction: 735f0000
     2c8:	6e696474 			@ <UNDEFINED> instruction: 6e696474
     2cc:	00682e74 			@ <UNDEFINED> instruction: 00682e74
     2d0:	61000003 			@ <UNDEFINED> instruction: 61000003
     2d4:	00682e66 			@ <UNDEFINED> instruction: 00682e66
     2d8:	67000004 			@ <UNDEFINED> instruction: 67000004
     2dc:	2e6f6970 			@ <UNDEFINED> instruction: 2e6f6970
     2e0:	00040068 			@ <UNDEFINED> instruction: 00040068
     2e4:	64656c00 			@ <UNDEFINED> instruction: 64656c00
     2e8:	0400682e 			@ <UNDEFINED> instruction: 0400682e
     2ec:	68740000 			@ <UNDEFINED> instruction: 68740000
     2f0:	64616572 			@ <UNDEFINED> instruction: 64616572
     2f4:	0400682e 			@ <UNDEFINED> instruction: 0400682e
     2f8:	74730000 			@ <UNDEFINED> instruction: 74730000
     2fc:	66656464 			@ <UNDEFINED> instruction: 66656464
     300:	0500682e 			@ <UNDEFINED> instruction: 0500682e
     304:	74730000 			@ <UNDEFINED> instruction: 74730000
     308:	746e6964 			@ <UNDEFINED> instruction: 746e6964
     30c:	0500682e 			@ <UNDEFINED> instruction: 0500682e
     310:	74730000 			@ <UNDEFINED> instruction: 74730000
     314:	746e6964 			@ <UNDEFINED> instruction: 746e6964
     318:	0600682e 			@ <UNDEFINED> instruction: 0600682e
     31c:	65660000 			@ <UNDEFINED> instruction: 65660000
     320:	72757461 			@ <UNDEFINED> instruction: 72757461
     324:	682e7365 			@ <UNDEFINED> instruction: 682e7365
     328:	00000300 			@ <UNDEFINED> instruction: 00000300
     32c:	77656e5f 			@ <UNDEFINED> instruction: 77656e5f
     330:	5f62696c 			@ <UNDEFINED> instruction: 5f62696c
     334:	73726576 			@ <UNDEFINED> instruction: 73726576
     338:	2e6e6f69 			@ <UNDEFINED> instruction: 2e6e6f69
     33c:	00060068 			@ <UNDEFINED> instruction: 00060068
     340:	6e695f00 			@ <UNDEFINED> instruction: 6e695f00
     344:	70757374 			@ <UNDEFINED> instruction: 70757374
     348:	0300682e 	movweq	r6, #2094	@ 0x82e
     34c:	63720000 			@ <UNDEFINED> instruction: 63720000
     350:	00682e63 			@ <UNDEFINED> instruction: 00682e63
     354:	73000004 	movwvc	r0, #4
     358:	682e7379 			@ <UNDEFINED> instruction: 682e7379
     35c:	00000400 			@ <UNDEFINED> instruction: 00000400
     360:	62647473 			@ <UNDEFINED> instruction: 62647473
     364:	2e6c6f6f 			@ <UNDEFINED> instruction: 2e6c6f6f
     368:	00050068 			@ <UNDEFINED> instruction: 00050068
     36c:	63326900 			@ <UNDEFINED> instruction: 63326900
     370:	0400682e 			@ <UNDEFINED> instruction: 0400682e
     374:	69730000 			@ <UNDEFINED> instruction: 69730000
     378:	6c616e67 			@ <UNDEFINED> instruction: 6c616e67
     37c:	0400682e 			@ <UNDEFINED> instruction: 0400682e
     380:	05000000 			@ <UNDEFINED> instruction: 05000000
     384:	02050001 			@ <UNDEFINED> instruction: 02050001
     388:	00000000 			@ <UNDEFINED> instruction: 00000000
     38c:	05011f03 			@ <UNDEFINED> instruction: 05011f03
     390:	09054e14 			@ <UNDEFINED> instruction: 09054e14
     394:	0d0567ba 			@ <UNDEFINED> instruction: 0d0567ba
     398:	00050256 			@ <UNDEFINED> instruction: 00050256
     39c:	01050101 			@ <UNDEFINED> instruction: 01050101
     3a0:	00020500 			@ <UNDEFINED> instruction: 00020500
     3a4:	03000000 	movweq	r0, #0
     3a8:	14050129 			@ <UNDEFINED> instruction: 14050129
     3ac:	ba09054d 			@ <UNDEFINED> instruction: ba09054d
     3b0:	560d0567 			@ <UNDEFINED> instruction: 560d0567
     3b4:	01000502 			@ <UNDEFINED> instruction: 01000502
     3b8:	000c0501 			@ <UNDEFINED> instruction: 000c0501
     3bc:	03380205 			@ <UNDEFINED> instruction: 03380205
     3c0:	c5030800 			@ <UNDEFINED> instruction: c5030800
     3c4:	09050100 			@ <UNDEFINED> instruction: 09050100
     3c8:	301b053d 			@ <UNDEFINED> instruction: 301b053d
     3cc:	052e0905 			@ <UNDEFINED> instruction: 052e0905
     3d0:	0b053d17 			@ <UNDEFINED> instruction: 0b053d17
     3d4:	3d0c052e 			@ <UNDEFINED> instruction: 3d0c052e
     3d8:	02210105 			@ <UNDEFINED> instruction: 02210105
     3dc:	0101000a 			@ <UNDEFINED> instruction: 0101000a
     3e0:	00000769 			@ <UNDEFINED> instruction: 00000769
     3e4:	03690003 			@ <UNDEFINED> instruction: 03690003
     3e8:	01020000 			@ <UNDEFINED> instruction: 01020000
     3ec:	000d0efb 	strdeq	r0, [sp], -fp
     3f0:	01010101 			@ <UNDEFINED> instruction: 01010101
     3f4:	01000000 			@ <UNDEFINED> instruction: 01000000
     3f8:	44010000 			@ <UNDEFINED> instruction: 44010000
     3fc:	6d632f3a 			@ <UNDEFINED> instruction: 6d632f3a
     400:	6a6f7270 			@ <UNDEFINED> instruction: 6a6f7270
     404:	6d74732f 			@ <UNDEFINED> instruction: 6d74732f
     408:	752f3233 			@ <UNDEFINED> instruction: 752f3233
     40c:	72756172 			@ <UNDEFINED> instruction: 72756172
     410:	2d632f61 			@ <UNDEFINED> instruction: 2d632f61
     414:	2f637273 			@ <UNDEFINED> instruction: 2f637273
     418:	00637253 			@ <UNDEFINED> instruction: 00637253
     41c:	555c3a43 			@ <UNDEFINED> instruction: 555c3a43
     420:	73726573 			@ <UNDEFINED> instruction: 73726573
     424:	4e41535c 			@ <UNDEFINED> instruction: 4e41535c
     428:	5c59414a 	mrrcpl	1, 4, r4, r9, cr10
     42c:	44707041 			@ <UNDEFINED> instruction: 44707041
     430:	5c617461 			@ <UNDEFINED> instruction: 5c617461
     434:	61636f4c 			@ <UNDEFINED> instruction: 61636f4c
     438:	74735c6c 			@ <UNDEFINED> instruction: 74735c6c
     43c:	6332336d 			@ <UNDEFINED> instruction: 6332336d
     440:	5c656275 			@ <UNDEFINED> instruction: 5c656275
     444:	646e7562 			@ <UNDEFINED> instruction: 646e7562
     448:	5c73656c 			@ <UNDEFINED> instruction: 5c73656c
     44c:	2d756e67 			@ <UNDEFINED> instruction: 2d756e67
     450:	6c6f6f74 			@ <UNDEFINED> instruction: 6c6f6f74
     454:	6f662d73 			@ <UNDEFINED> instruction: 6f662d73
     458:	74732d72 			@ <UNDEFINED> instruction: 74732d72
     45c:	5c32336d 			@ <UNDEFINED> instruction: 5c32336d
     460:	332e3431 			@ <UNDEFINED> instruction: 332e3431
     464:	732b312e 			@ <UNDEFINED> instruction: 732b312e
     468:	5c322e74 			@ <UNDEFINED> instruction: 5c322e74
     46c:	5c6e6962 			@ <UNDEFINED> instruction: 5c6e6962
     470:	6c2f2e2e 			@ <UNDEFINED> instruction: 6c2f2e2e
     474:	672f6269 			@ <UNDEFINED> instruction: 672f6269
     478:	612f6363 			@ <UNDEFINED> instruction: 612f6363
     47c:	6e2d6d72 			@ <UNDEFINED> instruction: 6e2d6d72
     480:	2d656e6f 			@ <UNDEFINED> instruction: 2d656e6f
     484:	69626165 			@ <UNDEFINED> instruction: 69626165
     488:	2e34312f 			@ <UNDEFINED> instruction: 2e34312f
     48c:	2f312e33 			@ <UNDEFINED> instruction: 2f312e33
     490:	2e2f2e2e 			@ <UNDEFINED> instruction: 2e2f2e2e
     494:	2e2e2f2e 			@ <UNDEFINED> instruction: 2e2e2f2e
     498:	2f2e2e2f 			@ <UNDEFINED> instruction: 2f2e2e2f
     49c:	2d6d7261 			@ <UNDEFINED> instruction: 2d6d7261
     4a0:	656e6f6e 			@ <UNDEFINED> instruction: 656e6f6e
     4a4:	6261652d 			@ <UNDEFINED> instruction: 6261652d
     4a8:	6e692f69 			@ <UNDEFINED> instruction: 6e692f69
     4ac:	64756c63 			@ <UNDEFINED> instruction: 64756c63
     4b0:	616d2f65 			@ <UNDEFINED> instruction: 616d2f65
     4b4:	6e696863 			@ <UNDEFINED> instruction: 6e696863
     4b8:	3a430065 			@ <UNDEFINED> instruction: 3a430065
     4bc:	6573555c 			@ <UNDEFINED> instruction: 6573555c
     4c0:	535c7372 			@ <UNDEFINED> instruction: 535c7372
     4c4:	414a4e41 			@ <UNDEFINED> instruction: 414a4e41
     4c8:	70415c59 			@ <UNDEFINED> instruction: 70415c59
     4cc:	74614470 			@ <UNDEFINED> instruction: 74614470
     4d0:	6f4c5c61 			@ <UNDEFINED> instruction: 6f4c5c61
     4d4:	5c6c6163 			@ <UNDEFINED> instruction: 5c6c6163
     4d8:	336d7473 			@ <UNDEFINED> instruction: 336d7473
     4dc:	62756332 			@ <UNDEFINED> instruction: 62756332
     4e0:	75625c65 			@ <UNDEFINED> instruction: 75625c65
     4e4:	656c646e 			@ <UNDEFINED> instruction: 656c646e
     4e8:	6e675c73 			@ <UNDEFINED> instruction: 6e675c73
     4ec:	6f742d75 			@ <UNDEFINED> instruction: 6f742d75
     4f0:	2d736c6f 			@ <UNDEFINED> instruction: 2d736c6f
     4f4:	2d726f66 			@ <UNDEFINED> instruction: 2d726f66
     4f8:	336d7473 			@ <UNDEFINED> instruction: 336d7473
     4fc:	34315c32 			@ <UNDEFINED> instruction: 34315c32
     500:	312e332e 			@ <UNDEFINED> instruction: 312e332e
     504:	2e74732b 			@ <UNDEFINED> instruction: 2e74732b
     508:	69625c32 			@ <UNDEFINED> instruction: 69625c32
     50c:	2e2e5c6e 			@ <UNDEFINED> instruction: 2e2e5c6e
     510:	62696c2f 			@ <UNDEFINED> instruction: 62696c2f
     514:	6363672f 			@ <UNDEFINED> instruction: 6363672f
     518:	6d72612f 			@ <UNDEFINED> instruction: 6d72612f
     51c:	6e6f6e2d 			@ <UNDEFINED> instruction: 6e6f6e2d
     520:	61652d65 			@ <UNDEFINED> instruction: 61652d65
     524:	312f6962 			@ <UNDEFINED> instruction: 312f6962
     528:	2e332e34 			@ <UNDEFINED> instruction: 2e332e34
     52c:	2e2e2f31 			@ <UNDEFINED> instruction: 2e2e2f31
     530:	2f2e2e2f 			@ <UNDEFINED> instruction: 2f2e2e2f
     534:	2e2f2e2e 			@ <UNDEFINED> instruction: 2e2f2e2e
     538:	72612f2e 			@ <UNDEFINED> instruction: 72612f2e
     53c:	6f6e2d6d 			@ <UNDEFINED> instruction: 6f6e2d6d
     540:	652d656e 			@ <UNDEFINED> instruction: 652d656e
     544:	2f696261 			@ <UNDEFINED> instruction: 2f696261
     548:	6c636e69 			@ <UNDEFINED> instruction: 6c636e69
     54c:	2f656475 			@ <UNDEFINED> instruction: 2f656475
     550:	00737973 			@ <UNDEFINED> instruction: 00737973
     554:	632f3a44 			@ <UNDEFINED> instruction: 632f3a44
     558:	6f72706d 			@ <UNDEFINED> instruction: 6f72706d
     55c:	74732f6a 			@ <UNDEFINED> instruction: 74732f6a
     560:	2f32336d 			@ <UNDEFINED> instruction: 2f32336d
     564:	75617275 			@ <UNDEFINED> instruction: 75617275
     568:	632f6172 			@ <UNDEFINED> instruction: 632f6172
     56c:	6372732d 			@ <UNDEFINED> instruction: 6372732d
     570:	636e492f 			@ <UNDEFINED> instruction: 636e492f
     574:	5c3a4300 			@ <UNDEFINED> instruction: 5c3a4300
     578:	72657355 			@ <UNDEFINED> instruction: 72657355
     57c:	41535c73 			@ <UNDEFINED> instruction: 41535c73
     580:	59414a4e 			@ <UNDEFINED> instruction: 59414a4e
     584:	7070415c 			@ <UNDEFINED> instruction: 7070415c
     588:	61746144 			@ <UNDEFINED> instruction: 61746144
     58c:	636f4c5c 			@ <UNDEFINED> instruction: 636f4c5c
     590:	735c6c61 			@ <UNDEFINED> instruction: 735c6c61
     594:	32336d74 			@ <UNDEFINED> instruction: 32336d74
     598:	65627563 			@ <UNDEFINED> instruction: 65627563
     59c:	6e75625c 			@ <UNDEFINED> instruction: 6e75625c
     5a0:	73656c64 			@ <UNDEFINED> instruction: 73656c64
     5a4:	756e675c 			@ <UNDEFINED> instruction: 756e675c
     5a8:	6f6f742d 			@ <UNDEFINED> instruction: 6f6f742d
     5ac:	662d736c 			@ <UNDEFINED> instruction: 662d736c
     5b0:	732d726f 			@ <UNDEFINED> instruction: 732d726f
     5b4:	32336d74 			@ <UNDEFINED> instruction: 32336d74
     5b8:	2e34315c 			@ <UNDEFINED> instruction: 2e34315c
     5bc:	2b312e33 			@ <UNDEFINED> instruction: 2b312e33
     5c0:	322e7473 			@ <UNDEFINED> instruction: 322e7473
     5c4:	6e69625c 			@ <UNDEFINED> instruction: 6e69625c
     5c8:	2f2e2e5c 			@ <UNDEFINED> instruction: 2f2e2e5c
     5cc:	2f62696c 			@ <UNDEFINED> instruction: 2f62696c
     5d0:	2f636367 			@ <UNDEFINED> instruction: 2f636367
     5d4:	2d6d7261 			@ <UNDEFINED> instruction: 2d6d7261
     5d8:	656e6f6e 			@ <UNDEFINED> instruction: 656e6f6e
     5dc:	6261652d 			@ <UNDEFINED> instruction: 6261652d
     5e0:	34312f69 			@ <UNDEFINED> instruction: 34312f69
     5e4:	312e332e 			@ <UNDEFINED> instruction: 312e332e
     5e8:	636e692f 			@ <UNDEFINED> instruction: 636e692f
     5ec:	6564756c 			@ <UNDEFINED> instruction: 6564756c
     5f0:	5c3a4300 			@ <UNDEFINED> instruction: 5c3a4300
     5f4:	72657355 			@ <UNDEFINED> instruction: 72657355
     5f8:	41535c73 			@ <UNDEFINED> instruction: 41535c73
     5fc:	59414a4e 			@ <UNDEFINED> instruction: 59414a4e
     600:	7070415c 			@ <UNDEFINED> instruction: 7070415c
     604:	61746144 			@ <UNDEFINED> instruction: 61746144
     608:	636f4c5c 			@ <UNDEFINED> instruction: 636f4c5c
     60c:	735c6c61 			@ <UNDEFINED> instruction: 735c6c61
     610:	32336d74 			@ <UNDEFINED> instruction: 32336d74
     614:	65627563 			@ <UNDEFINED> instruction: 65627563
     618:	6e75625c 			@ <UNDEFINED> instruction: 6e75625c
     61c:	73656c64 			@ <UNDEFINED> instruction: 73656c64
     620:	756e675c 			@ <UNDEFINED> instruction: 756e675c
     624:	6f6f742d 			@ <UNDEFINED> instruction: 6f6f742d
     628:	662d736c 			@ <UNDEFINED> instruction: 662d736c
     62c:	732d726f 			@ <UNDEFINED> instruction: 732d726f
     630:	32336d74 			@ <UNDEFINED> instruction: 32336d74
     634:	2e34315c 			@ <UNDEFINED> instruction: 2e34315c
     638:	2b312e33 			@ <UNDEFINED> instruction: 2b312e33
     63c:	322e7473 			@ <UNDEFINED> instruction: 322e7473
     640:	6e69625c 			@ <UNDEFINED> instruction: 6e69625c
     644:	2f2e2e5c 			@ <UNDEFINED> instruction: 2f2e2e5c
     648:	2f62696c 			@ <UNDEFINED> instruction: 2f62696c
     64c:	2f636367 			@ <UNDEFINED> instruction: 2f636367
     650:	2d6d7261 			@ <UNDEFINED> instruction: 2d6d7261
     654:	656e6f6e 			@ <UNDEFINED> instruction: 656e6f6e
     658:	6261652d 			@ <UNDEFINED> instruction: 6261652d
     65c:	34312f69 			@ <UNDEFINED> instruction: 34312f69
     660:	312e332e 			@ <UNDEFINED> instruction: 312e332e
     664:	2f2e2e2f 			@ <UNDEFINED> instruction: 2f2e2e2f
     668:	2e2f2e2e 			@ <UNDEFINED> instruction: 2e2f2e2e
     66c:	2e2e2f2e 			@ <UNDEFINED> instruction: 2e2e2f2e
     670:	6d72612f 			@ <UNDEFINED> instruction: 6d72612f
     674:	6e6f6e2d 			@ <UNDEFINED> instruction: 6e6f6e2d
     678:	61652d65 			@ <UNDEFINED> instruction: 61652d65
     67c:	692f6962 			@ <UNDEFINED> instruction: 692f6962
     680:	756c636e 			@ <UNDEFINED> instruction: 756c636e
     684:	00006564 			@ <UNDEFINED> instruction: 00006564
     688:	65726874 			@ <UNDEFINED> instruction: 65726874
     68c:	632e6461 			@ <UNDEFINED> instruction: 632e6461
     690:	00000100 			@ <UNDEFINED> instruction: 00000100
     694:	6665645f 			@ <UNDEFINED> instruction: 6665645f
     698:	746c7561 			@ <UNDEFINED> instruction: 746c7561
     69c:	7079745f 			@ <UNDEFINED> instruction: 7079745f
     6a0:	682e7365 			@ <UNDEFINED> instruction: 682e7365
     6a4:	00000200 			@ <UNDEFINED> instruction: 00000200
     6a8:	6474735f 			@ <UNDEFINED> instruction: 6474735f
     6ac:	2e746e69 			@ <UNDEFINED> instruction: 2e746e69
     6b0:	00030068 			@ <UNDEFINED> instruction: 00030068
     6b4:	72687400 			@ <UNDEFINED> instruction: 72687400
     6b8:	2e646165 			@ <UNDEFINED> instruction: 2e646165
     6bc:	00040068 			@ <UNDEFINED> instruction: 00040068
     6c0:	64747300 			@ <UNDEFINED> instruction: 64747300
     6c4:	2e746e69 			@ <UNDEFINED> instruction: 2e746e69
     6c8:	00050068 			@ <UNDEFINED> instruction: 00050068
     6cc:	64747300 			@ <UNDEFINED> instruction: 64747300
     6d0:	2e746e69 			@ <UNDEFINED> instruction: 2e746e69
     6d4:	00060068 			@ <UNDEFINED> instruction: 00060068
     6d8:	61656600 			@ <UNDEFINED> instruction: 61656600
     6dc:	65727574 			@ <UNDEFINED> instruction: 65727574
     6e0:	00682e73 			@ <UNDEFINED> instruction: 00682e73
     6e4:	5f000003 			@ <UNDEFINED> instruction: 5f000003
     6e8:	6c77656e 			@ <UNDEFINED> instruction: 6c77656e
     6ec:	765f6269 			@ <UNDEFINED> instruction: 765f6269
     6f0:	69737265 			@ <UNDEFINED> instruction: 69737265
     6f4:	682e6e6f 			@ <UNDEFINED> instruction: 682e6e6f
     6f8:	00000600 			@ <UNDEFINED> instruction: 00000600
     6fc:	746e695f 			@ <UNDEFINED> instruction: 746e695f
     700:	2e707573 			@ <UNDEFINED> instruction: 2e707573
     704:	00030068 			@ <UNDEFINED> instruction: 00030068
     708:	64747300 			@ <UNDEFINED> instruction: 64747300
     70c:	6c6f6f62 			@ <UNDEFINED> instruction: 6c6f6f62
     710:	0500682e 			@ <UNDEFINED> instruction: 0500682e
     714:	74730000 			@ <UNDEFINED> instruction: 74730000
     718:	66656464 			@ <UNDEFINED> instruction: 66656464
     71c:	0500682e 			@ <UNDEFINED> instruction: 0500682e
     720:	69740000 			@ <UNDEFINED> instruction: 69740000
     724:	2e72656d 			@ <UNDEFINED> instruction: 2e72656d
     728:	00040068 			@ <UNDEFINED> instruction: 00040068
     72c:	64656c00 			@ <UNDEFINED> instruction: 64656c00
     730:	0400682e 			@ <UNDEFINED> instruction: 0400682e
     734:	70670000 			@ <UNDEFINED> instruction: 70670000
     738:	682e6f69 			@ <UNDEFINED> instruction: 682e6f69
     73c:	00000400 			@ <UNDEFINED> instruction: 00000400
     740:	682e6661 			@ <UNDEFINED> instruction: 682e6661
     744:	00000400 			@ <UNDEFINED> instruction: 00000400
     748:	6369766e 			@ <UNDEFINED> instruction: 6369766e
     74c:	0400682e 			@ <UNDEFINED> instruction: 0400682e
     750:	05000000 			@ <UNDEFINED> instruction: 05000000
     754:	02050001 			@ <UNDEFINED> instruction: 02050001
     758:	00000000 			@ <UNDEFINED> instruction: 00000000
     75c:	05011803 			@ <UNDEFINED> instruction: 05011803
     760:	01054b05 			@ <UNDEFINED> instruction: 01054b05
     764:	0005023d 			@ <UNDEFINED> instruction: 0005023d
     768:	01050101 			@ <UNDEFINED> instruction: 01050101
     76c:	00020500 			@ <UNDEFINED> instruction: 00020500
     770:	03000000 	movweq	r0, #0
     774:	0505011d 			@ <UNDEFINED> instruction: 0505011d
     778:	2f01052f 			@ <UNDEFINED> instruction: 2f01052f
     77c:	01000402 			@ <UNDEFINED> instruction: 01000402
     780:	00010501 			@ <UNDEFINED> instruction: 00010501
     784:	00000205 			@ <UNDEFINED> instruction: 00000205
     788:	21030000 			@ <UNDEFINED> instruction: 21030000
     78c:	2f050501 			@ <UNDEFINED> instruction: 2f050501
     790:	022f0105 			@ <UNDEFINED> instruction: 022f0105
     794:	01010004 			@ <UNDEFINED> instruction: 01010004
     798:	05000105 			@ <UNDEFINED> instruction: 05000105
     79c:	00036c02 			@ <UNDEFINED> instruction: 00036c02
     7a0:	01260308 			@ <UNDEFINED> instruction: 01260308
     7a4:	052f1005 			@ <UNDEFINED> instruction: 052f1005
     7a8:	07025901 			@ <UNDEFINED> instruction: 07025901
     7ac:	05010100 			@ <UNDEFINED> instruction: 05010100
     7b0:	02050001 			@ <UNDEFINED> instruction: 02050001
     7b4:	00000000 			@ <UNDEFINED> instruction: 00000000
     7b8:	05012b03 			@ <UNDEFINED> instruction: 05012b03
     7bc:	01052f05 			@ <UNDEFINED> instruction: 01052f05
     7c0:	00040221 			@ <UNDEFINED> instruction: 00040221
     7c4:	01050101 			@ <UNDEFINED> instruction: 01050101
     7c8:	88020500 			@ <UNDEFINED> instruction: 88020500
     7cc:	03080003 	movweq	r0, #32771	@ 0x8003
     7d0:	05050130 			@ <UNDEFINED> instruction: 05050130
     7d4:	200e052f 			@ <UNDEFINED> instruction: 200e052f
     7d8:	023d0105 			@ <UNDEFINED> instruction: 023d0105
     7dc:	01010006 			@ <UNDEFINED> instruction: 01010006
     7e0:	05000105 			@ <UNDEFINED> instruction: 05000105
     7e4:	0003a002 			@ <UNDEFINED> instruction: 0003a002
     7e8:	01350308 			@ <UNDEFINED> instruction: 01350308
     7ec:	052f0505 			@ <UNDEFINED> instruction: 052f0505
     7f0:	04022101 			@ <UNDEFINED> instruction: 04022101
     7f4:	05010100 			@ <UNDEFINED> instruction: 05010100
     7f8:	02050001 			@ <UNDEFINED> instruction: 02050001
     7fc:	00000000 			@ <UNDEFINED> instruction: 00000000
     800:	05013a03 			@ <UNDEFINED> instruction: 05013a03
     804:	01051405 			@ <UNDEFINED> instruction: 01051405
     808:	05051006 			@ <UNDEFINED> instruction: 05051006
     80c:	2f2f0622 			@ <UNDEFINED> instruction: 2f2f0622
     810:	13060105 	movwne	r0, #24837	@ 0x6105
     814:	022d0505 			@ <UNDEFINED> instruction: 022d0505
     818:	01010002 			@ <UNDEFINED> instruction: 01010002
     81c:	05000105 			@ <UNDEFINED> instruction: 05000105
     820:	0003b002 			@ <UNDEFINED> instruction: 0003b002
     824:	00c20308 			@ <UNDEFINED> instruction: 00c20308
     828:	13050501 	movwne	r0, #21761	@ 0x5501
     82c:	0c030105 			@ <UNDEFINED> instruction: 0c030105
     830:	000302e4 			@ <UNDEFINED> instruction: 000302e4
     834:	01050101 			@ <UNDEFINED> instruction: 01050101
     838:	d4020500 			@ <UNDEFINED> instruction: d4020500
     83c:	03080003 	movweq	r0, #32771	@ 0x8003
     840:	050100d2 			@ <UNDEFINED> instruction: 050100d2
     844:	052f6805 			@ <UNDEFINED> instruction: 052f6805
     848:	06022f01 			@ <UNDEFINED> instruction: 06022f01
     84c:	05010100 			@ <UNDEFINED> instruction: 05010100
     850:	02050001 			@ <UNDEFINED> instruction: 02050001
     854:	00000000 			@ <UNDEFINED> instruction: 00000000
     858:	0100d903 			@ <UNDEFINED> instruction: 0100d903
     85c:	05861305 			@ <UNDEFINED> instruction: 05861305
     860:	18052e05 			@ <UNDEFINED> instruction: 18052e05
     864:	900c0521 			@ <UNDEFINED> instruction: 900c0521
     868:	053d2905 			@ <UNDEFINED> instruction: 053d2905
     86c:	10052e16 			@ <UNDEFINED> instruction: 10052e16
     870:	3d17052f 			@ <UNDEFINED> instruction: 3d17052f
     874:	05301005 			@ <UNDEFINED> instruction: 05301005
     878:	053f4b17 			@ <UNDEFINED> instruction: 053f4b17
     87c:	1705592c 			@ <UNDEFINED> instruction: 1705592c
     880:	3d25052e 			@ <UNDEFINED> instruction: 3d25052e
     884:	05203905 			@ <UNDEFINED> instruction: 05203905
     888:	1b052e16 			@ <UNDEFINED> instruction: 1b052e16
     88c:	1d057523 			@ <UNDEFINED> instruction: 1d057523
     890:	201b053c 			@ <UNDEFINED> instruction: 201b053c
     894:	3c1d052f 			@ <UNDEFINED> instruction: 3c1d052f
     898:	2f201b05 			@ <UNDEFINED> instruction: 2f201b05
     89c:	67676767 			@ <UNDEFINED> instruction: 67676767
     8a0:	053c1d05 			@ <UNDEFINED> instruction: 053c1d05
     8a4:	1605201b 			@ <UNDEFINED> instruction: 1605201b
     8a8:	2e0d0531 			@ <UNDEFINED> instruction: 2e0d0531
     8ac:	05211f05 			@ <UNDEFINED> instruction: 05211f05
     8b0:	04020024 			@ <UNDEFINED> instruction: 04020024
     8b4:	1f056503 			@ <UNDEFINED> instruction: 1f056503
     8b8:	01040200 			@ <UNDEFINED> instruction: 01040200
     8bc:	4025053c 			@ <UNDEFINED> instruction: 4025053c
     8c0:	05911e05 			@ <UNDEFINED> instruction: 05911e05
     8c4:	1d059f21 			@ <UNDEFINED> instruction: 1d059f21
     8c8:	9f20059f 			@ <UNDEFINED> instruction: 9f20059f
     8cc:	059f1f05 			@ <UNDEFINED> instruction: 059f1f05
     8d0:	29055a0d 			@ <UNDEFINED> instruction: 29055a0d
     8d4:	02040200 			@ <UNDEFINED> instruction: 02040200
     8d8:	05205c03 			@ <UNDEFINED> instruction: 05205c03
     8dc:	0402001c 			@ <UNDEFINED> instruction: 0402001c
     8e0:	05053c01 			@ <UNDEFINED> instruction: 05053c01
     8e4:	054a2803 			@ <UNDEFINED> instruction: 054a2803
     8e8:	0c022101 			@ <UNDEFINED> instruction: 0c022101
     8ec:	05010100 			@ <UNDEFINED> instruction: 05010100
     8f0:	02050001 			@ <UNDEFINED> instruction: 02050001
     8f4:	080003f4 			@ <UNDEFINED> instruction: 080003f4
     8f8:	01018903 			@ <UNDEFINED> instruction: 01018903
     8fc:	053d1c05 			@ <UNDEFINED> instruction: 053d1c05
     900:	17052e08 			@ <UNDEFINED> instruction: 17052e08
     904:	3d09052f 			@ <UNDEFINED> instruction: 3d09052f
     908:	05241205 			@ <UNDEFINED> instruction: 05241205
     90c:	09053017 			@ <UNDEFINED> instruction: 09053017
     910:	2131052e 			@ <UNDEFINED> instruction: 2131052e
     914:	054a3605 			@ <UNDEFINED> instruction: 054a3605
     918:	1e052e16 			@ <UNDEFINED> instruction: 1e052e16
     91c:	90100568 			@ <UNDEFINED> instruction: 90100568
     920:	02005105 			@ <UNDEFINED> instruction: 02005105
     924:	052e0104 			@ <UNDEFINED> instruction: 052e0104
     928:	04020041 			@ <UNDEFINED> instruction: 04020041
     92c:	32059001 			@ <UNDEFINED> instruction: 32059001
     930:	01040200 			@ <UNDEFINED> instruction: 01040200
     934:	2f25052e 			@ <UNDEFINED> instruction: 2f25052e
     938:	05a12205 			@ <UNDEFINED> instruction: 05a12205
     93c:	1105900d 			@ <UNDEFINED> instruction: 1105900d
     940:	05820c03 			@ <UNDEFINED> instruction: 05820c03
     944:	20760324 			@ <UNDEFINED> instruction: 20760324
     948:	053d2105 			@ <UNDEFINED> instruction: 053d2105
     94c:	1105741f 			@ <UNDEFINED> instruction: 1105741f
     950:	241f052f 			@ <UNDEFINED> instruction: 241f052f
     954:	233d1105 			@ <UNDEFINED> instruction: 233d1105
     958:	052e7a03 			@ <UNDEFINED> instruction: 052e7a03
     95c:	04020038 			@ <UNDEFINED> instruction: 04020038
     960:	20730302 			@ <UNDEFINED> instruction: 20730302
     964:	02002105 			@ <UNDEFINED> instruction: 02002105
     968:	053c0104 			@ <UNDEFINED> instruction: 053c0104
     96c:	5817031c 			@ <UNDEFINED> instruction: 5817031c
     970:	052e0c05 			@ <UNDEFINED> instruction: 052e0c05
     974:	0d053d1b 			@ <UNDEFINED> instruction: 0d053d1b
     978:	2309053d 	movwcs	r0, #38205	@ 0x953d
     97c:	61030e05 			@ <UNDEFINED> instruction: 61030e05
     980:	0301052e 	movweq	r0, #5422	@ 0x152e
     984:	0e022021 			@ <UNDEFINED> instruction: 0e022021
     988:	05010100 			@ <UNDEFINED> instruction: 05010100
     98c:	02050001 			@ <UNDEFINED> instruction: 02050001
     990:	00000000 			@ <UNDEFINED> instruction: 00000000
     994:	0101b403 			@ <UNDEFINED> instruction: 0101b403
     998:	052f1705 			@ <UNDEFINED> instruction: 052f1705
     99c:	16052e08 			@ <UNDEFINED> instruction: 16052e08
     9a0:	2e1e052f 			@ <UNDEFINED> instruction: 2e1e052f
     9a4:	2f320505 			@ <UNDEFINED> instruction: 2f320505
     9a8:	01000402 			@ <UNDEFINED> instruction: 01000402
     9ac:	00010501 			@ <UNDEFINED> instruction: 00010501
     9b0:	00000205 			@ <UNDEFINED> instruction: 00000205
     9b4:	bf030000 			@ <UNDEFINED> instruction: bf030000
     9b8:	0c050101 			@ <UNDEFINED> instruction: 0c050101
     9bc:	2f01052f 			@ <UNDEFINED> instruction: 2f01052f
     9c0:	01000602 			@ <UNDEFINED> instruction: 01000602
     9c4:	00010501 			@ <UNDEFINED> instruction: 00010501
     9c8:	00000205 			@ <UNDEFINED> instruction: 00000205
     9cc:	c4030000 			@ <UNDEFINED> instruction: c4030000
     9d0:	05050101 			@ <UNDEFINED> instruction: 05050101
     9d4:	201e0567 			@ <UNDEFINED> instruction: 201e0567
     9d8:	053c0505 			@ <UNDEFINED> instruction: 053c0505
     9dc:	04023d01 			@ <UNDEFINED> instruction: 04023d01
     9e0:	05010100 			@ <UNDEFINED> instruction: 05010100
     9e4:	02050001 			@ <UNDEFINED> instruction: 02050001
     9e8:	00000000 			@ <UNDEFINED> instruction: 00000000
     9ec:	0101c903 			@ <UNDEFINED> instruction: 0101c903
     9f0:	054b1705 			@ <UNDEFINED> instruction: 054b1705
     9f4:	16052e08 			@ <UNDEFINED> instruction: 16052e08
     9f8:	2e1e052f 			@ <UNDEFINED> instruction: 2e1e052f
     9fc:	052f0c05 			@ <UNDEFINED> instruction: 052f0c05
     a00:	1a053d32 			@ <UNDEFINED> instruction: 1a053d32
     a04:	2e32052e 			@ <UNDEFINED> instruction: 2e32052e
     a08:	052e2405 			@ <UNDEFINED> instruction: 052e2405
     a0c:	01052305 			@ <UNDEFINED> instruction: 01052305
     a10:	0008022f 			@ <UNDEFINED> instruction: 0008022f
     a14:	01050101 			@ <UNDEFINED> instruction: 01050101
     a18:	00020500 			@ <UNDEFINED> instruction: 00020500
     a1c:	03000000 	movweq	r0, #0
     a20:	050101d4 			@ <UNDEFINED> instruction: 050101d4
     a24:	2c054b08 			@ <UNDEFINED> instruction: 2c054b08
     a28:	01040200 			@ <UNDEFINED> instruction: 01040200
     a2c:	001b053c 			@ <UNDEFINED> instruction: 001b053c
     a30:	90010402 			@ <UNDEFINED> instruction: 90010402
     a34:	052f1e05 			@ <UNDEFINED> instruction: 052f1e05
     a38:	0105a005 			@ <UNDEFINED> instruction: 0105a005
     a3c:	0006022f 			@ <UNDEFINED> instruction: 0006022f
     a40:	01050101 			@ <UNDEFINED> instruction: 01050101
     a44:	00020500 			@ <UNDEFINED> instruction: 00020500
     a48:	03000000 	movweq	r0, #0
     a4c:	050101dc 			@ <UNDEFINED> instruction: 050101dc
     a50:	01051405 			@ <UNDEFINED> instruction: 01051405
     a54:	49051006 			@ <UNDEFINED> instruction: 49051006
     a58:	01040200 			@ <UNDEFINED> instruction: 01040200
     a5c:	1d180525 			@ <UNDEFINED> instruction: 1d180525
     a60:	02002b05 			@ <UNDEFINED> instruction: 02002b05
     a64:	05230104 			@ <UNDEFINED> instruction: 05230104
     a68:	13052c11 	movwne	r2, #23569	@ 0x5c11
     a6c:	1e180521 			@ <UNDEFINED> instruction: 1e180521
     a70:	02002b05 			@ <UNDEFINED> instruction: 02002b05
     a74:	05230104 			@ <UNDEFINED> instruction: 05230104
     a78:	05052b18 			@ <UNDEFINED> instruction: 05052b18
     a7c:	11052106 			@ <UNDEFINED> instruction: 11052106
     a80:	05050106 			@ <UNDEFINED> instruction: 05050106
     a84:	13052106 	movwne	r2, #20742	@ 0x5106
     a88:	05050106 			@ <UNDEFINED> instruction: 05050106
     a8c:	2b052106 			@ <UNDEFINED> instruction: 2b052106
     a90:	04020001 			@ <UNDEFINED> instruction: 04020001
     a94:	05010601 			@ <UNDEFINED> instruction: 05010601
     a98:	05210609 			@ <UNDEFINED> instruction: 05210609
     a9c:	0200112b 			@ <UNDEFINED> instruction: 0200112b
     aa0:	01060104 			@ <UNDEFINED> instruction: 01060104
     aa4:	3d060905 			@ <UNDEFINED> instruction: 3d060905
     aa8:	00112b05 			@ <UNDEFINED> instruction: 00112b05
     aac:	06010402 			@ <UNDEFINED> instruction: 06010402
     ab0:	06090501 			@ <UNDEFINED> instruction: 06090501
     ab4:	112b054b 			@ <UNDEFINED> instruction: 112b054b
     ab8:	01040200 			@ <UNDEFINED> instruction: 01040200
     abc:	09050106 			@ <UNDEFINED> instruction: 09050106
     ac0:	2b054b06 			@ <UNDEFINED> instruction: 2b054b06
     ac4:	31050511 			@ <UNDEFINED> instruction: 31050511
     ac8:	03060105 	movweq	r0, #24837	@ 0x6105
     acc:	1b050113 			@ <UNDEFINED> instruction: 1b050113
     ad0:	05206b03 			@ <UNDEFINED> instruction: 05206b03
     ad4:	16300605 			@ <UNDEFINED> instruction: 16300605
     ad8:	15060f05 			@ <UNDEFINED> instruction: 15060f05
     adc:	052b1505 			@ <UNDEFINED> instruction: 052b1505
     ae0:	05054a13 			@ <UNDEFINED> instruction: 05054a13
     ae4:	0f052306 			@ <UNDEFINED> instruction: 0f052306
     ae8:	05050106 			@ <UNDEFINED> instruction: 05050106
     aec:	052e0a03 			@ <UNDEFINED> instruction: 052e0a03
     af0:	2e76030f 			@ <UNDEFINED> instruction: 2e76030f
     af4:	3d060505 			@ <UNDEFINED> instruction: 3d060505
     af8:	2e060f05 			@ <UNDEFINED> instruction: 2e060f05
     afc:	1e340e05 			@ <UNDEFINED> instruction: 1e340e05
     b00:	1b0f052f 			@ <UNDEFINED> instruction: 1b0f052f
     b04:	4d060505 			@ <UNDEFINED> instruction: 4d060505
     b08:	060e0513 			@ <UNDEFINED> instruction: 060e0513
     b0c:	06050501 			@ <UNDEFINED> instruction: 06050501
     b10:	060e052f 			@ <UNDEFINED> instruction: 060e052f
     b14:	06050501 			@ <UNDEFINED> instruction: 06050501
     b18:	060e052f 			@ <UNDEFINED> instruction: 060e052f
     b1c:	06050501 			@ <UNDEFINED> instruction: 06050501
     b20:	01052f31 			@ <UNDEFINED> instruction: 01052f31
     b24:	05051306 			@ <UNDEFINED> instruction: 05051306
     b28:	6e03062d 			@ <UNDEFINED> instruction: 6e03062d
     b2c:	000a024a 			@ <UNDEFINED> instruction: 000a024a
     b30:	01050101 			@ <UNDEFINED> instruction: 01050101
     b34:	00020500 			@ <UNDEFINED> instruction: 00020500
     b38:	03080005 	movweq	r0, #32773	@ 0x8005
     b3c:	050101fa 			@ <UNDEFINED> instruction: 050101fa
     b40:	01051305 			@ <UNDEFINED> instruction: 01051305
     b44:	3c081003 			@ <UNDEFINED> instruction: 3c081003
     b48:	01000402 			@ <UNDEFINED> instruction: 01000402
     b4c:	00058b01 			@ <UNDEFINED> instruction: 00058b01
     b50:	68000300 			@ <UNDEFINED> instruction: 68000300
     b54:	02000003 			@ <UNDEFINED> instruction: 02000003
     b58:	0d0efb01 	vstreq	d15, [lr, #-4]
     b5c:	01010100 			@ <UNDEFINED> instruction: 01010100
     b60:	00000001 			@ <UNDEFINED> instruction: 00000001
     b64:	01000001 			@ <UNDEFINED> instruction: 01000001
     b68:	632f3a44 			@ <UNDEFINED> instruction: 632f3a44
     b6c:	6f72706d 			@ <UNDEFINED> instruction: 6f72706d
     b70:	74732f6a 			@ <UNDEFINED> instruction: 74732f6a
     b74:	2f32336d 			@ <UNDEFINED> instruction: 2f32336d
     b78:	75617275 			@ <UNDEFINED> instruction: 75617275
     b7c:	632f6172 			@ <UNDEFINED> instruction: 632f6172
     b80:	6372732d 			@ <UNDEFINED> instruction: 6372732d
     b84:	6372532f 			@ <UNDEFINED> instruction: 6372532f
     b88:	5c3a4300 			@ <UNDEFINED> instruction: 5c3a4300
     b8c:	72657355 			@ <UNDEFINED> instruction: 72657355
     b90:	41535c73 			@ <UNDEFINED> instruction: 41535c73
     b94:	59414a4e 			@ <UNDEFINED> instruction: 59414a4e
     b98:	7070415c 			@ <UNDEFINED> instruction: 7070415c
     b9c:	61746144 			@ <UNDEFINED> instruction: 61746144
     ba0:	636f4c5c 			@ <UNDEFINED> instruction: 636f4c5c
     ba4:	735c6c61 			@ <UNDEFINED> instruction: 735c6c61
     ba8:	32336d74 			@ <UNDEFINED> instruction: 32336d74
     bac:	65627563 			@ <UNDEFINED> instruction: 65627563
     bb0:	6e75625c 			@ <UNDEFINED> instruction: 6e75625c
     bb4:	73656c64 			@ <UNDEFINED> instruction: 73656c64
     bb8:	756e675c 			@ <UNDEFINED> instruction: 756e675c
     bbc:	6f6f742d 			@ <UNDEFINED> instruction: 6f6f742d
     bc0:	662d736c 			@ <UNDEFINED> instruction: 662d736c
     bc4:	732d726f 			@ <UNDEFINED> instruction: 732d726f
     bc8:	32336d74 			@ <UNDEFINED> instruction: 32336d74
     bcc:	2e34315c 			@ <UNDEFINED> instruction: 2e34315c
     bd0:	2b312e33 			@ <UNDEFINED> instruction: 2b312e33
     bd4:	322e7473 			@ <UNDEFINED> instruction: 322e7473
     bd8:	6e69625c 			@ <UNDEFINED> instruction: 6e69625c
     bdc:	2f2e2e5c 			@ <UNDEFINED> instruction: 2f2e2e5c
     be0:	2f62696c 			@ <UNDEFINED> instruction: 2f62696c
     be4:	2f636367 			@ <UNDEFINED> instruction: 2f636367
     be8:	2d6d7261 			@ <UNDEFINED> instruction: 2d6d7261
     bec:	656e6f6e 			@ <UNDEFINED> instruction: 656e6f6e
     bf0:	6261652d 			@ <UNDEFINED> instruction: 6261652d
     bf4:	34312f69 			@ <UNDEFINED> instruction: 34312f69
     bf8:	312e332e 			@ <UNDEFINED> instruction: 312e332e
     bfc:	2f2e2e2f 			@ <UNDEFINED> instruction: 2f2e2e2f
     c00:	2e2f2e2e 			@ <UNDEFINED> instruction: 2e2f2e2e
     c04:	2e2e2f2e 			@ <UNDEFINED> instruction: 2e2e2f2e
     c08:	6d72612f 			@ <UNDEFINED> instruction: 6d72612f
     c0c:	6e6f6e2d 			@ <UNDEFINED> instruction: 6e6f6e2d
     c10:	61652d65 			@ <UNDEFINED> instruction: 61652d65
     c14:	692f6962 			@ <UNDEFINED> instruction: 692f6962
     c18:	756c636e 			@ <UNDEFINED> instruction: 756c636e
     c1c:	6d2f6564 			@ <UNDEFINED> instruction: 6d2f6564
     c20:	69686361 			@ <UNDEFINED> instruction: 69686361
     c24:	4300656e 	movwmi	r6, #1390	@ 0x56e
     c28:	73555c3a 			@ <UNDEFINED> instruction: 73555c3a
     c2c:	5c737265 			@ <UNDEFINED> instruction: 5c737265
     c30:	4a4e4153 			@ <UNDEFINED> instruction: 4a4e4153
     c34:	415c5941 			@ <UNDEFINED> instruction: 415c5941
     c38:	61447070 			@ <UNDEFINED> instruction: 61447070
     c3c:	4c5c6174 	mrrcmi	1, 7, r6, ip, cr4
     c40:	6c61636f 			@ <UNDEFINED> instruction: 6c61636f
     c44:	6d74735c 			@ <UNDEFINED> instruction: 6d74735c
     c48:	75633233 			@ <UNDEFINED> instruction: 75633233
     c4c:	625c6562 			@ <UNDEFINED> instruction: 625c6562
     c50:	6c646e75 			@ <UNDEFINED> instruction: 6c646e75
     c54:	675c7365 			@ <UNDEFINED> instruction: 675c7365
     c58:	742d756e 			@ <UNDEFINED> instruction: 742d756e
     c5c:	736c6f6f 			@ <UNDEFINED> instruction: 736c6f6f
     c60:	726f662d 			@ <UNDEFINED> instruction: 726f662d
     c64:	6d74732d 			@ <UNDEFINED> instruction: 6d74732d
     c68:	315c3233 			@ <UNDEFINED> instruction: 315c3233
     c6c:	2e332e34 			@ <UNDEFINED> instruction: 2e332e34
     c70:	74732b31 			@ <UNDEFINED> instruction: 74732b31
     c74:	625c322e 			@ <UNDEFINED> instruction: 625c322e
     c78:	2e5c6e69 			@ <UNDEFINED> instruction: 2e5c6e69
     c7c:	696c2f2e 			@ <UNDEFINED> instruction: 696c2f2e
     c80:	63672f62 			@ <UNDEFINED> instruction: 63672f62
     c84:	72612f63 			@ <UNDEFINED> instruction: 72612f63
     c88:	6f6e2d6d 			@ <UNDEFINED> instruction: 6f6e2d6d
     c8c:	652d656e 			@ <UNDEFINED> instruction: 652d656e
     c90:	2f696261 			@ <UNDEFINED> instruction: 2f696261
     c94:	332e3431 			@ <UNDEFINED> instruction: 332e3431
     c98:	2e2f312e 			@ <UNDEFINED> instruction: 2e2f312e
     c9c:	2e2e2f2e 			@ <UNDEFINED> instruction: 2e2e2f2e
     ca0:	2f2e2e2f 			@ <UNDEFINED> instruction: 2f2e2e2f
     ca4:	612f2e2e 			@ <UNDEFINED> instruction: 612f2e2e
     ca8:	6e2d6d72 			@ <UNDEFINED> instruction: 6e2d6d72
     cac:	2d656e6f 			@ <UNDEFINED> instruction: 2d656e6f
     cb0:	69626165 			@ <UNDEFINED> instruction: 69626165
     cb4:	636e692f 			@ <UNDEFINED> instruction: 636e692f
     cb8:	6564756c 			@ <UNDEFINED> instruction: 6564756c
     cbc:	7379732f 			@ <UNDEFINED> instruction: 7379732f
     cc0:	2f3a4400 			@ <UNDEFINED> instruction: 2f3a4400
     cc4:	72706d63 			@ <UNDEFINED> instruction: 72706d63
     cc8:	732f6a6f 			@ <UNDEFINED> instruction: 732f6a6f
     ccc:	32336d74 			@ <UNDEFINED> instruction: 32336d74
     cd0:	6172752f 			@ <UNDEFINED> instruction: 6172752f
     cd4:	2f617275 			@ <UNDEFINED> instruction: 2f617275
     cd8:	72732d63 			@ <UNDEFINED> instruction: 72732d63
     cdc:	6e492f63 			@ <UNDEFINED> instruction: 6e492f63
     ce0:	3a430063 			@ <UNDEFINED> instruction: 3a430063
     ce4:	6573555c 			@ <UNDEFINED> instruction: 6573555c
     ce8:	535c7372 			@ <UNDEFINED> instruction: 535c7372
     cec:	414a4e41 			@ <UNDEFINED> instruction: 414a4e41
     cf0:	70415c59 			@ <UNDEFINED> instruction: 70415c59
     cf4:	74614470 			@ <UNDEFINED> instruction: 74614470
     cf8:	6f4c5c61 			@ <UNDEFINED> instruction: 6f4c5c61
     cfc:	5c6c6163 			@ <UNDEFINED> instruction: 5c6c6163
     d00:	336d7473 			@ <UNDEFINED> instruction: 336d7473
     d04:	62756332 			@ <UNDEFINED> instruction: 62756332
     d08:	75625c65 			@ <UNDEFINED> instruction: 75625c65
     d0c:	656c646e 			@ <UNDEFINED> instruction: 656c646e
     d10:	6e675c73 			@ <UNDEFINED> instruction: 6e675c73
     d14:	6f742d75 			@ <UNDEFINED> instruction: 6f742d75
     d18:	2d736c6f 			@ <UNDEFINED> instruction: 2d736c6f
     d1c:	2d726f66 			@ <UNDEFINED> instruction: 2d726f66
     d20:	336d7473 			@ <UNDEFINED> instruction: 336d7473
     d24:	34315c32 			@ <UNDEFINED> instruction: 34315c32
     d28:	312e332e 			@ <UNDEFINED> instruction: 312e332e
     d2c:	2e74732b 			@ <UNDEFINED> instruction: 2e74732b
     d30:	69625c32 			@ <UNDEFINED> instruction: 69625c32
     d34:	2e2e5c6e 			@ <UNDEFINED> instruction: 2e2e5c6e
     d38:	62696c2f 			@ <UNDEFINED> instruction: 62696c2f
     d3c:	6363672f 			@ <UNDEFINED> instruction: 6363672f
     d40:	6d72612f 			@ <UNDEFINED> instruction: 6d72612f
     d44:	6e6f6e2d 			@ <UNDEFINED> instruction: 6e6f6e2d
     d48:	61652d65 			@ <UNDEFINED> instruction: 61652d65
     d4c:	312f6962 			@ <UNDEFINED> instruction: 312f6962
     d50:	2e332e34 			@ <UNDEFINED> instruction: 2e332e34
     d54:	6e692f31 			@ <UNDEFINED> instruction: 6e692f31
     d58:	64756c63 			@ <UNDEFINED> instruction: 64756c63
     d5c:	3a430065 			@ <UNDEFINED> instruction: 3a430065
     d60:	6573555c 			@ <UNDEFINED> instruction: 6573555c
     d64:	535c7372 			@ <UNDEFINED> instruction: 535c7372
     d68:	414a4e41 			@ <UNDEFINED> instruction: 414a4e41
     d6c:	70415c59 			@ <UNDEFINED> instruction: 70415c59
     d70:	74614470 			@ <UNDEFINED> instruction: 74614470
     d74:	6f4c5c61 			@ <UNDEFINED> instruction: 6f4c5c61
     d78:	5c6c6163 			@ <UNDEFINED> instruction: 5c6c6163
     d7c:	336d7473 			@ <UNDEFINED> instruction: 336d7473
     d80:	62756332 			@ <UNDEFINED> instruction: 62756332
     d84:	75625c65 			@ <UNDEFINED> instruction: 75625c65
     d88:	656c646e 			@ <UNDEFINED> instruction: 656c646e
     d8c:	6e675c73 			@ <UNDEFINED> instruction: 6e675c73
     d90:	6f742d75 			@ <UNDEFINED> instruction: 6f742d75
     d94:	2d736c6f 			@ <UNDEFINED> instruction: 2d736c6f
     d98:	2d726f66 			@ <UNDEFINED> instruction: 2d726f66
     d9c:	336d7473 			@ <UNDEFINED> instruction: 336d7473
     da0:	34315c32 			@ <UNDEFINED> instruction: 34315c32
     da4:	312e332e 			@ <UNDEFINED> instruction: 312e332e
     da8:	2e74732b 			@ <UNDEFINED> instruction: 2e74732b
     dac:	69625c32 			@ <UNDEFINED> instruction: 69625c32
     db0:	2e2e5c6e 			@ <UNDEFINED> instruction: 2e2e5c6e
     db4:	62696c2f 			@ <UNDEFINED> instruction: 62696c2f
     db8:	6363672f 			@ <UNDEFINED> instruction: 6363672f
     dbc:	6d72612f 			@ <UNDEFINED> instruction: 6d72612f
     dc0:	6e6f6e2d 			@ <UNDEFINED> instruction: 6e6f6e2d
     dc4:	61652d65 			@ <UNDEFINED> instruction: 61652d65
     dc8:	312f6962 			@ <UNDEFINED> instruction: 312f6962
     dcc:	2e332e34 			@ <UNDEFINED> instruction: 2e332e34
     dd0:	2e2e2f31 			@ <UNDEFINED> instruction: 2e2e2f31
     dd4:	2f2e2e2f 			@ <UNDEFINED> instruction: 2f2e2e2f
     dd8:	2e2f2e2e 			@ <UNDEFINED> instruction: 2e2f2e2e
     ddc:	72612f2e 			@ <UNDEFINED> instruction: 72612f2e
     de0:	6f6e2d6d 			@ <UNDEFINED> instruction: 6f6e2d6d
     de4:	652d656e 			@ <UNDEFINED> instruction: 652d656e
     de8:	2f696261 			@ <UNDEFINED> instruction: 2f696261
     dec:	6c636e69 			@ <UNDEFINED> instruction: 6c636e69
     df0:	00656475 			@ <UNDEFINED> instruction: 00656475
     df4:	6d697400 			@ <UNDEFINED> instruction: 6d697400
     df8:	632e7265 			@ <UNDEFINED> instruction: 632e7265
     dfc:	00000100 			@ <UNDEFINED> instruction: 00000100
     e00:	6665645f 			@ <UNDEFINED> instruction: 6665645f
     e04:	746c7561 			@ <UNDEFINED> instruction: 746c7561
     e08:	7079745f 			@ <UNDEFINED> instruction: 7079745f
     e0c:	682e7365 			@ <UNDEFINED> instruction: 682e7365
     e10:	00000200 			@ <UNDEFINED> instruction: 00000200
     e14:	6474735f 			@ <UNDEFINED> instruction: 6474735f
     e18:	2e746e69 			@ <UNDEFINED> instruction: 2e746e69
     e1c:	00030068 			@ <UNDEFINED> instruction: 00030068
     e20:	72687400 			@ <UNDEFINED> instruction: 72687400
     e24:	2e646165 			@ <UNDEFINED> instruction: 2e646165
     e28:	00040068 			@ <UNDEFINED> instruction: 00040068
     e2c:	69766e00 			@ <UNDEFINED> instruction: 69766e00
     e30:	00682e63 			@ <UNDEFINED> instruction: 00682e63
     e34:	74000004 			@ <UNDEFINED> instruction: 74000004
     e38:	72656d69 			@ <UNDEFINED> instruction: 72656d69
     e3c:	0400682e 			@ <UNDEFINED> instruction: 0400682e
     e40:	656c0000 			@ <UNDEFINED> instruction: 656c0000
     e44:	00682e64 			@ <UNDEFINED> instruction: 00682e64
     e48:	73000004 	movwvc	r0, #4
     e4c:	6e696474 			@ <UNDEFINED> instruction: 6e696474
     e50:	00682e74 			@ <UNDEFINED> instruction: 00682e74
     e54:	73000005 	movwvc	r0, #5
     e58:	6e696474 			@ <UNDEFINED> instruction: 6e696474
     e5c:	00682e74 			@ <UNDEFINED> instruction: 00682e74
     e60:	66000006 			@ <UNDEFINED> instruction: 66000006
     e64:	75746165 			@ <UNDEFINED> instruction: 75746165
     e68:	2e736572 			@ <UNDEFINED> instruction: 2e736572
     e6c:	00030068 			@ <UNDEFINED> instruction: 00030068
     e70:	656e5f00 			@ <UNDEFINED> instruction: 656e5f00
     e74:	62696c77 			@ <UNDEFINED> instruction: 62696c77
     e78:	7265765f 			@ <UNDEFINED> instruction: 7265765f
     e7c:	6e6f6973 			@ <UNDEFINED> instruction: 6e6f6973
     e80:	0600682e 			@ <UNDEFINED> instruction: 0600682e
     e84:	695f0000 			@ <UNDEFINED> instruction: 695f0000
     e88:	7573746e 			@ <UNDEFINED> instruction: 7573746e
     e8c:	00682e70 			@ <UNDEFINED> instruction: 00682e70
     e90:	67000003 			@ <UNDEFINED> instruction: 67000003
     e94:	2e6f6970 			@ <UNDEFINED> instruction: 2e6f6970
     e98:	00040068 			@ <UNDEFINED> instruction: 00040068
     e9c:	2e666100 			@ <UNDEFINED> instruction: 2e666100
     ea0:	00040068 			@ <UNDEFINED> instruction: 00040068
     ea4:	64747300 			@ <UNDEFINED> instruction: 64747300
     ea8:	2e666564 			@ <UNDEFINED> instruction: 2e666564
     eac:	00050068 			@ <UNDEFINED> instruction: 00050068
     eb0:	64747300 			@ <UNDEFINED> instruction: 64747300
     eb4:	6c6f6f62 			@ <UNDEFINED> instruction: 6c6f6f62
     eb8:	0500682e 			@ <UNDEFINED> instruction: 0500682e
     ebc:	05000000 			@ <UNDEFINED> instruction: 05000000
     ec0:	02050001 			@ <UNDEFINED> instruction: 02050001
     ec4:	00000000 			@ <UNDEFINED> instruction: 00000000
     ec8:	59050516 			@ <UNDEFINED> instruction: 59050516
     ecc:	30081405 			@ <UNDEFINED> instruction: 30081405
     ed0:	30303030 			@ <UNDEFINED> instruction: 30303030
     ed4:	02220105 			@ <UNDEFINED> instruction: 02220105
     ed8:	01010005 			@ <UNDEFINED> instruction: 01010005
     edc:	05000105 			@ <UNDEFINED> instruction: 05000105
     ee0:	00000002 			@ <UNDEFINED> instruction: 00000002
     ee4:	01240300 			@ <UNDEFINED> instruction: 01240300
     ee8:	05590505 			@ <UNDEFINED> instruction: 05590505
     eec:	01059e15 			@ <UNDEFINED> instruction: 01059e15
     ef0:	0005023d 			@ <UNDEFINED> instruction: 0005023d
     ef4:	01050101 			@ <UNDEFINED> instruction: 01050101
     ef8:	30020500 			@ <UNDEFINED> instruction: 30020500
     efc:	03080005 	movweq	r0, #32773	@ 0x8005
     f00:	15050129 			@ <UNDEFINED> instruction: 15050129
     f04:	58050559 			@ <UNDEFINED> instruction: 58050559
     f08:	05581505 			@ <UNDEFINED> instruction: 05581505
     f0c:	05023d01 			@ <UNDEFINED> instruction: 05023d01
     f10:	05010100 			@ <UNDEFINED> instruction: 05010100
     f14:	02050001 			@ <UNDEFINED> instruction: 02050001
     f18:	0800055e 			@ <UNDEFINED> instruction: 0800055e
     f1c:	05012e03 			@ <UNDEFINED> instruction: 05012e03
     f20:	17055909 			@ <UNDEFINED> instruction: 17055909
     f24:	2e080558 			@ <UNDEFINED> instruction: 2e080558
     f28:	052f1705 			@ <UNDEFINED> instruction: 052f1705
     f2c:	17055809 			@ <UNDEFINED> instruction: 17055809
     f30:	3e010558 			@ <UNDEFINED> instruction: 3e010558
     f34:	01000502 			@ <UNDEFINED> instruction: 01000502
     f38:	00010501 			@ <UNDEFINED> instruction: 00010501
     f3c:	00000205 			@ <UNDEFINED> instruction: 00000205
     f40:	3a030000 			@ <UNDEFINED> instruction: 3a030000
     f44:	59050501 			@ <UNDEFINED> instruction: 59050501
     f48:	059e1405 			@ <UNDEFINED> instruction: 059e1405
     f4c:	05023d01 			@ <UNDEFINED> instruction: 05023d01
     f50:	05010100 			@ <UNDEFINED> instruction: 05010100
     f54:	02050001 			@ <UNDEFINED> instruction: 02050001
     f58:	00000000 			@ <UNDEFINED> instruction: 00000000
     f5c:	05013f03 			@ <UNDEFINED> instruction: 05013f03
     f60:	01052f05 			@ <UNDEFINED> instruction: 01052f05
     f64:	00040221 			@ <UNDEFINED> instruction: 00040221
     f68:	01050101 			@ <UNDEFINED> instruction: 01050101
     f6c:	00020500 			@ <UNDEFINED> instruction: 00020500
     f70:	03000000 	movweq	r0, #0
     f74:	050100c4 			@ <UNDEFINED> instruction: 050100c4
     f78:	14055905 			@ <UNDEFINED> instruction: 14055905
     f7c:	2f130558 			@ <UNDEFINED> instruction: 2f130558
     f80:	054a0505 			@ <UNDEFINED> instruction: 054a0505
     f84:	05053c13 			@ <UNDEFINED> instruction: 05053c13
     f88:	4b01053d 			@ <UNDEFINED> instruction: 4b01053d
     f8c:	01000402 			@ <UNDEFINED> instruction: 01000402
     f90:	00010501 			@ <UNDEFINED> instruction: 00010501
     f94:	00000205 			@ <UNDEFINED> instruction: 00000205
     f98:	cb030000 			@ <UNDEFINED> instruction: cb030000
     f9c:	05050100 			@ <UNDEFINED> instruction: 05050100
     fa0:	74130559 			@ <UNDEFINED> instruction: 74130559
     fa4:	023d0105 			@ <UNDEFINED> instruction: 023d0105
     fa8:	01010005 			@ <UNDEFINED> instruction: 01010005
     fac:	05000105 			@ <UNDEFINED> instruction: 05000105
     fb0:	00000002 			@ <UNDEFINED> instruction: 00000002
     fb4:	00d00300 			@ <UNDEFINED> instruction: 00d00300
     fb8:	59160501 			@ <UNDEFINED> instruction: 59160501
     fbc:	05672005 			@ <UNDEFINED> instruction: 05672005
     fc0:	20053c05 			@ <UNDEFINED> instruction: 20053c05
     fc4:	2e140590 			@ <UNDEFINED> instruction: 2e140590
     fc8:	02210105 			@ <UNDEFINED> instruction: 02210105
     fcc:	01010004 			@ <UNDEFINED> instruction: 01010004
     fd0:	05000105 			@ <UNDEFINED> instruction: 05000105
     fd4:	00000002 			@ <UNDEFINED> instruction: 00000002
     fd8:	00d60300 			@ <UNDEFINED> instruction: 00d60300
     fdc:	67050501 			@ <UNDEFINED> instruction: 67050501
     fe0:	05582005 			@ <UNDEFINED> instruction: 05582005
     fe4:	01052e14 			@ <UNDEFINED> instruction: 01052e14
     fe8:	00050221 			@ <UNDEFINED> instruction: 00050221
     fec:	01050101 			@ <UNDEFINED> instruction: 01050101
     ff0:	00020500 			@ <UNDEFINED> instruction: 00020500
     ff4:	03000000 	movweq	r0, #0
     ff8:	050100db 			@ <UNDEFINED> instruction: 050100db
     ffc:	1a056705 			@ <UNDEFINED> instruction: 1a056705
    1000:	2e140558 			@ <UNDEFINED> instruction: 2e140558
    1004:	02210105 			@ <UNDEFINED> instruction: 02210105
    1008:	01010005 			@ <UNDEFINED> instruction: 01010005
    100c:	05000105 			@ <UNDEFINED> instruction: 05000105
    1010:	00000002 			@ <UNDEFINED> instruction: 00000002
    1014:	00e00300 			@ <UNDEFINED> instruction: 00e00300
    1018:	83050501 	movwhi	r0, #21761	@ 0x5501
    101c:	2020054b 			@ <UNDEFINED> instruction: 2020054b
    1020:	593c0505 			@ <UNDEFINED> instruction: 593c0505
    1024:	4b01054b 			@ <UNDEFINED> instruction: 4b01054b
    1028:	01000402 			@ <UNDEFINED> instruction: 01000402
    102c:	00010501 			@ <UNDEFINED> instruction: 00010501
    1030:	00000205 			@ <UNDEFINED> instruction: 00000205
    1034:	e8030000 			@ <UNDEFINED> instruction: e8030000
    1038:	02680100 			@ <UNDEFINED> instruction: 02680100
    103c:	01010005 			@ <UNDEFINED> instruction: 01010005
    1040:	05000105 			@ <UNDEFINED> instruction: 05000105
    1044:	00000002 			@ <UNDEFINED> instruction: 00000002
    1048:	00ed0300 			@ <UNDEFINED> instruction: 00ed0300
    104c:	30050501 			@ <UNDEFINED> instruction: 30050501
    1050:	69676759 			@ <UNDEFINED> instruction: 69676759
    1054:	4c4b4b3d 	vmovmi	d29, r4, fp
    1058:	4c4b4b3d 	vmovmi	d29, r4, fp
    105c:	4d4b4b3d 	vstrmi	d20, [fp, #-244]	@ 0xffffff0c
    1060:	4c4b4b3d 	vmovmi	d29, r4, fp
    1064:	022f0105 			@ <UNDEFINED> instruction: 022f0105
    1068:	01010002 			@ <UNDEFINED> instruction: 01010002
    106c:	05000105 			@ <UNDEFINED> instruction: 05000105
    1070:	00059e02 			@ <UNDEFINED> instruction: 00059e02
    1074:	018e0308 			@ <UNDEFINED> instruction: 018e0308
    1078:	750d0501 			@ <UNDEFINED> instruction: 750d0501
    107c:	4b2f0505 			@ <UNDEFINED> instruction: 4b2f0505
    1080:	024b0105 			@ <UNDEFINED> instruction: 024b0105
    1084:	01010007 			@ <UNDEFINED> instruction: 01010007
    1088:	05000105 			@ <UNDEFINED> instruction: 05000105
    108c:	0005ce02 			@ <UNDEFINED> instruction: 0005ce02
    1090:	01950308 			@ <UNDEFINED> instruction: 01950308
    1094:	750d0501 			@ <UNDEFINED> instruction: 750d0501
    1098:	4b3d0505 			@ <UNDEFINED> instruction: 4b3d0505
    109c:	024b0105 			@ <UNDEFINED> instruction: 024b0105
    10a0:	01010007 			@ <UNDEFINED> instruction: 01010007
    10a4:	05000105 			@ <UNDEFINED> instruction: 05000105
    10a8:	00060002 			@ <UNDEFINED> instruction: 00060002
    10ac:	019c0308 			@ <UNDEFINED> instruction: 019c0308
    10b0:	750d0501 			@ <UNDEFINED> instruction: 750d0501
    10b4:	4b3d0505 			@ <UNDEFINED> instruction: 4b3d0505
    10b8:	024b0105 			@ <UNDEFINED> instruction: 024b0105
    10bc:	01010007 			@ <UNDEFINED> instruction: 01010007
    10c0:	05000105 			@ <UNDEFINED> instruction: 05000105
    10c4:	00063202 			@ <UNDEFINED> instruction: 00063202
    10c8:	01a30308 			@ <UNDEFINED> instruction: 01a30308
    10cc:	750d0501 			@ <UNDEFINED> instruction: 750d0501
    10d0:	4b3d0505 			@ <UNDEFINED> instruction: 4b3d0505
    10d4:	024b0105 			@ <UNDEFINED> instruction: 024b0105
    10d8:	01010007 			@ <UNDEFINED> instruction: 01010007
    10dc:	00000077 			@ <UNDEFINED> instruction: 00000077
    10e0:	00040005 			@ <UNDEFINED> instruction: 00040005
    10e4:	0000002e 			@ <UNDEFINED> instruction: 0000002e
    10e8:	fb010102 	blx	414fa <_Min_Stack_Size+0x410fa>
    10ec:	01000d0e 			@ <UNDEFINED> instruction: 01000d0e
    10f0:	00010101 			@ <UNDEFINED> instruction: 00010101
    10f4:	00010000 			@ <UNDEFINED> instruction: 00010000
    10f8:	01010100 			@ <UNDEFINED> instruction: 01010100
    10fc:	0000021f 			@ <UNDEFINED> instruction: 0000021f
    1100:	00290000 			@ <UNDEFINED> instruction: 00290000
    1104:	01020000 			@ <UNDEFINED> instruction: 01020000
    1108:	020f021f 			@ <UNDEFINED> instruction: 020f021f
    110c:	0000004a 			@ <UNDEFINED> instruction: 0000004a
    1110:	00004a01 			@ <UNDEFINED> instruction: 00004a01
    1114:	05000100 			@ <UNDEFINED> instruction: 05000100
    1118:	00066402 			@ <UNDEFINED> instruction: 00066402
    111c:	01370308 			@ <UNDEFINED> instruction: 01370308
    1120:	21312221 			@ <UNDEFINED> instruction: 21312221
    1124:	23212121 			@ <UNDEFINED> instruction: 23212121
    1128:	21232121 			@ <UNDEFINED> instruction: 21232121
    112c:	21212321 			@ <UNDEFINED> instruction: 21212321
    1130:	23212321 			@ <UNDEFINED> instruction: 23212321
    1134:	31302321 			@ <UNDEFINED> instruction: 31302321
    1138:	34205603 			@ <UNDEFINED> instruction: 34205603
    113c:	0f032f2f 			@ <UNDEFINED> instruction: 0f032f2f
    1140:	02022f2e 			@ <UNDEFINED> instruction: 02022f2e
    1144:	00010100 			@ <UNDEFINED> instruction: 00010100
    1148:	06b40205 			@ <UNDEFINED> instruction: 06b40205
    114c:	f0030800 			@ <UNDEFINED> instruction: f0030800
    1150:	01020100 			@ <UNDEFINED> instruction: 01020100
    1154:	Address 0x1154 is out of bounds.


Disassembly of section .debug_str:

00000000 <.debug_str>:
       0:	544e4957 			@ <UNDEFINED> instruction: 544e4957
       4:	4e494d5f 			@ <UNDEFINED> instruction: 4e494d5f
       8:	5f5f2820 			@ <UNDEFINED> instruction: 5f5f2820
       c:	544e4957 			@ <UNDEFINED> instruction: 544e4957
      10:	4e494d5f 			@ <UNDEFINED> instruction: 4e494d5f
      14:	00295f5f 			@ <UNDEFINED> instruction: 00295f5f
      18:	45445f5f 			@ <UNDEFINED> instruction: 45445f5f
      1c:	414d4943 			@ <UNDEFINED> instruction: 414d4943
      20:	49445f4c 			@ <UNDEFINED> instruction: 49445f4c
      24:	205f5f47 			@ <UNDEFINED> instruction: 205f5f47
      28:	5f003731 			@ <UNDEFINED> instruction: 5f003731
      2c:	4148555f 			@ <UNDEFINED> instruction: 4148555f
      30:	4942465f 			@ <UNDEFINED> instruction: 4942465f
      34:	205f5f54 			@ <UNDEFINED> instruction: 205f5f54
      38:	5f5f0038 			@ <UNDEFINED> instruction: 5f5f0038
      3c:	44495653 			@ <UNDEFINED> instruction: 44495653
      40:	5349565f 	movtpl	r5, #38495	@ 0x965f
      44:	454c4249 			@ <UNDEFINED> instruction: 454c4249
      48:	47003120 			@ <UNDEFINED> instruction: 47003120
      4c:	5f4f4950 			@ <UNDEFINED> instruction: 5f4f4950
      50:	464e4f43 			@ <UNDEFINED> instruction: 464e4f43
      54:	70284749 			@ <UNDEFINED> instruction: 70284749
      58:	5f74726f 			@ <UNDEFINED> instruction: 5f74726f
      5c:	6e69702c 			@ <UNDEFINED> instruction: 6e69702c
      60:	6f6d2c5f 			@ <UNDEFINED> instruction: 6f6d2c5f
      64:	2c5f6564 	mrrccs	5, 6, r6, pc, cr4	@ <UNPREDICTABLE>
      68:	7074756f 			@ <UNDEFINED> instruction: 7074756f
      6c:	745f7475 			@ <UNDEFINED> instruction: 745f7475
      70:	5f657079 			@ <UNDEFINED> instruction: 5f657079
      74:	6c75702c 			@ <UNDEFINED> instruction: 6c75702c
      78:	612c5f6c 			@ <UNDEFINED> instruction: 612c5f6c
      7c:	20295f66 			@ <UNDEFINED> instruction: 20295f66
      80:	50472828 			@ <UNDEFINED> instruction: 50472828
      84:	7b294f49 			@ <UNDEFINED> instruction: 7b294f49
      88:	6f702e20 			@ <UNDEFINED> instruction: 6f702e20
      8c:	3d207472 			@ <UNDEFINED> instruction: 3d207472
      90:	50472820 			@ <UNDEFINED> instruction: 50472820
      94:	525f4f49 			@ <UNDEFINED> instruction: 525f4f49
      98:	73696765 			@ <UNDEFINED> instruction: 73696765
      9c:	73726574 			@ <UNDEFINED> instruction: 73726574
      a0:	28292a20 			@ <UNDEFINED> instruction: 28292a20
      a4:	74726f70 			@ <UNDEFINED> instruction: 74726f70
      a8:	202c295f 			@ <UNDEFINED> instruction: 202c295f
      ac:	6e69702e 			@ <UNDEFINED> instruction: 6e69702e
      b0:	28203d20 			@ <UNDEFINED> instruction: 28203d20
      b4:	5f6e6970 			@ <UNDEFINED> instruction: 5f6e6970
      b8:	2e202c29 			@ <UNDEFINED> instruction: 2e202c29
      bc:	65646f6d 			@ <UNDEFINED> instruction: 65646f6d
      c0:	28203d20 			@ <UNDEFINED> instruction: 28203d20
      c4:	65646f6d 			@ <UNDEFINED> instruction: 65646f6d
      c8:	202c295f 			@ <UNDEFINED> instruction: 202c295f
      cc:	74756f2e 			@ <UNDEFINED> instruction: 74756f2e
      d0:	54747570 			@ <UNDEFINED> instruction: 54747570
      d4:	20657079 			@ <UNDEFINED> instruction: 20657079
      d8:	6f28203d 			@ <UNDEFINED> instruction: 6f28203d
      dc:	75707475 			@ <UNDEFINED> instruction: 75707475
      e0:	79745f74 			@ <UNDEFINED> instruction: 79745f74
      e4:	295f6570 			@ <UNDEFINED> instruction: 295f6570
      e8:	702e202c 			@ <UNDEFINED> instruction: 702e202c
      ec:	206c6c75 			@ <UNDEFINED> instruction: 206c6c75
      f0:	7028203d 			@ <UNDEFINED> instruction: 7028203d
      f4:	5f6c6c75 			@ <UNDEFINED> instruction: 5f6c6c75
      f8:	2e202c29 			@ <UNDEFINED> instruction: 2e202c29
      fc:	65746c61 			@ <UNDEFINED> instruction: 65746c61
     100:	74616e72 			@ <UNDEFINED> instruction: 74616e72
     104:	6e754665 			@ <UNDEFINED> instruction: 6e754665
     108:	6f697463 			@ <UNDEFINED> instruction: 6f697463
     10c:	203d206e 			@ <UNDEFINED> instruction: 203d206e
     110:	5f666128 			@ <UNDEFINED> instruction: 5f666128
     114:	297d2029 			@ <UNDEFINED> instruction: 297d2029
     118:	495f5f00 			@ <UNDEFINED> instruction: 495f5f00
     11c:	414d544e 			@ <UNDEFINED> instruction: 414d544e
     120:	28435f58 			@ <UNDEFINED> instruction: 28435f58
     124:	63202963 			@ <UNDEFINED> instruction: 63202963
     128:	20232320 			@ <UNDEFINED> instruction: 20232320
     12c:	5f004c4c 			@ <UNDEFINED> instruction: 5f004c4c
     130:	544c465f 			@ <UNDEFINED> instruction: 544c465f
     134:	445f3436 			@ <UNDEFINED> instruction: 445f3436
     138:	524f4e45 			@ <UNDEFINED> instruction: 524f4e45
     13c:	494d5f4d 			@ <UNDEFINED> instruction: 494d5f4d
     140:	205f5f4e 			@ <UNDEFINED> instruction: 205f5f4e
     144:	34392e34 			@ <UNDEFINED> instruction: 34392e34
     148:	36353630 			@ <UNDEFINED> instruction: 36353630
     14c:	34383534 			@ <UNDEFINED> instruction: 34383534
     150:	36343231 			@ <UNDEFINED> instruction: 36343231
     154:	2d653435 			@ <UNDEFINED> instruction: 2d653435
     158:	46343233 			@ <UNDEFINED> instruction: 46343233
     15c:	5f003436 			@ <UNDEFINED> instruction: 5f003436
     160:	5245565f 			@ <UNDEFINED> instruction: 5245565f
     164:	4e4f4953 			@ <UNDEFINED> instruction: 4e4f4953
     168:	22205f5f 			@ <UNDEFINED> instruction: 22205f5f
     16c:	332e3431 			@ <UNDEFINED> instruction: 332e3431
     170:	3220312e 			@ <UNDEFINED> instruction: 3220312e
     174:	30353230 			@ <UNDEFINED> instruction: 30353230
     178:	22333236 			@ <UNDEFINED> instruction: 22333236
     17c:	475f5f00 			@ <UNDEFINED> instruction: 475f5f00
     180:	415f4343 			@ <UNDEFINED> instruction: 415f4343
     184:	494d4f54 			@ <UNDEFINED> instruction: 494d4f54
     188:	43575f43 			@ <UNDEFINED> instruction: 43575f43
     18c:	5f524148 			@ <UNDEFINED> instruction: 5f524148
     190:	4f4c5f54 			@ <UNDEFINED> instruction: 4f4c5f54
     194:	465f4b43 			@ <UNDEFINED> instruction: 465f4b43
     198:	20454552 			@ <UNDEFINED> instruction: 20454552
     19c:	5f5f0032 			@ <UNDEFINED> instruction: 5f5f0032
     1a0:	52414843 			@ <UNDEFINED> instruction: 52414843
     1a4:	534e555f 	movtpl	r5, #58719	@ 0xe55f
     1a8:	454e4749 			@ <UNDEFINED> instruction: 454e4749
     1ac:	205f5f44 			@ <UNDEFINED> instruction: 205f5f44
     1b0:	5f5f0031 			@ <UNDEFINED> instruction: 5f5f0031
     1b4:	5f464c45 			@ <UNDEFINED> instruction: 5f464c45
     1b8:	0031205f 			@ <UNDEFINED> instruction: 0031205f
     1bc:	4c465f5f 	mcrrmi	15, 5, r5, r6, cr15
     1c0:	5f343654 			@ <UNDEFINED> instruction: 5f343654
     1c4:	5f534148 			@ <UNDEFINED> instruction: 5f534148
     1c8:	49464e49 			@ <UNDEFINED> instruction: 49464e49
     1cc:	5954494e 			@ <UNDEFINED> instruction: 5954494e
     1d0:	31205f5f 			@ <UNDEFINED> instruction: 31205f5f
     1d4:	4c5f5f00 	mrrcmi	15, 0, r5, pc, cr0	@ <UNPREDICTABLE>
     1d8:	4343414c 	movtmi	r4, #12620	@ 0x314c
     1dc:	4d5f4d55 			@ <UNDEFINED> instruction: 4d5f4d55
     1e0:	5f5f4e49 			@ <UNDEFINED> instruction: 5f5f4e49
     1e4:	302d2820 			@ <UNDEFINED> instruction: 302d2820
     1e8:	33503158 			@ <UNDEFINED> instruction: 33503158
     1ec:	4b4c4c31 			@ <UNDEFINED> instruction: 4b4c4c31
     1f0:	3158302d 			@ <UNDEFINED> instruction: 3158302d
     1f4:	4c313350 			@ <UNDEFINED> instruction: 4c313350
     1f8:	00294b4c 			@ <UNDEFINED> instruction: 00294b4c
     1fc:	48555f5f 			@ <UNDEFINED> instruction: 48555f5f
     200:	42465f51 			@ <UNDEFINED> instruction: 42465f51
     204:	5f5f5449 			@ <UNDEFINED> instruction: 5f5f5449
     208:	00363120 			@ <UNDEFINED> instruction: 00363120
     20c:	414c5f5f 			@ <UNDEFINED> instruction: 414c5f5f
     210:	4d554343 			@ <UNDEFINED> instruction: 4d554343
     214:	5350455f 			@ <UNDEFINED> instruction: 5350455f
     218:	4e4f4c49 			@ <UNDEFINED> instruction: 4e4f4c49
     21c:	30205f5f 			@ <UNDEFINED> instruction: 30205f5f
     220:	2d503178 			@ <UNDEFINED> instruction: 2d503178
     224:	4b4c3133 			@ <UNDEFINED> instruction: 4b4c3133
     228:	505f5f00 			@ <UNDEFINED> instruction: 505f5f00
     22c:	49445254 			@ <UNDEFINED> instruction: 49445254
     230:	4d5f4646 			@ <UNDEFINED> instruction: 4d5f4646
     234:	5f5f5841 			@ <UNDEFINED> instruction: 5f5f5841
     238:	37783020 			@ <UNDEFINED> instruction: 37783020
     23c:	66666666 			@ <UNDEFINED> instruction: 66666666
     240:	00666666 			@ <UNDEFINED> instruction: 00666666
     244:	6f697067 			@ <UNDEFINED> instruction: 6f697067
     248:	544e4900 			@ <UNDEFINED> instruction: 544e4900
     24c:	41454c5f 			@ <UNDEFINED> instruction: 41454c5f
     250:	5f385453 			@ <UNDEFINED> instruction: 5f385453
     254:	204e494d 			@ <UNDEFINED> instruction: 204e494d
     258:	5f5f2d28 			@ <UNDEFINED> instruction: 5f5f2d28
     25c:	5f544e49 			@ <UNDEFINED> instruction: 5f544e49
     260:	5341454c 	movtpl	r4, #5452	@ 0x154c
     264:	4d5f3854 			@ <UNDEFINED> instruction: 4d5f3854
     268:	5f5f5841 			@ <UNDEFINED> instruction: 5f5f5841
     26c:	31202d20 			@ <UNDEFINED> instruction: 31202d20
     270:	555f0029 			@ <UNDEFINED> instruction: 555f0029
     274:	33544e49 			@ <UNDEFINED> instruction: 33544e49
     278:	5f545f32 			@ <UNDEFINED> instruction: 5f545f32
     27c:	4c434544 	mcrrmi	5, 4, r4, r3, cr4
     280:	44455241 			@ <UNDEFINED> instruction: 44455241
     284:	5f5f0020 			@ <UNDEFINED> instruction: 5f5f0020
     288:	4d544e49 			@ <UNDEFINED> instruction: 4d544e49
     28c:	4d5f5841 			@ <UNDEFINED> instruction: 4d5f5841
     290:	5f5f5841 			@ <UNDEFINED> instruction: 5f5f5841
     294:	37783020 			@ <UNDEFINED> instruction: 37783020
     298:	66666666 			@ <UNDEFINED> instruction: 66666666
     29c:	66666666 			@ <UNDEFINED> instruction: 66666666
     2a0:	66666666 			@ <UNDEFINED> instruction: 66666666
     2a4:	4c666666 			@ <UNDEFINED> instruction: 4c666666
     2a8:	5f5f004c 			@ <UNDEFINED> instruction: 5f5f004c
     2ac:	495f5154 			@ <UNDEFINED> instruction: 495f5154
     2b0:	5f544942 			@ <UNDEFINED> instruction: 5f544942
     2b4:	0030205f 			@ <UNDEFINED> instruction: 0030205f
     2b8:	4c465f5f 	mcrrmi	15, 5, r5, r6, cr15
     2bc:	5f343654 			@ <UNDEFINED> instruction: 5f343654
     2c0:	49434544 			@ <UNDEFINED> instruction: 49434544
     2c4:	5f4c414d 			@ <UNDEFINED> instruction: 5f4c414d
     2c8:	5f474944 			@ <UNDEFINED> instruction: 5f474944
     2cc:	3731205f 			@ <UNDEFINED> instruction: 3731205f
     2d0:	4c5f5f00 	mrrcmi	15, 0, r5, pc, cr0	@ <UNPREDICTABLE>
     2d4:	5f4c4244 			@ <UNDEFINED> instruction: 5f4c4244
     2d8:	5f4e494d 			@ <UNDEFINED> instruction: 5f4e494d
     2dc:	2e32205f 			@ <UNDEFINED> instruction: 2e32205f
     2e0:	30353232 			@ <UNDEFINED> instruction: 30353232
     2e4:	35383337 			@ <UNDEFINED> instruction: 35383337
     2e8:	37303538 			@ <UNDEFINED> instruction: 37303538
     2ec:	34313032 			@ <UNDEFINED> instruction: 34313032
     2f0:	30332d65 			@ <UNDEFINED> instruction: 30332d65
     2f4:	5f004c38 			@ <UNDEFINED> instruction: 5f004c38
     2f8:	4f54415f 			@ <UNDEFINED> instruction: 4f54415f
     2fc:	5f43494d 			@ <UNDEFINED> instruction: 5f43494d
     300:	534e4f43 	movtpl	r4, #61251	@ 0xef43
     304:	20454d55 			@ <UNDEFINED> instruction: 20454d55
     308:	5f5f0031 			@ <UNDEFINED> instruction: 5f5f0031
     30c:	43414c55 	movtmi	r4, #7253	@ 0x1c55
     310:	5f4d5543 			@ <UNDEFINED> instruction: 5f4d5543
     314:	54494246 			@ <UNDEFINED> instruction: 54494246
     318:	33205f5f 			@ <UNDEFINED> instruction: 33205f5f
     31c:	5f5f0032 			@ <UNDEFINED> instruction: 5f5f0032
     320:	41484357 			@ <UNDEFINED> instruction: 41484357
     324:	414d5f52 			@ <UNDEFINED> instruction: 414d5f52
     328:	205f5f58 			@ <UNDEFINED> instruction: 205f5f58
     32c:	66667830 			@ <UNDEFINED> instruction: 66667830
     330:	66666666 			@ <UNDEFINED> instruction: 66666666
     334:	00556666 			@ <UNDEFINED> instruction: 00556666
     338:	49535f5f 			@ <UNDEFINED> instruction: 49535f5f
     33c:	464f455a 			@ <UNDEFINED> instruction: 464f455a
     340:	544e495f 			@ <UNDEFINED> instruction: 544e495f
     344:	34205f5f 			@ <UNDEFINED> instruction: 34205f5f
     348:	695f5f00 			@ <UNDEFINED> instruction: 695f5f00
     34c:	3032746e 			@ <UNDEFINED> instruction: 3032746e
     350:	5f005f5f 			@ <UNDEFINED> instruction: 5f005f5f
     354:	5a49535f 			@ <UNDEFINED> instruction: 5a49535f
     358:	5f464f45 			@ <UNDEFINED> instruction: 5f464f45
     35c:	474e4f4c 			@ <UNDEFINED> instruction: 474e4f4c
     360:	4e4f4c5f 			@ <UNDEFINED> instruction: 4e4f4c5f
     364:	205f5f47 			@ <UNDEFINED> instruction: 205f5f47
     368:	4e490038 			@ <UNDEFINED> instruction: 4e490038
     36c:	4d5f3854 			@ <UNDEFINED> instruction: 4d5f3854
     370:	28205841 			@ <UNDEFINED> instruction: 28205841
     374:	4e495f5f 			@ <UNDEFINED> instruction: 4e495f5f
     378:	4d5f3854 			@ <UNDEFINED> instruction: 4d5f3854
     37c:	5f5f5841 			@ <UNDEFINED> instruction: 5f5f5841
     380:	5f5f0029 			@ <UNDEFINED> instruction: 5f5f0029
     384:	36544c46 			@ <UNDEFINED> instruction: 36544c46
     388:	414d5f34 			@ <UNDEFINED> instruction: 414d5f34
     38c:	445f544e 			@ <UNDEFINED> instruction: 445f544e
     390:	5f5f4749 			@ <UNDEFINED> instruction: 5f5f4749
     394:	00333520 			@ <UNDEFINED> instruction: 00333520
     398:	52465f5f 			@ <UNDEFINED> instruction: 52465f5f
     39c:	5f544341 			@ <UNDEFINED> instruction: 5f544341
     3a0:	5f4e494d 			@ <UNDEFINED> instruction: 5f4e494d
     3a4:	2d28205f 			@ <UNDEFINED> instruction: 2d28205f
     3a8:	52352e30 			@ <UNDEFINED> instruction: 52352e30
     3ac:	352e302d 			@ <UNDEFINED> instruction: 352e302d
     3b0:	5f002952 			@ <UNDEFINED> instruction: 5f002952
     3b4:	4c4c555f 	mcrrmi	5, 5, r5, ip, cr15
     3b8:	55434341 			@ <UNDEFINED> instruction: 55434341
     3bc:	414d5f4d 			@ <UNDEFINED> instruction: 414d5f4d
     3c0:	205f5f58 			@ <UNDEFINED> instruction: 205f5f58
     3c4:	46465830 			@ <UNDEFINED> instruction: 46465830
     3c8:	46464646 			@ <UNDEFINED> instruction: 46464646
     3cc:	46464646 			@ <UNDEFINED> instruction: 46464646
     3d0:	46464646 			@ <UNDEFINED> instruction: 46464646
     3d4:	2d504646 			@ <UNDEFINED> instruction: 2d504646
     3d8:	4c553233 	mrrcmi	2, 3, r3, r5, cr3
     3dc:	5f004b4c 			@ <UNDEFINED> instruction: 5f004b4c
     3e0:	4153555f 			@ <UNDEFINED> instruction: 4153555f
     3e4:	4d554343 			@ <UNDEFINED> instruction: 4d554343
     3e8:	58414d5f 			@ <UNDEFINED> instruction: 58414d5f
     3ec:	30205f5f 			@ <UNDEFINED> instruction: 30205f5f
     3f0:	46464658 			@ <UNDEFINED> instruction: 46464658
     3f4:	382d5046 			@ <UNDEFINED> instruction: 382d5046
     3f8:	004b4855 			@ <UNDEFINED> instruction: 004b4855
     3fc:	46535f5f 	usaxmi	r5, r3, pc	@ <UNPREDICTABLE>
     400:	54434152 			@ <UNDEFINED> instruction: 54434152
     404:	4942465f 			@ <UNDEFINED> instruction: 4942465f
     408:	205f5f54 			@ <UNDEFINED> instruction: 205f5f54
     40c:	5f5f0037 			@ <UNDEFINED> instruction: 5f5f0037
     410:	4d544e49 			@ <UNDEFINED> instruction: 4d544e49
     414:	575f5841 			@ <UNDEFINED> instruction: 575f5841
     418:	48544449 			@ <UNDEFINED> instruction: 48544449
     41c:	36205f5f 	qsaxcc	r5, r0, pc	@ <UNPREDICTABLE>
     420:	5f5f0034 			@ <UNDEFINED> instruction: 5f5f0034
     424:	5f4d5241 			@ <UNDEFINED> instruction: 5f4d5241
     428:	54414546 			@ <UNDEFINED> instruction: 54414546
     42c:	5f455255 			@ <UNDEFINED> instruction: 5f455255
     430:	5f495442 			@ <UNDEFINED> instruction: 5f495442
     434:	41464544 			@ <UNDEFINED> instruction: 41464544
     438:	00544c55 			@ <UNDEFINED> instruction: 00544c55
     43c:	51535f5f 			@ <UNDEFINED> instruction: 51535f5f
     440:	4942495f 			@ <UNDEFINED> instruction: 4942495f
     444:	205f5f54 			@ <UNDEFINED> instruction: 205f5f54
     448:	5f5f0030 			@ <UNDEFINED> instruction: 5f5f0030
     44c:	4544524f 			@ <UNDEFINED> instruction: 4544524f
     450:	44505f52 			@ <UNDEFINED> instruction: 44505f52
     454:	4e455f50 			@ <UNDEFINED> instruction: 4e455f50
     458:	4e414944 			@ <UNDEFINED> instruction: 4e414944
     45c:	33205f5f 			@ <UNDEFINED> instruction: 33205f5f
     460:	00323134 			@ <UNDEFINED> instruction: 00323134
     464:	49535f5f 			@ <UNDEFINED> instruction: 49535f5f
     468:	545f455a 			@ <UNDEFINED> instruction: 545f455a
     46c:	5f455059 			@ <UNDEFINED> instruction: 5f455059
     470:	6e75205f 			@ <UNDEFINED> instruction: 6e75205f
     474:	6e676973 			@ <UNDEFINED> instruction: 6e676973
     478:	69206465 			@ <UNDEFINED> instruction: 69206465
     47c:	5f00746e 			@ <UNDEFINED> instruction: 5f00746e
     480:	5f434347 			@ <UNDEFINED> instruction: 5f434347
     484:	50415257 			@ <UNDEFINED> instruction: 50415257
     488:	4454535f 			@ <UNDEFINED> instruction: 4454535f
     48c:	5f544e49 			@ <UNDEFINED> instruction: 5f544e49
     490:	55002048 			@ <UNDEFINED> instruction: 55002048
     494:	5f544e49 			@ <UNDEFINED> instruction: 5f544e49
     498:	54534146 			@ <UNDEFINED> instruction: 54534146
     49c:	4d5f3233 			@ <UNDEFINED> instruction: 4d5f3233
     4a0:	28205841 			@ <UNDEFINED> instruction: 28205841
     4a4:	49555f5f 			@ <UNDEFINED> instruction: 49555f5f
     4a8:	465f544e 			@ <UNDEFINED> instruction: 465f544e
     4ac:	33545341 			@ <UNDEFINED> instruction: 33545341
     4b0:	414d5f32 			@ <UNDEFINED> instruction: 414d5f32
     4b4:	295f5f58 			@ <UNDEFINED> instruction: 295f5f58
     4b8:	495f5f00 			@ <UNDEFINED> instruction: 495f5f00
     4bc:	5f38544e 			@ <UNDEFINED> instruction: 5f38544e
     4c0:	45505954 			@ <UNDEFINED> instruction: 45505954
     4c4:	73205f5f 			@ <UNDEFINED> instruction: 73205f5f
     4c8:	656e6769 			@ <UNDEFINED> instruction: 656e6769
     4cc:	68632064 			@ <UNDEFINED> instruction: 68632064
     4d0:	5f007261 			@ <UNDEFINED> instruction: 5f007261
     4d4:	544c465f 			@ <UNDEFINED> instruction: 544c465f
     4d8:	4d5f3233 			@ <UNDEFINED> instruction: 4d5f3233
     4dc:	5f5f4e49 			@ <UNDEFINED> instruction: 5f5f4e49
     4e0:	312e3120 			@ <UNDEFINED> instruction: 312e3120
     4e4:	39343537 			@ <UNDEFINED> instruction: 39343537
     4e8:	30353334 			@ <UNDEFINED> instruction: 30353334
     4ec:	32323238 			@ <UNDEFINED> instruction: 32323238
     4f0:	65353738 			@ <UNDEFINED> instruction: 65353738
     4f4:	4638332d 			@ <UNDEFINED> instruction: 4638332d
     4f8:	5f003233 			@ <UNDEFINED> instruction: 5f003233
     4fc:	4153555f 			@ <UNDEFINED> instruction: 4153555f
     500:	4d554343 			@ <UNDEFINED> instruction: 4d554343
     504:	4e494d5f 			@ <UNDEFINED> instruction: 4e494d5f
     508:	30205f5f 			@ <UNDEFINED> instruction: 30205f5f
     50c:	4855302e 			@ <UNDEFINED> instruction: 4855302e
     510:	5f5f004b 			@ <UNDEFINED> instruction: 5f5f004b
     514:	33544c46 			@ <UNDEFINED> instruction: 33544c46
     518:	45445f32 			@ <UNDEFINED> instruction: 45445f32
     51c:	414d4943 			@ <UNDEFINED> instruction: 414d4943
     520:	49445f4c 			@ <UNDEFINED> instruction: 49445f4c
     524:	205f5f47 			@ <UNDEFINED> instruction: 205f5f47
     528:	50470039 			@ <UNDEFINED> instruction: 50470039
     52c:	505f4f49 			@ <UNDEFINED> instruction: 505f4f49
     530:	4554524f 			@ <UNDEFINED> instruction: 4554524f
     534:	46464f5f 			@ <UNDEFINED> instruction: 46464f5f
     538:	20544553 			@ <UNDEFINED> instruction: 20544553
     53c:	30317830 			@ <UNDEFINED> instruction: 30317830
     540:	00553030 			@ <UNDEFINED> instruction: 00553030
     544:	444c5f5f 			@ <UNDEFINED> instruction: 444c5f5f
     548:	4d5f4c42 			@ <UNDEFINED> instruction: 4d5f4c42
     54c:	455f4e49 			@ <UNDEFINED> instruction: 455f4e49
     550:	5f5f5058 			@ <UNDEFINED> instruction: 5f5f5058
     554:	312d2820 			@ <UNDEFINED> instruction: 312d2820
     558:	29313230 			@ <UNDEFINED> instruction: 29313230
     55c:	74756f00 			@ <UNDEFINED> instruction: 74756f00
     560:	636f6c5f 			@ <UNDEFINED> instruction: 636f6c5f
     564:	5f006c61 			@ <UNDEFINED> instruction: 5f006c61
     568:	42444c5f 			@ <UNDEFINED> instruction: 42444c5f
     56c:	414d5f4c 			@ <UNDEFINED> instruction: 414d5f4c
     570:	445f544e 			@ <UNDEFINED> instruction: 445f544e
     574:	5f5f4749 			@ <UNDEFINED> instruction: 5f5f4749
     578:	00333520 			@ <UNDEFINED> instruction: 00333520
     57c:	49555f5f 			@ <UNDEFINED> instruction: 49555f5f
     580:	5f38544e 			@ <UNDEFINED> instruction: 5f38544e
     584:	29632843 			@ <UNDEFINED> instruction: 29632843
     588:	5f006320 			@ <UNDEFINED> instruction: 5f006320
     58c:	544e495f 			@ <UNDEFINED> instruction: 544e495f
     590:	545f3631 			@ <UNDEFINED> instruction: 545f3631
     594:	5f455059 			@ <UNDEFINED> instruction: 5f455059
     598:	6873205f 			@ <UNDEFINED> instruction: 6873205f
     59c:	2074726f 			@ <UNDEFINED> instruction: 2074726f
     5a0:	00746e69 			@ <UNDEFINED> instruction: 00746e69
     5a4:	20554e47 			@ <UNDEFINED> instruction: 20554e47
     5a8:	20333243 			@ <UNDEFINED> instruction: 20333243
     5ac:	332e3431 			@ <UNDEFINED> instruction: 332e3431
     5b0:	3220312e 			@ <UNDEFINED> instruction: 3220312e
     5b4:	30353230 			@ <UNDEFINED> instruction: 30353230
     5b8:	20333236 			@ <UNDEFINED> instruction: 20333236
     5bc:	70636d2d 			@ <UNDEFINED> instruction: 70636d2d
     5c0:	6f633d75 			@ <UNDEFINED> instruction: 6f633d75
     5c4:	78657472 			@ <UNDEFINED> instruction: 78657472
     5c8:	20346d2d 			@ <UNDEFINED> instruction: 20346d2d
     5cc:	70666d2d 			@ <UNDEFINED> instruction: 70666d2d
     5d0:	70663d75 			@ <UNDEFINED> instruction: 70663d75
     5d4:	732d3476 			@ <UNDEFINED> instruction: 732d3476
     5d8:	31642d70 			@ <UNDEFINED> instruction: 31642d70
     5dc:	6d2d2036 			@ <UNDEFINED> instruction: 6d2d2036
     5e0:	616f6c66 			@ <UNDEFINED> instruction: 616f6c66
     5e4:	62612d74 			@ <UNDEFINED> instruction: 62612d74
     5e8:	61683d69 			@ <UNDEFINED> instruction: 61683d69
     5ec:	2d206472 			@ <UNDEFINED> instruction: 2d206472
     5f0:	74696c6d 			@ <UNDEFINED> instruction: 74696c6d
     5f4:	2d656c74 			@ <UNDEFINED> instruction: 2d656c74
     5f8:	69646e65 			@ <UNDEFINED> instruction: 69646e65
     5fc:	2d206e61 			@ <UNDEFINED> instruction: 2d206e61
     600:	7568746d 			@ <UNDEFINED> instruction: 7568746d
     604:	2d20626d 			@ <UNDEFINED> instruction: 2d20626d
     608:	6e65676d 			@ <UNDEFINED> instruction: 6e65676d
     60c:	6c617265 			@ <UNDEFINED> instruction: 6c617265
     610:	6765722d 			@ <UNDEFINED> instruction: 6765722d
     614:	6e6f2d73 			@ <UNDEFINED> instruction: 6e6f2d73
     618:	2d20796c 			@ <UNDEFINED> instruction: 2d20796c
     61c:	6372616d 			@ <UNDEFINED> instruction: 6372616d
     620:	72613d68 			@ <UNDEFINED> instruction: 72613d68
     624:	6537766d 			@ <UNDEFINED> instruction: 6537766d
     628:	662b6d2d 			@ <UNDEFINED> instruction: 662b6d2d
     62c:	672d2070 			@ <UNDEFINED> instruction: 672d2070
     630:	33672d20 			@ <UNDEFINED> instruction: 33672d20
     634:	67672d20 			@ <UNDEFINED> instruction: 67672d20
     638:	2d206264 			@ <UNDEFINED> instruction: 2d206264
     63c:	2d20304f 			@ <UNDEFINED> instruction: 2d20304f
     640:	3d647473 			@ <UNDEFINED> instruction: 3d647473
     644:	32756e67 			@ <UNDEFINED> instruction: 32756e67
     648:	662d2033 			@ <UNDEFINED> instruction: 662d2033
     64c:	61746164 			@ <UNDEFINED> instruction: 61746164
     650:	6365732d 			@ <UNDEFINED> instruction: 6365732d
     654:	6e6f6974 			@ <UNDEFINED> instruction: 6e6f6974
     658:	662d2073 			@ <UNDEFINED> instruction: 662d2073
     65c:	636e7566 			@ <UNDEFINED> instruction: 636e7566
     660:	6e6f6974 			@ <UNDEFINED> instruction: 6e6f6974
     664:	6365732d 			@ <UNDEFINED> instruction: 6365732d
     668:	6e6f6974 			@ <UNDEFINED> instruction: 6e6f6974
     66c:	662d2073 			@ <UNDEFINED> instruction: 662d2073
     670:	63617473 			@ <UNDEFINED> instruction: 63617473
     674:	73752d6b 			@ <UNDEFINED> instruction: 73752d6b
     678:	00656761 			@ <UNDEFINED> instruction: 00656761
     67c:	4c465f5f 	mcrrmi	15, 5, r5, r6, cr15
     680:	5f343654 			@ <UNDEFINED> instruction: 5f343654
     684:	5f58414d 			@ <UNDEFINED> instruction: 5f58414d
     688:	2e31205f 			@ <UNDEFINED> instruction: 2e31205f
     68c:	36373937 			@ <UNDEFINED> instruction: 36373937
     690:	33313339 			@ <UNDEFINED> instruction: 33313339
     694:	32363834 			@ <UNDEFINED> instruction: 32363834
     698:	37353133 			@ <UNDEFINED> instruction: 37353133
     69c:	30332b65 			@ <UNDEFINED> instruction: 30332b65
     6a0:	34364638 			@ <UNDEFINED> instruction: 34364638
     6a4:	43324900 			@ <UNDEFINED> instruction: 43324900
     6a8:	4d49545f 			@ <UNDEFINED> instruction: 4d49545f
     6ac:	54554f45 			@ <UNDEFINED> instruction: 54554f45
     6b0:	30303120 			@ <UNDEFINED> instruction: 30303120
     6b4:	55303030 			@ <UNDEFINED> instruction: 55303030
     6b8:	58414d00 			@ <UNDEFINED> instruction: 58414d00
     6bc:	4154535f 			@ <UNDEFINED> instruction: 4154535f
     6c0:	575f4b43 			@ <UNDEFINED> instruction: 575f4b43
     6c4:	5344524f 	movtpl	r5, #16975	@ 0x424f
     6c8:	36353220 			@ <UNDEFINED> instruction: 36353220
     6cc:	495f5f00 			@ <UNDEFINED> instruction: 495f5f00
     6d0:	2038544e 			@ <UNDEFINED> instruction: 2038544e
     6d4:	22686822 			@ <UNDEFINED> instruction: 22686822
     6d8:	4c454400 	mcrrmi	4, 0, r4, r5, cr0
     6dc:	555f5941 			@ <UNDEFINED> instruction: 555f5941
     6e0:	5354494e 			@ <UNDEFINED> instruction: 5354494e
     6e4:	5f00535f 			@ <UNDEFINED> instruction: 5f00535f
     6e8:	4343475f 	movtmi	r4, #14175	@ 0x375f
     6ec:	5641485f 			@ <UNDEFINED> instruction: 5641485f
     6f0:	59535f45 			@ <UNDEFINED> instruction: 59535f45
     6f4:	435f434e 			@ <UNDEFINED> instruction: 435f434e
     6f8:	41504d4f 			@ <UNDEFINED> instruction: 41504d4f
     6fc:	415f4552 			@ <UNDEFINED> instruction: 415f4552
     700:	535f444e 			@ <UNDEFINED> instruction: 535f444e
     704:	5f504157 			@ <UNDEFINED> instruction: 5f504157
     708:	00312031 			@ <UNDEFINED> instruction: 00312031
     70c:	5f544e49 			@ <UNDEFINED> instruction: 5f544e49
     710:	5341454c 	movtpl	r4, #5452	@ 0x154c
     714:	5f363154 			@ <UNDEFINED> instruction: 5f363154
     718:	2058414d 			@ <UNDEFINED> instruction: 2058414d
     71c:	495f5f28 			@ <UNDEFINED> instruction: 495f5f28
     720:	4c5f544e 	mrrcmi	4, 4, r5, pc, cr14	@ <UNPREDICTABLE>
     724:	54534145 			@ <UNDEFINED> instruction: 54534145
     728:	4d5f3631 			@ <UNDEFINED> instruction: 4d5f3631
     72c:	5f5f5841 			@ <UNDEFINED> instruction: 5f5f5841
     730:	5f5f0029 			@ <UNDEFINED> instruction: 5f5f0029
     734:	61686377 			@ <UNDEFINED> instruction: 61686377
     738:	5f745f72 			@ <UNDEFINED> instruction: 5f745f72
     73c:	4900205f 			@ <UNDEFINED> instruction: 4900205f
     740:	465f544e 			@ <UNDEFINED> instruction: 465f544e
     744:	31545341 			@ <UNDEFINED> instruction: 31545341
     748:	414d5f36 			@ <UNDEFINED> instruction: 414d5f36
     74c:	5f282058 			@ <UNDEFINED> instruction: 5f282058
     750:	544e495f 			@ <UNDEFINED> instruction: 544e495f
     754:	5341465f 	movtpl	r4, #5727	@ 0x165f
     758:	5f363154 			@ <UNDEFINED> instruction: 5f363154
     75c:	5f58414d 			@ <UNDEFINED> instruction: 5f58414d
     760:	5f00295f 			@ <UNDEFINED> instruction: 5f00295f
     764:	4c4c555f 	mcrrmi	5, 5, r5, ip, cr15
     768:	43415246 	movtmi	r5, #4678	@ 0x1246
     76c:	42465f54 			@ <UNDEFINED> instruction: 42465f54
     770:	5f5f5449 			@ <UNDEFINED> instruction: 5f5f5449
     774:	00343620 			@ <UNDEFINED> instruction: 00343620
     778:	49535f5f 			@ <UNDEFINED> instruction: 49535f5f
     77c:	54415f47 			@ <UNDEFINED> instruction: 54415f47
     780:	43494d4f 	movtmi	r4, #40271	@ 0x9d4f
     784:	5059545f 			@ <UNDEFINED> instruction: 5059545f
     788:	205f5f45 			@ <UNDEFINED> instruction: 205f5f45
     78c:	00746e69 			@ <UNDEFINED> instruction: 00746e69
     790:	5f4e4950 			@ <UNDEFINED> instruction: 5f4e4950
     794:	50003131 			@ <UNDEFINED> instruction: 50003131
     798:	4354524f 			@ <UNDEFINED> instruction: 4354524f
     79c:	495f5f00 			@ <UNDEFINED> instruction: 495f5f00
     7a0:	465f544e 			@ <UNDEFINED> instruction: 465f544e
     7a4:	36545341 			@ <UNDEFINED> instruction: 36545341
     7a8:	59545f34 			@ <UNDEFINED> instruction: 59545f34
     7ac:	5f5f4550 			@ <UNDEFINED> instruction: 5f5f4550
     7b0:	6e6f6c20 			@ <UNDEFINED> instruction: 6e6f6c20
     7b4:	6f6c2067 			@ <UNDEFINED> instruction: 6f6c2067
     7b8:	6920676e 			@ <UNDEFINED> instruction: 6920676e
     7bc:	5f00746e 			@ <UNDEFINED> instruction: 5f00746e
     7c0:	5858475f 			@ <UNDEFINED> instruction: 5858475f
     7c4:	4942415f 			@ <UNDEFINED> instruction: 4942415f
     7c8:	5245565f 			@ <UNDEFINED> instruction: 5245565f
     7cc:	4e4f4953 			@ <UNDEFINED> instruction: 4e4f4953
     7d0:	31303120 			@ <UNDEFINED> instruction: 31303120
     7d4:	3a440039 			@ <UNDEFINED> instruction: 3a440039
     7d8:	706d632f 			@ <UNDEFINED> instruction: 706d632f
     7dc:	2f6a6f72 			@ <UNDEFINED> instruction: 2f6a6f72
     7e0:	336d7473 			@ <UNDEFINED> instruction: 336d7473
     7e4:	72752f32 			@ <UNDEFINED> instruction: 72752f32
     7e8:	61727561 			@ <UNDEFINED> instruction: 61727561
     7ec:	732d632f 			@ <UNDEFINED> instruction: 732d632f
     7f0:	532f6372 			@ <UNDEFINED> instruction: 532f6372
     7f4:	6d2f6372 			@ <UNDEFINED> instruction: 6d2f6372
     7f8:	2e6e6961 			@ <UNDEFINED> instruction: 2e6e6961
     7fc:	5f5f0063 			@ <UNDEFINED> instruction: 5f5f0063
     800:	455a4953 			@ <UNDEFINED> instruction: 455a4953
     804:	5f5f545f 			@ <UNDEFINED> instruction: 5f5f545f
     808:	54500020 			@ <UNDEFINED> instruction: 54500020
     80c:	46494452 			@ <UNDEFINED> instruction: 46494452
     810:	414d5f46 			@ <UNDEFINED> instruction: 414d5f46
     814:	5f282058 			@ <UNDEFINED> instruction: 5f282058
     818:	5254505f 			@ <UNDEFINED> instruction: 5254505f
     81c:	46464944 			@ <UNDEFINED> instruction: 46464944
     820:	58414d5f 			@ <UNDEFINED> instruction: 58414d5f
     824:	00295f5f 			@ <UNDEFINED> instruction: 00295f5f
     828:	4c465f5f 	mcrrmi	15, 5, r5, r6, cr15
     82c:	5f323354 			@ <UNDEFINED> instruction: 5f323354
     830:	5f58414d 			@ <UNDEFINED> instruction: 5f58414d
     834:	455f3031 			@ <UNDEFINED> instruction: 455f3031
     838:	5f5f5058 			@ <UNDEFINED> instruction: 5f5f5058
     83c:	00383320 			@ <UNDEFINED> instruction: 00383320
     840:	53555f5f 			@ <UNDEFINED> instruction: 53555f5f
     844:	43415246 	movtmi	r5, #4678	@ 0x1246
     848:	414d5f54 			@ <UNDEFINED> instruction: 414d5f54
     84c:	205f5f58 			@ <UNDEFINED> instruction: 205f5f58
     850:	46465830 			@ <UNDEFINED> instruction: 46465830
     854:	55382d50 			@ <UNDEFINED> instruction: 55382d50
     858:	5f005248 			@ <UNDEFINED> instruction: 5f005248
     85c:	4148435f 			@ <UNDEFINED> instruction: 4148435f
     860:	545f3852 			@ <UNDEFINED> instruction: 545f3852
     864:	5f455059 			@ <UNDEFINED> instruction: 5f455059
     868:	6e75205f 			@ <UNDEFINED> instruction: 6e75205f
     86c:	6e676973 			@ <UNDEFINED> instruction: 6e676973
     870:	63206465 			@ <UNDEFINED> instruction: 63206465
     874:	00726168 			@ <UNDEFINED> instruction: 00726168
     878:	656e5f5f 			@ <UNDEFINED> instruction: 656e5f5f
     87c:	775f6465 			@ <UNDEFINED> instruction: 775f6465
     880:	72616863 			@ <UNDEFINED> instruction: 72616863
     884:	5f00745f 			@ <UNDEFINED> instruction: 5f00745f
     888:	544c465f 			@ <UNDEFINED> instruction: 544c465f
     88c:	4d5f3233 			@ <UNDEFINED> instruction: 4d5f3233
     890:	455f4e49 			@ <UNDEFINED> instruction: 455f4e49
     894:	5f5f5058 			@ <UNDEFINED> instruction: 5f5f5058
     898:	312d2820 			@ <UNDEFINED> instruction: 312d2820
     89c:	00293532 			@ <UNDEFINED> instruction: 00293532
     8a0:	41555f5f 			@ <UNDEFINED> instruction: 41555f5f
     8a4:	4d554343 			@ <UNDEFINED> instruction: 4d554343
     8a8:	5350455f 			@ <UNDEFINED> instruction: 5350455f
     8ac:	4e4f4c49 			@ <UNDEFINED> instruction: 4e4f4c49
     8b0:	30205f5f 			@ <UNDEFINED> instruction: 30205f5f
     8b4:	2d503178 			@ <UNDEFINED> instruction: 2d503178
     8b8:	4b553631 			@ <UNDEFINED> instruction: 4b553631
     8bc:	53425f00 	movtpl	r5, #12032	@ 0x2f00
     8c0:	54505f44 			@ <UNDEFINED> instruction: 54505f44
     8c4:	46494452 			@ <UNDEFINED> instruction: 46494452
     8c8:	5f545f46 			@ <UNDEFINED> instruction: 5f545f46
     8cc:	4e490020 			@ <UNDEFINED> instruction: 4e490020
     8d0:	5f363154 			@ <UNDEFINED> instruction: 5f363154
     8d4:	2058414d 			@ <UNDEFINED> instruction: 2058414d
     8d8:	495f5f28 			@ <UNDEFINED> instruction: 495f5f28
     8dc:	3631544e 			@ <UNDEFINED> instruction: 3631544e
     8e0:	58414d5f 			@ <UNDEFINED> instruction: 58414d5f
     8e4:	00295f5f 			@ <UNDEFINED> instruction: 00295f5f
     8e8:	4c555f5f 	mrrcmi	15, 5, r5, r5, cr15	@ <UNPREDICTABLE>
     8ec:	43415246 	movtmi	r5, #4678	@ 0x1246
     8f0:	42465f54 			@ <UNDEFINED> instruction: 42465f54
     8f4:	5f5f5449 			@ <UNDEFINED> instruction: 5f5f5449
     8f8:	00323320 			@ <UNDEFINED> instruction: 00323320
     8fc:	4c465f5f 	mcrrmi	15, 5, r5, r6, cr15
     900:	5f343654 			@ <UNDEFINED> instruction: 5f343654
     904:	5f4e494d 			@ <UNDEFINED> instruction: 5f4e494d
     908:	455f3031 			@ <UNDEFINED> instruction: 455f3031
     90c:	5f5f5058 			@ <UNDEFINED> instruction: 5f5f5058
     910:	332d2820 			@ <UNDEFINED> instruction: 332d2820
     914:	00293730 			@ <UNDEFINED> instruction: 00293730
     918:	69735f5f 			@ <UNDEFINED> instruction: 69735f5f
     91c:	745f657a 			@ <UNDEFINED> instruction: 745f657a
     920:	5f5f0020 			@ <UNDEFINED> instruction: 5f5f0020
     924:	5f746e69 			@ <UNDEFINED> instruction: 5f746e69
     928:	74736166 			@ <UNDEFINED> instruction: 74736166
     92c:	745f3233 			@ <UNDEFINED> instruction: 745f3233
     930:	6665645f 			@ <UNDEFINED> instruction: 6665645f
     934:	64656e69 			@ <UNDEFINED> instruction: 64656e69
     938:	5f003120 			@ <UNDEFINED> instruction: 5f003120
     93c:	544e495f 			@ <UNDEFINED> instruction: 544e495f
     940:	5341465f 	movtpl	r4, #5727	@ 0x165f
     944:	5f343654 			@ <UNDEFINED> instruction: 5f343654
     948:	54444957 			@ <UNDEFINED> instruction: 54444957
     94c:	205f5f48 			@ <UNDEFINED> instruction: 205f5f48
     950:	5f003436 			@ <UNDEFINED> instruction: 5f003436
     954:	6e695f5f 			@ <UNDEFINED> instruction: 6e695f5f
     958:	63775f74 			@ <UNDEFINED> instruction: 63775f74
     95c:	5f726168 			@ <UNDEFINED> instruction: 5f726168
     960:	20685f74 			@ <UNDEFINED> instruction: 20685f74
     964:	4c5f5f00 	mrrcmi	15, 0, r5, pc, cr0	@ <UNPREDICTABLE>
     968:	55434341 			@ <UNDEFINED> instruction: 55434341
     96c:	42465f4d 			@ <UNDEFINED> instruction: 42465f4d
     970:	5f5f5449 			@ <UNDEFINED> instruction: 5f5f5449
     974:	00313320 			@ <UNDEFINED> instruction: 00313320
     978:	31544e49 			@ <UNDEFINED> instruction: 31544e49
     97c:	28435f36 			@ <UNDEFINED> instruction: 28435f36
     980:	5f202978 			@ <UNDEFINED> instruction: 5f202978
     984:	544e495f 			@ <UNDEFINED> instruction: 544e495f
     988:	435f3631 			@ <UNDEFINED> instruction: 435f3631
     98c:	00297828 			@ <UNDEFINED> instruction: 00297828
     990:	46535f5f 	usaxmi	r5, r3, pc	@ <UNPREDICTABLE>
     994:	54434152 			@ <UNDEFINED> instruction: 54434152
     998:	5350455f 			@ <UNDEFINED> instruction: 5350455f
     99c:	4e4f4c49 			@ <UNDEFINED> instruction: 4e4f4c49
     9a0:	30205f5f 			@ <UNDEFINED> instruction: 30205f5f
     9a4:	2d503178 			@ <UNDEFINED> instruction: 2d503178
     9a8:	00524837 			@ <UNDEFINED> instruction: 00524837
     9ac:	535f545f 			@ <UNDEFINED> instruction: 535f545f
     9b0:	20455a49 			@ <UNDEFINED> instruction: 20455a49
     9b4:	495f5f00 			@ <UNDEFINED> instruction: 495f5f00
     9b8:	3233544e 			@ <UNDEFINED> instruction: 3233544e
     9bc:	6328435f 			@ <UNDEFINED> instruction: 6328435f
     9c0:	20632029 			@ <UNDEFINED> instruction: 20632029
     9c4:	4c202323 			@ <UNDEFINED> instruction: 4c202323
     9c8:	555f5f00 			@ <UNDEFINED> instruction: 555f5f00
     9cc:	465f5153 			@ <UNDEFINED> instruction: 465f5153
     9d0:	5f544942 			@ <UNDEFINED> instruction: 5f544942
     9d4:	3233205f 			@ <UNDEFINED> instruction: 3233205f
     9d8:	4f5f5f00 			@ <UNDEFINED> instruction: 4f5f5f00
     9dc:	52454452 			@ <UNDEFINED> instruction: 52454452
     9e0:	4749425f 	smlsldmi	r4, r9, pc, r2	@ <UNPREDICTABLE>
     9e4:	444e455f 			@ <UNDEFINED> instruction: 444e455f
     9e8:	5f4e4149 			@ <UNDEFINED> instruction: 5f4e4149
     9ec:	3334205f 			@ <UNDEFINED> instruction: 3334205f
     9f0:	5f003132 			@ <UNDEFINED> instruction: 5f003132
     9f4:	5f51535f 			@ <UNDEFINED> instruction: 5f51535f
     9f8:	54494246 			@ <UNDEFINED> instruction: 54494246
     9fc:	33205f5f 			@ <UNDEFINED> instruction: 33205f5f
     a00:	4e490031 			@ <UNDEFINED> instruction: 4e490031
     a04:	4d5f3854 			@ <UNDEFINED> instruction: 4d5f3854
     a08:	28204e49 			@ <UNDEFINED> instruction: 28204e49
     a0c:	495f5f2d 			@ <UNDEFINED> instruction: 495f5f2d
     a10:	5f38544e 			@ <UNDEFINED> instruction: 5f38544e
     a14:	5f58414d 			@ <UNDEFINED> instruction: 5f58414d
     a18:	202d205f 			@ <UNDEFINED> instruction: 202d205f
     a1c:	5f002931 			@ <UNDEFINED> instruction: 5f002931
     a20:	5f535953 			@ <UNDEFINED> instruction: 5f535953
     a24:	4454535f 			@ <UNDEFINED> instruction: 4454535f
     a28:	5f544e49 			@ <UNDEFINED> instruction: 5f544e49
     a2c:	49002048 			@ <UNDEFINED> instruction: 49002048
     a30:	4c5f544e 	mrrcmi	4, 4, r5, pc, cr14	@ <UNPREDICTABLE>
     a34:	54534145 			@ <UNDEFINED> instruction: 54534145
     a38:	4d5f3436 			@ <UNDEFINED> instruction: 4d5f3436
     a3c:	28205841 			@ <UNDEFINED> instruction: 28205841
     a40:	4e495f5f 			@ <UNDEFINED> instruction: 4e495f5f
     a44:	454c5f54 			@ <UNDEFINED> instruction: 454c5f54
     a48:	36545341 			@ <UNDEFINED> instruction: 36545341
     a4c:	414d5f34 			@ <UNDEFINED> instruction: 414d5f34
     a50:	295f5f58 			@ <UNDEFINED> instruction: 295f5f58
     a54:	465f5f00 			@ <UNDEFINED> instruction: 465f5f00
     a58:	3436544c 			@ <UNDEFINED> instruction: 3436544c
     a5c:	4e494d5f 			@ <UNDEFINED> instruction: 4e494d5f
     a60:	5058455f 			@ <UNDEFINED> instruction: 5058455f
     a64:	28205f5f 			@ <UNDEFINED> instruction: 28205f5f
     a68:	3230312d 			@ <UNDEFINED> instruction: 3230312d
     a6c:	5f002931 			@ <UNDEFINED> instruction: 5f002931
     a70:	5254505f 			@ <UNDEFINED> instruction: 5254505f
     a74:	46464944 			@ <UNDEFINED> instruction: 46464944
     a78:	4449575f 			@ <UNDEFINED> instruction: 4449575f
     a7c:	5f5f4854 			@ <UNDEFINED> instruction: 5f5f4854
     a80:	00323320 			@ <UNDEFINED> instruction: 00323320
     a84:	49555f5f 			@ <UNDEFINED> instruction: 49555f5f
     a88:	465f544e 			@ <UNDEFINED> instruction: 465f544e
     a8c:	38545341 			@ <UNDEFINED> instruction: 38545341
     a90:	58414d5f 			@ <UNDEFINED> instruction: 58414d5f
     a94:	30205f5f 			@ <UNDEFINED> instruction: 30205f5f
     a98:	66666678 			@ <UNDEFINED> instruction: 66666678
     a9c:	66666666 			@ <UNDEFINED> instruction: 66666666
     aa0:	57005566 			@ <UNDEFINED> instruction: 57005566
     aa4:	52414843 			@ <UNDEFINED> instruction: 52414843
     aa8:	58414d5f 			@ <UNDEFINED> instruction: 58414d5f
     aac:	5f5f2820 			@ <UNDEFINED> instruction: 5f5f2820
     ab0:	41484357 			@ <UNDEFINED> instruction: 41484357
     ab4:	414d5f52 			@ <UNDEFINED> instruction: 414d5f52
     ab8:	295f5f58 			@ <UNDEFINED> instruction: 295f5f58
     abc:	4c5f5f00 	mrrcmi	15, 0, r5, pc, cr0	@ <UNPREDICTABLE>
     ac0:	55434341 			@ <UNDEFINED> instruction: 55434341
     ac4:	42495f4d 			@ <UNDEFINED> instruction: 42495f4d
     ac8:	5f5f5449 			@ <UNDEFINED> instruction: 5f5f5449
     acc:	00323320 			@ <UNDEFINED> instruction: 00323320
     ad0:	5f544e49 			@ <UNDEFINED> instruction: 5f544e49
     ad4:	5341454c 	movtpl	r4, #5452	@ 0x154c
     ad8:	4d5f3854 			@ <UNDEFINED> instruction: 4d5f3854
     adc:	28205841 			@ <UNDEFINED> instruction: 28205841
     ae0:	4e495f5f 			@ <UNDEFINED> instruction: 4e495f5f
     ae4:	454c5f54 			@ <UNDEFINED> instruction: 454c5f54
     ae8:	38545341 			@ <UNDEFINED> instruction: 38545341
     aec:	58414d5f 			@ <UNDEFINED> instruction: 58414d5f
     af0:	00295f5f 			@ <UNDEFINED> instruction: 00295f5f
     af4:	69755f5f 			@ <UNDEFINED> instruction: 69755f5f
     af8:	5f38746e 			@ <UNDEFINED> instruction: 5f38746e
     afc:	5f5f0074 			@ <UNDEFINED> instruction: 5f5f0074
     b00:	41484353 			@ <UNDEFINED> instruction: 41484353
     b04:	49575f52 			@ <UNDEFINED> instruction: 49575f52
     b08:	5f485444 			@ <UNDEFINED> instruction: 5f485444
     b0c:	0038205f 			@ <UNDEFINED> instruction: 0038205f
     b10:	4e495f5f 			@ <UNDEFINED> instruction: 4e495f5f
     b14:	41465f54 			@ <UNDEFINED> instruction: 41465f54
     b18:	36315453 			@ <UNDEFINED> instruction: 36315453
     b1c:	4449575f 			@ <UNDEFINED> instruction: 4449575f
     b20:	5f5f4854 			@ <UNDEFINED> instruction: 5f5f4854
     b24:	00323320 			@ <UNDEFINED> instruction: 00323320
     b28:	46565f5f 	usaxmi	r5, r6, pc	@ <UNPREDICTABLE>
     b2c:	50465f50 			@ <UNDEFINED> instruction: 50465f50
     b30:	31205f5f 			@ <UNDEFINED> instruction: 31205f5f
     b34:	4c5f5f00 	mrrcmi	15, 0, r5, pc, cr0	@ <UNPREDICTABLE>
     b38:	54534145 			@ <UNDEFINED> instruction: 54534145
     b3c:	22203233 			@ <UNDEFINED> instruction: 22203233
     b40:	5f00226c 			@ <UNDEFINED> instruction: 5f00226c
     b44:	544e495f 			@ <UNDEFINED> instruction: 544e495f
     b48:	22203436 			@ <UNDEFINED> instruction: 22203436
     b4c:	00226c6c 			@ <UNDEFINED> instruction: 00226c6c
     b50:	4e495f5f 			@ <UNDEFINED> instruction: 4e495f5f
     b54:	52545054 			@ <UNDEFINED> instruction: 52545054
     b58:	58414d5f 			@ <UNDEFINED> instruction: 58414d5f
     b5c:	30205f5f 			@ <UNDEFINED> instruction: 30205f5f
     b60:	66663778 			@ <UNDEFINED> instruction: 66663778
     b64:	66666666 			@ <UNDEFINED> instruction: 66666666
     b68:	414d0066 			@ <UNDEFINED> instruction: 414d0066
     b6c:	41545f58 			@ <UNDEFINED> instruction: 41545f58
     b70:	20534b53 			@ <UNDEFINED> instruction: 20534b53
     b74:	5f5f0034 			@ <UNDEFINED> instruction: 5f5f0034
     b78:	5f434347 			@ <UNDEFINED> instruction: 5f434347
     b7c:	4d4f5441 			@ <UNDEFINED> instruction: 4d4f5441
     b80:	505f4349 			@ <UNDEFINED> instruction: 505f4349
     b84:	544e494f 			@ <UNDEFINED> instruction: 544e494f
     b88:	4c5f5245 	mrrcmi	2, 4, r5, pc, cr5	@ <UNPREDICTABLE>
     b8c:	5f4b434f 			@ <UNDEFINED> instruction: 5f4b434f
     b90:	45455246 			@ <UNDEFINED> instruction: 45455246
     b94:	5f003220 			@ <UNDEFINED> instruction: 5f003220
     b98:	4e49555f 			@ <UNDEFINED> instruction: 4e49555f
     b9c:	41465f54 			@ <UNDEFINED> instruction: 41465f54
     ba0:	36315453 			@ <UNDEFINED> instruction: 36315453
     ba4:	58414d5f 			@ <UNDEFINED> instruction: 58414d5f
     ba8:	30205f5f 			@ <UNDEFINED> instruction: 30205f5f
     bac:	66666678 			@ <UNDEFINED> instruction: 66666678
     bb0:	66666666 			@ <UNDEFINED> instruction: 66666666
     bb4:	49005566 			@ <UNDEFINED> instruction: 49005566
     bb8:	4c5f544e 	mrrcmi	4, 4, r5, pc, cr14	@ <UNPREDICTABLE>
     bbc:	54534145 			@ <UNDEFINED> instruction: 54534145
     bc0:	4d5f3436 			@ <UNDEFINED> instruction: 4d5f3436
     bc4:	28204e49 			@ <UNDEFINED> instruction: 28204e49
     bc8:	495f5f2d 			@ <UNDEFINED> instruction: 495f5f2d
     bcc:	4c5f544e 	mrrcmi	4, 4, r5, pc, cr14	@ <UNPREDICTABLE>
     bd0:	54534145 			@ <UNDEFINED> instruction: 54534145
     bd4:	4d5f3436 			@ <UNDEFINED> instruction: 4d5f3436
     bd8:	5f5f5841 			@ <UNDEFINED> instruction: 5f5f5841
     bdc:	31202d20 			@ <UNDEFINED> instruction: 31202d20
     be0:	4e490029 			@ <UNDEFINED> instruction: 4e490029
     be4:	41465f54 			@ <UNDEFINED> instruction: 41465f54
     be8:	5f385453 			@ <UNDEFINED> instruction: 5f385453
     bec:	2058414d 			@ <UNDEFINED> instruction: 2058414d
     bf0:	495f5f28 			@ <UNDEFINED> instruction: 495f5f28
     bf4:	465f544e 			@ <UNDEFINED> instruction: 465f544e
     bf8:	38545341 			@ <UNDEFINED> instruction: 38545341
     bfc:	58414d5f 			@ <UNDEFINED> instruction: 58414d5f
     c00:	00295f5f 			@ <UNDEFINED> instruction: 00295f5f
     c04:	52415f5f 			@ <UNDEFINED> instruction: 52415f5f
     c08:	45465f4d 			@ <UNDEFINED> instruction: 45465f4d
     c0c:	52555441 			@ <UNDEFINED> instruction: 52555441
     c10:	54425f45 			@ <UNDEFINED> instruction: 54425f45
     c14:	5f5f0049 			@ <UNDEFINED> instruction: 5f5f0049
     c18:	43554e47 			@ <UNDEFINED> instruction: 43554e47
     c1c:	4552505f 			@ <UNDEFINED> instruction: 4552505f
     c20:	28514552 			@ <UNDEFINED> instruction: 28514552
     c24:	2c6a616d 			@ <UNDEFINED> instruction: 2c6a616d
     c28:	296e696d 			@ <UNDEFINED> instruction: 296e696d
     c2c:	5f282820 			@ <UNDEFINED> instruction: 5f282820
     c30:	554e475f 			@ <UNDEFINED> instruction: 554e475f
     c34:	205f5f43 			@ <UNDEFINED> instruction: 205f5f43
     c38:	31203c3c 			@ <UNDEFINED> instruction: 31203c3c
     c3c:	2b202936 			@ <UNDEFINED> instruction: 2b202936
     c40:	475f5f20 			@ <UNDEFINED> instruction: 475f5f20
     c44:	5f43554e 			@ <UNDEFINED> instruction: 5f43554e
     c48:	4f4e494d 			@ <UNDEFINED> instruction: 4f4e494d
     c4c:	205f5f52 			@ <UNDEFINED> instruction: 205f5f52
     c50:	28203d3e 			@ <UNDEFINED> instruction: 28203d3e
     c54:	6a616d28 			@ <UNDEFINED> instruction: 6a616d28
     c58:	3c3c2029 			@ <UNDEFINED> instruction: 3c3c2029
     c5c:	29363120 			@ <UNDEFINED> instruction: 29363120
     c60:	28202b20 			@ <UNDEFINED> instruction: 28202b20
     c64:	296e696d 			@ <UNDEFINED> instruction: 296e696d
     c68:	5f5f0029 			@ <UNDEFINED> instruction: 5f5f0029
     c6c:	41524655 			@ <UNDEFINED> instruction: 41524655
     c70:	4d5f5443 			@ <UNDEFINED> instruction: 4d5f5443
     c74:	5f5f4e49 			@ <UNDEFINED> instruction: 5f5f4e49
     c78:	302e3020 			@ <UNDEFINED> instruction: 302e3020
     c7c:	5f005255 			@ <UNDEFINED> instruction: 5f005255
     c80:	50544e49 			@ <UNDEFINED> instruction: 50544e49
     c84:	545f5254 			@ <UNDEFINED> instruction: 545f5254
     c88:	4345445f 	movtmi	r4, #21599	@ 0x545f
     c8c:	4552414c 			@ <UNDEFINED> instruction: 4552414c
     c90:	5f002044 			@ <UNDEFINED> instruction: 5f002044
     c94:	544c465f 			@ <UNDEFINED> instruction: 544c465f
     c98:	5f583233 			@ <UNDEFINED> instruction: 5f583233
     c9c:	5f534148 			@ <UNDEFINED> instruction: 5f534148
     ca0:	49464e49 			@ <UNDEFINED> instruction: 49464e49
     ca4:	5954494e 			@ <UNDEFINED> instruction: 5954494e
     ca8:	31205f5f 			@ <UNDEFINED> instruction: 31205f5f
     cac:	544e4900 			@ <UNDEFINED> instruction: 544e4900
     cb0:	5341465f 	movtpl	r4, #5727	@ 0x165f
     cb4:	5f323354 			@ <UNDEFINED> instruction: 5f323354
     cb8:	204e494d 			@ <UNDEFINED> instruction: 204e494d
     cbc:	5f5f2d28 			@ <UNDEFINED> instruction: 5f5f2d28
     cc0:	5f544e49 			@ <UNDEFINED> instruction: 5f544e49
     cc4:	54534146 			@ <UNDEFINED> instruction: 54534146
     cc8:	4d5f3233 			@ <UNDEFINED> instruction: 4d5f3233
     ccc:	5f5f5841 			@ <UNDEFINED> instruction: 5f5f5841
     cd0:	31202d20 			@ <UNDEFINED> instruction: 31202d20
     cd4:	535f0029 			@ <UNDEFINED> instruction: 535f0029
     cd8:	535f5359 			@ <UNDEFINED> instruction: 535f5359
     cdc:	5f455a49 			@ <UNDEFINED> instruction: 5f455a49
     ce0:	20485f54 			@ <UNDEFINED> instruction: 20485f54
     ce4:	42454400 			@ <UNDEFINED> instruction: 42454400
     ce8:	31204755 			@ <UNDEFINED> instruction: 31204755
     cec:	415f5f00 			@ <UNDEFINED> instruction: 415f5f00
     cf0:	4d554343 			@ <UNDEFINED> instruction: 4d554343
     cf4:	4942465f 			@ <UNDEFINED> instruction: 4942465f
     cf8:	205f5f54 			@ <UNDEFINED> instruction: 205f5f54
     cfc:	5f003531 			@ <UNDEFINED> instruction: 5f003531
     d00:	4341555f 	movtmi	r5, #5471	@ 0x155f
     d04:	5f4d5543 			@ <UNDEFINED> instruction: 5f4d5543
     d08:	54494249 			@ <UNDEFINED> instruction: 54494249
     d0c:	31205f5f 			@ <UNDEFINED> instruction: 31205f5f
     d10:	32490036 			@ <UNDEFINED> instruction: 32490036
     d14:	425f3343 			@ <UNDEFINED> instruction: 425f3343
     d18:	20455341 			@ <UNDEFINED> instruction: 20455341
     d1c:	30347830 			@ <UNDEFINED> instruction: 30347830
     d20:	43353030 			@ <UNDEFINED> instruction: 43353030
     d24:	00553030 			@ <UNDEFINED> instruction: 00553030
     d28:	4e495f5f 			@ <UNDEFINED> instruction: 4e495f5f
     d2c:	41465f54 			@ <UNDEFINED> instruction: 41465f54
     d30:	34365453 			@ <UNDEFINED> instruction: 34365453
     d34:	58414d5f 			@ <UNDEFINED> instruction: 58414d5f
     d38:	30205f5f 			@ <UNDEFINED> instruction: 30205f5f
     d3c:	66663778 			@ <UNDEFINED> instruction: 66663778
     d40:	66666666 			@ <UNDEFINED> instruction: 66666666
     d44:	66666666 			@ <UNDEFINED> instruction: 66666666
     d48:	66666666 			@ <UNDEFINED> instruction: 66666666
     d4c:	004c4c66 			@ <UNDEFINED> instruction: 004c4c66
     d50:	4c465f5f 	mcrrmi	15, 5, r5, r6, cr15
     d54:	58323354 			@ <UNDEFINED> instruction: 58323354
     d58:	4345445f 	movtmi	r4, #21599	@ 0x545f
     d5c:	4c414d49 	mcrrmi	13, 4, r4, r1, cr9
     d60:	4749445f 	smlsldmi	r4, r9, pc, r4	@ <UNPREDICTABLE>
     d64:	31205f5f 			@ <UNDEFINED> instruction: 31205f5f
     d68:	5f5f0037 			@ <UNDEFINED> instruction: 5f5f0037
     d6c:	5f4c4244 			@ <UNDEFINED> instruction: 5f4c4244
     d70:	5f4e494d 			@ <UNDEFINED> instruction: 5f4e494d
     d74:	2828205f 			@ <UNDEFINED> instruction: 2828205f
     d78:	62756f64 			@ <UNDEFINED> instruction: 62756f64
     d7c:	3229656c 			@ <UNDEFINED> instruction: 3229656c
     d80:	3532322e 			@ <UNDEFINED> instruction: 3532322e
     d84:	38333730 			@ <UNDEFINED> instruction: 38333730
     d88:	30353835 			@ <UNDEFINED> instruction: 30353835
     d8c:	31303237 			@ <UNDEFINED> instruction: 31303237
     d90:	332d6534 			@ <UNDEFINED> instruction: 332d6534
     d94:	294c3830 			@ <UNDEFINED> instruction: 294c3830
     d98:	465f5f00 			@ <UNDEFINED> instruction: 465f5f00
     d9c:	3233544c 			@ <UNDEFINED> instruction: 3233544c
     da0:	41485f58 			@ <UNDEFINED> instruction: 41485f58
     da4:	55515f53 			@ <UNDEFINED> instruction: 55515f53
     da8:	5f544549 			@ <UNDEFINED> instruction: 5f544549
     dac:	5f4e414e 			@ <UNDEFINED> instruction: 5f4e414e
     db0:	0031205f 			@ <UNDEFINED> instruction: 0031205f
     db4:	4c465f5f 	mcrrmi	15, 5, r5, r6, cr15
     db8:	58323354 			@ <UNDEFINED> instruction: 58323354
     dbc:	5350455f 			@ <UNDEFINED> instruction: 5350455f
     dc0:	4e4f4c49 			@ <UNDEFINED> instruction: 4e4f4c49
     dc4:	32205f5f 			@ <UNDEFINED> instruction: 32205f5f
     dc8:	3032322e 			@ <UNDEFINED> instruction: 3032322e
     dcc:	30363434 			@ <UNDEFINED> instruction: 30363434
     dd0:	35323934 			@ <UNDEFINED> instruction: 35323934
     dd4:	33313330 			@ <UNDEFINED> instruction: 33313330
     dd8:	312d6531 			@ <UNDEFINED> instruction: 312d6531
     ddc:	32334636 			@ <UNDEFINED> instruction: 32334636
     de0:	5f5f0078 			@ <UNDEFINED> instruction: 5f5f0078
     de4:	746e695f 			@ <UNDEFINED> instruction: 746e695f
     de8:	61656c5f 			@ <UNDEFINED> instruction: 61656c5f
     dec:	36317473 			@ <UNDEFINED> instruction: 36317473
     df0:	645f745f 			@ <UNDEFINED> instruction: 645f745f
     df4:	6e696665 			@ <UNDEFINED> instruction: 6e696665
     df8:	31206465 			@ <UNDEFINED> instruction: 31206465
     dfc:	495f5f00 			@ <UNDEFINED> instruction: 495f5f00
     e00:	465f544e 			@ <UNDEFINED> instruction: 465f544e
     e04:	38545341 			@ <UNDEFINED> instruction: 38545341
     e08:	5059545f 			@ <UNDEFINED> instruction: 5059545f
     e0c:	205f5f45 			@ <UNDEFINED> instruction: 205f5f45
     e10:	00746e69 			@ <UNDEFINED> instruction: 00746e69
     e14:	44555f5f 			@ <UNDEFINED> instruction: 44555f5f
     e18:	42465f41 			@ <UNDEFINED> instruction: 42465f41
     e1c:	5f5f5449 			@ <UNDEFINED> instruction: 5f5f5449
     e20:	00323320 			@ <UNDEFINED> instruction: 00323320
     e24:	69735f5f 			@ <UNDEFINED> instruction: 69735f5f
     e28:	745f657a 			@ <UNDEFINED> instruction: 745f657a
     e2c:	00205f5f 			@ <UNDEFINED> instruction: 00205f5f
     e30:	4c465f5f 	mcrrmi	15, 5, r5, r6, cr15
     e34:	5f343654 			@ <UNDEFINED> instruction: 5f343654
     e38:	5f58414d 			@ <UNDEFINED> instruction: 5f58414d
     e3c:	455f3031 			@ <UNDEFINED> instruction: 455f3031
     e40:	5f5f5058 			@ <UNDEFINED> instruction: 5f5f5058
     e44:	38303320 			@ <UNDEFINED> instruction: 38303320
     e48:	555f5f00 			@ <UNDEFINED> instruction: 555f5f00
     e4c:	4d544e49 			@ <UNDEFINED> instruction: 4d544e49
     e50:	435f5841 			@ <UNDEFINED> instruction: 435f5841
     e54:	20296328 			@ <UNDEFINED> instruction: 20296328
     e58:	23232063 			@ <UNDEFINED> instruction: 23232063
     e5c:	4c4c5520 	mcrrmi	5, 2, r5, ip, cr0
     e60:	535f5f00 			@ <UNDEFINED> instruction: 535f5f00
     e64:	4f455a49 			@ <UNDEFINED> instruction: 4f455a49
     e68:	4f505f46 			@ <UNDEFINED> instruction: 4f505f46
     e6c:	45544e49 			@ <UNDEFINED> instruction: 45544e49
     e70:	205f5f52 			@ <UNDEFINED> instruction: 205f5f52
     e74:	4e490034 			@ <UNDEFINED> instruction: 4e490034
     e78:	41465f54 			@ <UNDEFINED> instruction: 41465f54
     e7c:	34365453 			@ <UNDEFINED> instruction: 34365453
     e80:	4e494d5f 			@ <UNDEFINED> instruction: 4e494d5f
     e84:	5f2d2820 			@ <UNDEFINED> instruction: 5f2d2820
     e88:	544e495f 			@ <UNDEFINED> instruction: 544e495f
     e8c:	5341465f 	movtpl	r4, #5727	@ 0x165f
     e90:	5f343654 			@ <UNDEFINED> instruction: 5f343654
     e94:	5f58414d 			@ <UNDEFINED> instruction: 5f58414d
     e98:	202d205f 			@ <UNDEFINED> instruction: 202d205f
     e9c:	5f002931 			@ <UNDEFINED> instruction: 5f002931
     ea0:	4343475f 	movtmi	r4, #14175	@ 0x375f
     ea4:	4f54415f 			@ <UNDEFINED> instruction: 4f54415f
     ea8:	5f43494d 			@ <UNDEFINED> instruction: 5f43494d
     eac:	4c4f4f42 	mcrrmi	15, 4, r4, pc, cr2
     eb0:	434f4c5f 	movtmi	r4, #64607	@ 0xfc5f
     eb4:	52465f4b 			@ <UNDEFINED> instruction: 52465f4b
     eb8:	32204545 			@ <UNDEFINED> instruction: 32204545
     ebc:	5f5f5f00 			@ <UNDEFINED> instruction: 5f5f5f00
     ec0:	36746e69 			@ <UNDEFINED> instruction: 36746e69
     ec4:	5f745f34 			@ <UNDEFINED> instruction: 5f745f34
     ec8:	69666564 			@ <UNDEFINED> instruction: 69666564
     ecc:	2064656e 			@ <UNDEFINED> instruction: 2064656e
     ed0:	5f5f0031 			@ <UNDEFINED> instruction: 5f5f0031
     ed4:	5f4d5241 			@ <UNDEFINED> instruction: 5f4d5241
     ed8:	4e4f454e 			@ <UNDEFINED> instruction: 4e4f454e
     edc:	55005f5f 			@ <UNDEFINED> instruction: 55005f5f
     ee0:	50544e49 			@ <UNDEFINED> instruction: 50544e49
     ee4:	4d5f5254 			@ <UNDEFINED> instruction: 4d5f5254
     ee8:	28205841 			@ <UNDEFINED> instruction: 28205841
     eec:	49555f5f 			@ <UNDEFINED> instruction: 49555f5f
     ef0:	5450544e 			@ <UNDEFINED> instruction: 5450544e
     ef4:	414d5f52 			@ <UNDEFINED> instruction: 414d5f52
     ef8:	295f5f58 			@ <UNDEFINED> instruction: 295f5f58
     efc:	465f5f00 			@ <UNDEFINED> instruction: 465f5f00
     f00:	3233544c 			@ <UNDEFINED> instruction: 3233544c
     f04:	58414d5f 			@ <UNDEFINED> instruction: 58414d5f
     f08:	5058455f 			@ <UNDEFINED> instruction: 5058455f
     f0c:	31205f5f 			@ <UNDEFINED> instruction: 31205f5f
     f10:	6d003832 			@ <UNDEFINED> instruction: 6d003832
     f14:	006e6961 			@ <UNDEFINED> instruction: 006e6961
     f18:	48545f5f 			@ <UNDEFINED> instruction: 48545f5f
     f1c:	5f424d55 			@ <UNDEFINED> instruction: 5f424d55
     f20:	45544e49 			@ <UNDEFINED> instruction: 45544e49
     f24:	524f5752 			@ <UNDEFINED> instruction: 524f5752
     f28:	205f5f4b 			@ <UNDEFINED> instruction: 205f5f4b
     f2c:	5f5f0031 			@ <UNDEFINED> instruction: 5f5f0031
     f30:	464c4c55 			@ <UNDEFINED> instruction: 464c4c55
     f34:	54434152 			@ <UNDEFINED> instruction: 54434152
     f38:	58414d5f 			@ <UNDEFINED> instruction: 58414d5f
     f3c:	30205f5f 			@ <UNDEFINED> instruction: 30205f5f
     f40:	46464658 			@ <UNDEFINED> instruction: 46464658
     f44:	46464646 			@ <UNDEFINED> instruction: 46464646
     f48:	46464646 			@ <UNDEFINED> instruction: 46464646
     f4c:	46464646 			@ <UNDEFINED> instruction: 46464646
     f50:	362d5046 			@ <UNDEFINED> instruction: 362d5046
     f54:	4c4c5534 	mcrrmi	5, 3, r5, ip, cr4
     f58:	5f5f0052 			@ <UNDEFINED> instruction: 5f5f0052
     f5c:	5f4d5241 			@ <UNDEFINED> instruction: 5f4d5241
     f60:	54414546 			@ <UNDEFINED> instruction: 54414546
     f64:	5f455255 			@ <UNDEFINED> instruction: 5f455255
     f68:	54494251 			@ <UNDEFINED> instruction: 54494251
     f6c:	5f003120 			@ <UNDEFINED> instruction: 5f003120
     f70:	554e475f 			@ <UNDEFINED> instruction: 554e475f
     f74:	49575f43 			@ <UNDEFINED> instruction: 49575f43
     f78:	455f4544 			@ <UNDEFINED> instruction: 455f4544
     f7c:	55434558 			@ <UNDEFINED> instruction: 55434558
     f80:	4e4f4954 			@ <UNDEFINED> instruction: 4e4f4954
     f84:	4148435f 			@ <UNDEFINED> instruction: 4148435f
     f88:	54455352 			@ <UNDEFINED> instruction: 54455352
     f8c:	4d414e5f 			@ <UNDEFINED> instruction: 4d414e5f
     f90:	55222045 			@ <UNDEFINED> instruction: 55222045
     f94:	332d4654 			@ <UNDEFINED> instruction: 332d4654
     f98:	22454c32 			@ <UNDEFINED> instruction: 22454c32
     f9c:	5f5f5f00 			@ <UNDEFINED> instruction: 5f5f5f00
     fa0:	5f746e69 			@ <UNDEFINED> instruction: 5f746e69
     fa4:	64727470 			@ <UNDEFINED> instruction: 64727470
     fa8:	5f666669 			@ <UNDEFINED> instruction: 5f666669
     fac:	20685f74 			@ <UNDEFINED> instruction: 20685f74
     fb0:	49535f00 			@ <UNDEFINED> instruction: 49535f00
     fb4:	545f455a 			@ <UNDEFINED> instruction: 545f455a
     fb8:	4345445f 	movtmi	r4, #21599	@ 0x545f
     fbc:	4552414c 			@ <UNDEFINED> instruction: 4552414c
     fc0:	5f002044 			@ <UNDEFINED> instruction: 5f002044
     fc4:	4148435f 			@ <UNDEFINED> instruction: 4148435f
     fc8:	5f323352 			@ <UNDEFINED> instruction: 5f323352
     fcc:	45505954 			@ <UNDEFINED> instruction: 45505954
     fd0:	6c205f5f 			@ <UNDEFINED> instruction: 6c205f5f
     fd4:	20676e6f 			@ <UNDEFINED> instruction: 20676e6f
     fd8:	69736e75 			@ <UNDEFINED> instruction: 69736e75
     fdc:	64656e67 			@ <UNDEFINED> instruction: 64656e67
     fe0:	746e6920 			@ <UNDEFINED> instruction: 746e6920
     fe4:	415f5f00 			@ <UNDEFINED> instruction: 415f5f00
     fe8:	465f4d52 			@ <UNDEFINED> instruction: 465f4d52
     fec:	55544145 			@ <UNDEFINED> instruction: 55544145
     ff0:	465f4552 			@ <UNDEFINED> instruction: 465f4552
     ff4:	5f363150 			@ <UNDEFINED> instruction: 5f363150
     ff8:	54434556 			@ <UNDEFINED> instruction: 54434556
     ffc:	415f524f 			@ <UNDEFINED> instruction: 415f524f
    1000:	48544952 			@ <UNDEFINED> instruction: 48544952
    1004:	4954454d 			@ <UNDEFINED> instruction: 4954454d
    1008:	5f5f0043 			@ <UNDEFINED> instruction: 5f5f0043
    100c:	5f4c4244 			@ <UNDEFINED> instruction: 5f4c4244
    1010:	495f5349 			@ <UNDEFINED> instruction: 495f5349
    1014:	365f4345 			@ <UNDEFINED> instruction: 365f4345
    1018:	39353530 			@ <UNDEFINED> instruction: 39353530
    101c:	31205f5f 			@ <UNDEFINED> instruction: 31205f5f
    1020:	555f5f00 			@ <UNDEFINED> instruction: 555f5f00
    1024:	33544e49 			@ <UNDEFINED> instruction: 33544e49
    1028:	59545f32 			@ <UNDEFINED> instruction: 59545f32
    102c:	5f5f4550 			@ <UNDEFINED> instruction: 5f5f4550
    1030:	6e6f6c20 			@ <UNDEFINED> instruction: 6e6f6c20
    1034:	6e752067 			@ <UNDEFINED> instruction: 6e752067
    1038:	6e676973 			@ <UNDEFINED> instruction: 6e676973
    103c:	69206465 			@ <UNDEFINED> instruction: 69206465
    1040:	5f00746e 			@ <UNDEFINED> instruction: 5f00746e
    1044:	4e49555f 			@ <UNDEFINED> instruction: 4e49555f
    1048:	41465f54 			@ <UNDEFINED> instruction: 41465f54
    104c:	32335453 			@ <UNDEFINED> instruction: 32335453
    1050:	58414d5f 			@ <UNDEFINED> instruction: 58414d5f
    1054:	30205f5f 			@ <UNDEFINED> instruction: 30205f5f
    1058:	66666678 			@ <UNDEFINED> instruction: 66666678
    105c:	66666666 			@ <UNDEFINED> instruction: 66666666
    1060:	5f005566 			@ <UNDEFINED> instruction: 5f005566
    1064:	544c465f 			@ <UNDEFINED> instruction: 544c465f
    1068:	58414d5f 			@ <UNDEFINED> instruction: 58414d5f
    106c:	5058455f 			@ <UNDEFINED> instruction: 5058455f
    1070:	31205f5f 			@ <UNDEFINED> instruction: 31205f5f
    1074:	5f003832 			@ <UNDEFINED> instruction: 5f003832
    1078:	5a49535f 			@ <UNDEFINED> instruction: 5a49535f
    107c:	5f464f45 			@ <UNDEFINED> instruction: 5f464f45
    1080:	474e4f4c 			@ <UNDEFINED> instruction: 474e4f4c
    1084:	34205f5f 			@ <UNDEFINED> instruction: 34205f5f
    1088:	535f5f00 			@ <UNDEFINED> instruction: 535f5f00
    108c:	4f455a49 			@ <UNDEFINED> instruction: 4f455a49
    1090:	4f445f46 			@ <UNDEFINED> instruction: 4f445f46
    1094:	454c4255 			@ <UNDEFINED> instruction: 454c4255
    1098:	38205f5f 			@ <UNDEFINED> instruction: 38205f5f
    109c:	495f5f00 			@ <UNDEFINED> instruction: 495f5f00
    10a0:	4c5f544e 	mrrcmi	4, 4, r5, pc, cr14	@ <UNPREDICTABLE>
    10a4:	54534145 			@ <UNDEFINED> instruction: 54534145
    10a8:	575f3233 	smmlarpl	pc, r3, r2, r3	@ <UNPREDICTABLE>
    10ac:	48544449 			@ <UNDEFINED> instruction: 48544449
    10b0:	33205f5f 			@ <UNDEFINED> instruction: 33205f5f
    10b4:	5f5f0032 			@ <UNDEFINED> instruction: 5f5f0032
    10b8:	4c57454e 	mrrcmi	5, 4, r4, r7, cr14
    10bc:	4d5f4249 			@ <UNDEFINED> instruction: 4d5f4249
    10c0:	524f4e49 			@ <UNDEFINED> instruction: 524f4e49
    10c4:	35205f5f 			@ <UNDEFINED> instruction: 35205f5f
    10c8:	465f5f00 			@ <UNDEFINED> instruction: 465f5f00
    10cc:	3233544c 			@ <UNDEFINED> instruction: 3233544c
    10d0:	494d5f58 			@ <UNDEFINED> instruction: 494d5f58
    10d4:	58455f4e 			@ <UNDEFINED> instruction: 58455f4e
    10d8:	205f5f50 			@ <UNDEFINED> instruction: 205f5f50
    10dc:	30312d28 			@ <UNDEFINED> instruction: 30312d28
    10e0:	00293132 			@ <UNDEFINED> instruction: 00293132
    10e4:	41465f5f 			@ <UNDEFINED> instruction: 41465f5f
    10e8:	36315453 			@ <UNDEFINED> instruction: 36315453
    10ec:	50470020 			@ <UNDEFINED> instruction: 50470020
    10f0:	505f4f49 			@ <UNDEFINED> instruction: 505f4f49
    10f4:	4354524f 			@ <UNDEFINED> instruction: 4354524f
    10f8:	46464f5f 			@ <UNDEFINED> instruction: 46464f5f
    10fc:	20544553 			@ <UNDEFINED> instruction: 20544553
    1100:	38307830 			@ <UNDEFINED> instruction: 38307830
    1104:	00553030 			@ <UNDEFINED> instruction: 00553030
    1108:	414c5f5f 			@ <UNDEFINED> instruction: 414c5f5f
    110c:	46454752 			@ <UNDEFINED> instruction: 46454752
    1110:	5f454c49 			@ <UNDEFINED> instruction: 5f454c49
    1114:	49534956 			@ <UNDEFINED> instruction: 49534956
    1118:	20454c42 			@ <UNDEFINED> instruction: 20454c42
    111c:	5f5f0030 			@ <UNDEFINED> instruction: 5f5f0030
    1120:	4c57454e 	mrrcmi	5, 4, r4, r7, cr14
    1124:	5f5f4249 			@ <UNDEFINED> instruction: 5f5f4249
    1128:	5f003420 			@ <UNDEFINED> instruction: 5f003420
    112c:	554e475f 			@ <UNDEFINED> instruction: 554e475f
    1130:	58455f43 			@ <UNDEFINED> instruction: 58455f43
    1134:	54554345 			@ <UNDEFINED> instruction: 54554345
    1138:	5f4e4f49 			@ <UNDEFINED> instruction: 5f4e4f49
    113c:	52414843 			@ <UNDEFINED> instruction: 52414843
    1140:	5f544553 			@ <UNDEFINED> instruction: 5f544553
    1144:	454d414e 			@ <UNDEFINED> instruction: 454d414e
    1148:	54552220 			@ <UNDEFINED> instruction: 54552220
    114c:	22382d46 			@ <UNDEFINED> instruction: 22382d46
    1150:	555f5f00 			@ <UNDEFINED> instruction: 555f5f00
    1154:	465f4154 			@ <UNDEFINED> instruction: 465f4154
    1158:	5f544942 			@ <UNDEFINED> instruction: 5f544942
    115c:	3436205f 			@ <UNDEFINED> instruction: 3436205f
    1160:	53595300 			@ <UNDEFINED> instruction: 53595300
    1164:	0020485f 			@ <UNDEFINED> instruction: 0020485f
    1168:	4c465f5f 	mcrrmi	15, 5, r5, r6, cr15
    116c:	45445f54 			@ <UNDEFINED> instruction: 45445f54
    1170:	414d4943 			@ <UNDEFINED> instruction: 414d4943
    1174:	49445f4c 			@ <UNDEFINED> instruction: 49445f4c
    1178:	205f5f47 			@ <UNDEFINED> instruction: 205f5f47
    117c:	5f5f0039 			@ <UNDEFINED> instruction: 5f5f0039
    1180:	43445453 	movtmi	r5, #17491	@ 0x4453
    1184:	5245565f 			@ <UNDEFINED> instruction: 5245565f
    1188:	4e4f4953 			@ <UNDEFINED> instruction: 4e4f4953
    118c:	4454535f 			@ <UNDEFINED> instruction: 4454535f
    1190:	5f464544 			@ <UNDEFINED> instruction: 5f464544
    1194:	205f5f48 			@ <UNDEFINED> instruction: 205f5f48
    1198:	33323032 			@ <UNDEFINED> instruction: 33323032
    119c:	004c3131 			@ <UNDEFINED> instruction: 004c3131
    11a0:	4d544e49 			@ <UNDEFINED> instruction: 4d544e49
    11a4:	4d5f5841 			@ <UNDEFINED> instruction: 4d5f5841
    11a8:	28204e49 			@ <UNDEFINED> instruction: 28204e49
    11ac:	544e492d 			@ <UNDEFINED> instruction: 544e492d
    11b0:	5f58414d 			@ <UNDEFINED> instruction: 5f58414d
    11b4:	2058414d 			@ <UNDEFINED> instruction: 2058414d
    11b8:	2931202d 			@ <UNDEFINED> instruction: 2931202d
    11bc:	415f5f00 			@ <UNDEFINED> instruction: 415f5f00
    11c0:	465f4d52 			@ <UNDEFINED> instruction: 465f4d52
    11c4:	55544145 			@ <UNDEFINED> instruction: 55544145
    11c8:	465f4552 			@ <UNDEFINED> instruction: 465f4552
    11cc:	3120414d 			@ <UNDEFINED> instruction: 3120414d
    11d0:	475f5f00 			@ <UNDEFINED> instruction: 475f5f00
    11d4:	5f43554e 			@ <UNDEFINED> instruction: 5f43554e
    11d8:	43445453 	movtmi	r5, #17491	@ 0x4453
    11dc:	4c4e495f 	mcrrmi	9, 5, r4, lr, cr15	@ <UNPREDICTABLE>
    11e0:	5f454e49 			@ <UNDEFINED> instruction: 5f454e49
    11e4:	0031205f 			@ <UNDEFINED> instruction: 0031205f
    11e8:	41484357 			@ <UNDEFINED> instruction: 41484357
    11ec:	494d5f52 			@ <UNDEFINED> instruction: 494d5f52
    11f0:	5f28204e 			@ <UNDEFINED> instruction: 5f28204e
    11f4:	4843575f 			@ <UNDEFINED> instruction: 4843575f
    11f8:	4d5f5241 			@ <UNDEFINED> instruction: 4d5f5241
    11fc:	5f5f4e49 			@ <UNDEFINED> instruction: 5f5f4e49
    1200:	5f5f0029 			@ <UNDEFINED> instruction: 5f5f0029
    1204:	43415246 	movtmi	r5, #4678	@ 0x1246
    1208:	42465f54 			@ <UNDEFINED> instruction: 42465f54
    120c:	5f5f5449 			@ <UNDEFINED> instruction: 5f5f5449
    1210:	00353120 			@ <UNDEFINED> instruction: 00353120
    1214:	4c4c5f5f 	mcrrmi	15, 5, r5, ip, cr15
    1218:	55434341 			@ <UNDEFINED> instruction: 55434341
    121c:	50455f4d 			@ <UNDEFINED> instruction: 50455f4d
    1220:	4f4c4953 			@ <UNDEFINED> instruction: 4f4c4953
    1224:	205f5f4e 			@ <UNDEFINED> instruction: 205f5f4e
    1228:	50317830 			@ <UNDEFINED> instruction: 50317830
    122c:	4c31332d 			@ <UNDEFINED> instruction: 4c31332d
    1230:	5f004b4c 			@ <UNDEFINED> instruction: 5f004b4c
    1234:	4343475f 	movtmi	r4, #14175	@ 0x375f
    1238:	4f54415f 			@ <UNDEFINED> instruction: 4f54415f
    123c:	5f43494d 			@ <UNDEFINED> instruction: 5f43494d
    1240:	52414843 			@ <UNDEFINED> instruction: 52414843
    1244:	545f3233 			@ <UNDEFINED> instruction: 545f3233
    1248:	434f4c5f 	movtmi	r4, #64607	@ 0xfc5f
    124c:	52465f4b 			@ <UNDEFINED> instruction: 52465f4b
    1250:	32204545 			@ <UNDEFINED> instruction: 32204545
    1254:	555f5f00 			@ <UNDEFINED> instruction: 555f5f00
    1258:	5f544e49 			@ <UNDEFINED> instruction: 5f544e49
    125c:	5341454c 	movtpl	r4, #5452	@ 0x154c
    1260:	5f363154 			@ <UNDEFINED> instruction: 5f363154
    1264:	5f58414d 			@ <UNDEFINED> instruction: 5f58414d
    1268:	7830205f 			@ <UNDEFINED> instruction: 7830205f
    126c:	66666666 			@ <UNDEFINED> instruction: 66666666
    1270:	415f5f00 			@ <UNDEFINED> instruction: 415f5f00
    1274:	415f4d52 			@ <UNDEFINED> instruction: 415f4d52
    1278:	5f484352 			@ <UNDEFINED> instruction: 5f484352
    127c:	464f5250 			@ <UNDEFINED> instruction: 464f5250
    1280:	20454c49 			@ <UNDEFINED> instruction: 20454c49
    1284:	50003737 			@ <UNDEFINED> instruction: 50003737
    1288:	556c6c75 			@ <UNDEFINED> instruction: 556c6c75
    128c:	6c755070 			@ <UNDEFINED> instruction: 6c755070
    1290:	776f446c 			@ <UNDEFINED> instruction: 776f446c
    1294:	5f5f006e 			@ <UNDEFINED> instruction: 5f5f006e
    1298:	5f414855 			@ <UNDEFINED> instruction: 5f414855
    129c:	54494249 			@ <UNDEFINED> instruction: 54494249
    12a0:	38205f5f 			@ <UNDEFINED> instruction: 38205f5f
    12a4:	465f5f00 			@ <UNDEFINED> instruction: 465f5f00
    12a8:	445f544c 			@ <UNDEFINED> instruction: 445f544c
    12ac:	5f5f4749 			@ <UNDEFINED> instruction: 5f5f4749
    12b0:	5f003620 			@ <UNDEFINED> instruction: 5f003620
    12b4:	544e495f 			@ <UNDEFINED> instruction: 544e495f
    12b8:	5341465f 	movtpl	r4, #5727	@ 0x165f
    12bc:	5f323354 			@ <UNDEFINED> instruction: 5f323354
    12c0:	54444957 			@ <UNDEFINED> instruction: 54444957
    12c4:	205f5f48 			@ <UNDEFINED> instruction: 205f5f48
    12c8:	5f003233 			@ <UNDEFINED> instruction: 5f003233
    12cc:	5f445342 			@ <UNDEFINED> instruction: 5f445342
    12d0:	455a4953 			@ <UNDEFINED> instruction: 455a4953
    12d4:	445f545f 			@ <UNDEFINED> instruction: 445f545f
    12d8:	4e494645 			@ <UNDEFINED> instruction: 4e494645
    12dc:	205f4445 			@ <UNDEFINED> instruction: 205f4445
    12e0:	555f5f00 			@ <UNDEFINED> instruction: 555f5f00
    12e4:	5f544e49 			@ <UNDEFINED> instruction: 5f544e49
    12e8:	54534146 			@ <UNDEFINED> instruction: 54534146
    12ec:	545f3233 			@ <UNDEFINED> instruction: 545f3233
    12f0:	5f455059 			@ <UNDEFINED> instruction: 5f455059
    12f4:	6e75205f 			@ <UNDEFINED> instruction: 6e75205f
    12f8:	6e676973 			@ <UNDEFINED> instruction: 6e676973
    12fc:	69206465 			@ <UNDEFINED> instruction: 69206465
    1300:	5f00746e 			@ <UNDEFINED> instruction: 5f00746e
    1304:	6e695f5f 			@ <UNDEFINED> instruction: 6e695f5f
    1308:	69735f74 			@ <UNDEFINED> instruction: 69735f74
    130c:	745f657a 			@ <UNDEFINED> instruction: 745f657a
    1310:	0020685f 			@ <UNDEFINED> instruction: 0020685f
    1314:	54535f5f 			@ <UNDEFINED> instruction: 54535f5f
    1318:	555f4344 			@ <UNDEFINED> instruction: 555f4344
    131c:	335f4654 			@ <UNDEFINED> instruction: 335f4654
    1320:	205f5f32 			@ <UNDEFINED> instruction: 205f5f32
    1324:	5f5f0031 			@ <UNDEFINED> instruction: 5f5f0031
    1328:	455a4953 			@ <UNDEFINED> instruction: 455a4953
    132c:	465f464f 			@ <UNDEFINED> instruction: 465f464f
    1330:	54414f4c 			@ <UNDEFINED> instruction: 54414f4c
    1334:	34205f5f 			@ <UNDEFINED> instruction: 34205f5f
    1338:	465f5f00 			@ <UNDEFINED> instruction: 465f5f00
    133c:	3233544c 			@ <UNDEFINED> instruction: 3233544c
    1340:	45445f58 			@ <UNDEFINED> instruction: 45445f58
    1344:	4d524f4e 			@ <UNDEFINED> instruction: 4d524f4e
    1348:	4e494d5f 			@ <UNDEFINED> instruction: 4e494d5f
    134c:	34205f5f 			@ <UNDEFINED> instruction: 34205f5f
    1350:	3034392e 			@ <UNDEFINED> instruction: 3034392e
    1354:	34363536 			@ <UNDEFINED> instruction: 34363536
    1358:	31343835 			@ <UNDEFINED> instruction: 31343835
    135c:	35363432 			@ <UNDEFINED> instruction: 35363432
    1360:	332d6534 			@ <UNDEFINED> instruction: 332d6534
    1364:	33463432 	movtcc	r3, #25650	@ 0x6432
    1368:	5f007832 			@ <UNDEFINED> instruction: 5f007832
    136c:	544c465f 			@ <UNDEFINED> instruction: 544c465f
    1370:	58414d5f 			@ <UNDEFINED> instruction: 58414d5f
    1374:	5f30315f 			@ <UNDEFINED> instruction: 5f30315f
    1378:	5f505845 			@ <UNDEFINED> instruction: 5f505845
    137c:	3833205f 			@ <UNDEFINED> instruction: 3833205f
    1380:	465f5f00 			@ <UNDEFINED> instruction: 465f5f00
    1384:	54434152 			@ <UNDEFINED> instruction: 54434152
    1388:	58414d5f 			@ <UNDEFINED> instruction: 58414d5f
    138c:	30205f5f 			@ <UNDEFINED> instruction: 30205f5f
    1390:	46463758 			@ <UNDEFINED> instruction: 46463758
    1394:	312d5046 			@ <UNDEFINED> instruction: 312d5046
    1398:	5f005235 			@ <UNDEFINED> instruction: 5f005235
    139c:	4343475f 	movtmi	r4, #14175	@ 0x375f
    13a0:	4345495f 	movtmi	r4, #22879	@ 0x595f
    13a4:	3935355f 			@ <UNDEFINED> instruction: 3935355f
    13a8:	5f003020 			@ <UNDEFINED> instruction: 5f003020
    13ac:	4c42445f 	mcrrmi	4, 5, r4, r2, cr15
    13b0:	4e494d5f 			@ <UNDEFINED> instruction: 4e494d5f
    13b4:	5f30315f 			@ <UNDEFINED> instruction: 5f30315f
    13b8:	5f505845 			@ <UNDEFINED> instruction: 5f505845
    13bc:	2d28205f 			@ <UNDEFINED> instruction: 2d28205f
    13c0:	29373033 			@ <UNDEFINED> instruction: 29373033
    13c4:	495f5f00 			@ <UNDEFINED> instruction: 495f5f00
    13c8:	465f544e 			@ <UNDEFINED> instruction: 465f544e
    13cc:	33545341 			@ <UNDEFINED> instruction: 33545341
    13d0:	414d5f32 			@ <UNDEFINED> instruction: 414d5f32
    13d4:	205f5f58 			@ <UNDEFINED> instruction: 205f5f58
    13d8:	66377830 			@ <UNDEFINED> instruction: 66377830
    13dc:	66666666 			@ <UNDEFINED> instruction: 66666666
    13e0:	5f006666 			@ <UNDEFINED> instruction: 5f006666
    13e4:	4f54415f 			@ <UNDEFINED> instruction: 4f54415f
    13e8:	5f43494d 			@ <UNDEFINED> instruction: 5f43494d
    13ec:	5f514553 			@ <UNDEFINED> instruction: 5f514553
    13f0:	20545343 			@ <UNDEFINED> instruction: 20545343
    13f4:	5f5f0035 			@ <UNDEFINED> instruction: 5f5f0035
    13f8:	49464544 			@ <UNDEFINED> instruction: 49464544
    13fc:	5f44454e 			@ <UNDEFINED> instruction: 5f44454e
    1400:	657a6973 			@ <UNDEFINED> instruction: 657a6973
    1404:	0020745f 			@ <UNDEFINED> instruction: 0020745f
    1408:	48535550 			@ <UNDEFINED> instruction: 48535550
    140c:	4c55505f 	mrrcmi	0, 5, r5, r5, cr15	@ <UNPREDICTABLE>
    1410:	5047004c 			@ <UNDEFINED> instruction: 5047004c
    1414:	485f4f49 			@ <UNDEFINED> instruction: 485f4f49
    1418:	5f5f0020 			@ <UNDEFINED> instruction: 5f5f0020
    141c:	49534f50 			@ <UNDEFINED> instruction: 49534f50
    1420:	49565f58 			@ <UNDEFINED> instruction: 49565f58
    1424:	4c424953 	mcrrmi	9, 5, r4, r2, cr3	@ <UNPREDICTABLE>
    1428:	30322045 			@ <UNDEFINED> instruction: 30322045
    142c:	35303432 			@ <UNDEFINED> instruction: 35303432
    1430:	555f5f00 			@ <UNDEFINED> instruction: 555f5f00
    1434:	31544e49 			@ <UNDEFINED> instruction: 31544e49
    1438:	414d5f36 			@ <UNDEFINED> instruction: 414d5f36
    143c:	205f5f58 			@ <UNDEFINED> instruction: 205f5f58
    1440:	66667830 			@ <UNDEFINED> instruction: 66667830
    1444:	5f006666 			@ <UNDEFINED> instruction: 5f006666
    1448:	5f51545f 			@ <UNDEFINED> instruction: 5f51545f
    144c:	54494246 			@ <UNDEFINED> instruction: 54494246
    1450:	31205f5f 			@ <UNDEFINED> instruction: 31205f5f
    1454:	5f003732 			@ <UNDEFINED> instruction: 5f003732
    1458:	5248535f 			@ <UNDEFINED> instruction: 5248535f
    145c:	414d5f54 			@ <UNDEFINED> instruction: 414d5f54
    1460:	205f5f58 			@ <UNDEFINED> instruction: 205f5f58
    1464:	66377830 			@ <UNDEFINED> instruction: 66377830
    1468:	43006666 	movwmi	r6, #1638	@ 0x666
    146c:	52544e4f 			@ <UNDEFINED> instruction: 52544e4f
    1470:	6e5f4c4f 			@ <UNDEFINED> instruction: 6e5f4c4f
    1474:	56495250 			@ <UNDEFINED> instruction: 56495250
    1478:	6b734d5f 			@ <UNDEFINED> instruction: 6b734d5f
    147c:	55312820 			@ <UNDEFINED> instruction: 55312820
    1480:	203c3c20 			@ <UNDEFINED> instruction: 203c3c20
    1484:	5f002930 			@ <UNDEFINED> instruction: 5f002930
    1488:	746e695f 			@ <UNDEFINED> instruction: 746e695f
    148c:	7361665f 			@ <UNDEFINED> instruction: 7361665f
    1490:	5f343674 			@ <UNDEFINED> instruction: 5f343674
    1494:	65645f74 			@ <UNDEFINED> instruction: 65645f74
    1498:	656e6966 			@ <UNDEFINED> instruction: 656e6966
    149c:	00312064 			@ <UNDEFINED> instruction: 00312064
    14a0:	53555f5f 			@ <UNDEFINED> instruction: 53555f5f
    14a4:	495f5345 			@ <UNDEFINED> instruction: 495f5345
    14a8:	4654494e 			@ <UNDEFINED> instruction: 4654494e
    14ac:	5f494e49 			@ <UNDEFINED> instruction: 5f494e49
    14b0:	0031205f 			@ <UNDEFINED> instruction: 0031205f
    14b4:	49535f5f 			@ <UNDEFINED> instruction: 49535f5f
    14b8:	464f455a 			@ <UNDEFINED> instruction: 464f455a
    14bc:	4f48535f 			@ <UNDEFINED> instruction: 4f48535f
    14c0:	5f5f5452 			@ <UNDEFINED> instruction: 5f5f5452
    14c4:	5f003220 			@ <UNDEFINED> instruction: 5f003220
    14c8:	4c4c555f 	mcrrmi	5, 5, r5, ip, cr15
    14cc:	55434341 			@ <UNDEFINED> instruction: 55434341
    14d0:	42465f4d 			@ <UNDEFINED> instruction: 42465f4d
    14d4:	5f5f5449 			@ <UNDEFINED> instruction: 5f5f5449
    14d8:	00323320 			@ <UNDEFINED> instruction: 00323320
    14dc:	4d6e6950 			@ <UNDEFINED> instruction: 4d6e6950
    14e0:	0065646f 			@ <UNDEFINED> instruction: 0065646f
    14e4:	6f6f425f 			@ <UNDEFINED> instruction: 6f6f425f
    14e8:	454c006c 			@ <UNDEFINED> instruction: 454c006c
    14ec:	28203244 			@ <UNDEFINED> instruction: 28203244
    14f0:	64654c28 			@ <UNDEFINED> instruction: 64654c28
    14f4:	6f666e49 			@ <UNDEFINED> instruction: 6f666e49
    14f8:	50477b29 			@ <UNDEFINED> instruction: 50477b29
    14fc:	435f4f49 			@ <UNDEFINED> instruction: 435f4f49
    1500:	49464e4f 			@ <UNDEFINED> instruction: 49464e4f
    1504:	4f502847 			@ <UNDEFINED> instruction: 4f502847
    1508:	2c465452 	mcrrcs	4, 5, r5, r6, cr2
    150c:	4e495020 			@ <UNDEFINED> instruction: 4e495020
    1510:	2c31315f 			@ <UNDEFINED> instruction: 2c31315f
    1514:	54554f20 			@ <UNDEFINED> instruction: 54554f20
    1518:	2c545550 	mrrccs	5, 5, r5, r4, cr0
    151c:	53555020 			@ <UNDEFINED> instruction: 53555020
    1520:	55505f48 			@ <UNDEFINED> instruction: 55505f48
    1524:	202c4c4c 			@ <UNDEFINED> instruction: 202c4c4c
    1528:	4c4c5550 	mcrrmi	5, 5, r5, ip, cr0
    152c:	574f445f 	smlsldpl	r4, pc, pc, r4	@ <UNPREDICTABLE>
    1530:	41202c4e 			@ <UNDEFINED> instruction: 41202c4e
    1534:	4f4e5f46 			@ <UNDEFINED> instruction: 4f4e5f46
    1538:	7d29454e 			@ <UNDEFINED> instruction: 7d29454e
    153c:	535f0029 			@ <UNDEFINED> instruction: 535f0029
    1540:	465f5359 			@ <UNDEFINED> instruction: 465f5359
    1544:	55544145 			@ <UNDEFINED> instruction: 55544145
    1548:	5f534552 			@ <UNDEFINED> instruction: 5f534552
    154c:	5f002048 			@ <UNDEFINED> instruction: 5f002048
    1550:	5a49535f 			@ <UNDEFINED> instruction: 5a49535f
    1554:	5f464f45 			@ <UNDEFINED> instruction: 5f464f45
    1558:	474e4f4c 			@ <UNDEFINED> instruction: 474e4f4c
    155c:	554f445f 			@ <UNDEFINED> instruction: 554f445f
    1560:	5f454c42 			@ <UNDEFINED> instruction: 5f454c42
    1564:	0038205f 			@ <UNDEFINED> instruction: 0038205f
    1568:	52505f5f 			@ <UNDEFINED> instruction: 52505f5f
    156c:	414d4741 			@ <UNDEFINED> instruction: 414d4741
    1570:	4445525f 			@ <UNDEFINED> instruction: 4445525f
    1574:	4e494645 			@ <UNDEFINED> instruction: 4e494645
    1578:	58455f45 			@ <UNDEFINED> instruction: 58455f45
    157c:	4d414e54 			@ <UNDEFINED> instruction: 4d414e54
    1580:	00312045 			@ <UNDEFINED> instruction: 00312045
    1584:	43575f5f 			@ <UNDEFINED> instruction: 43575f5f
    1588:	5f524148 			@ <UNDEFINED> instruction: 5f524148
    158c:	45505954 			@ <UNDEFINED> instruction: 45505954
    1590:	75205f5f 			@ <UNDEFINED> instruction: 75205f5f
    1594:	6769736e 			@ <UNDEFINED> instruction: 6769736e
    1598:	2064656e 			@ <UNDEFINED> instruction: 2064656e
    159c:	00746e69 			@ <UNDEFINED> instruction: 00746e69
    15a0:	53555f5f 			@ <UNDEFINED> instruction: 53555f5f
    15a4:	42495f41 			@ <UNDEFINED> instruction: 42495f41
    15a8:	5f5f5449 			@ <UNDEFINED> instruction: 5f5f5449
    15ac:	00363120 			@ <UNDEFINED> instruction: 00363120
    15b0:	43475f5f 	movtmi	r5, #32607	@ 0x7f5f
    15b4:	41485f43 			@ <UNDEFINED> instruction: 41485f43
    15b8:	535f4556 			@ <UNDEFINED> instruction: 535f4556
    15bc:	5f434e59 			@ <UNDEFINED> instruction: 5f434e59
    15c0:	504d4f43 			@ <UNDEFINED> instruction: 504d4f43
    15c4:	5f455241 			@ <UNDEFINED> instruction: 5f455241
    15c8:	5f444e41 			@ <UNDEFINED> instruction: 5f444e41
    15cc:	50415753 			@ <UNDEFINED> instruction: 50415753
    15d0:	3120325f 			@ <UNDEFINED> instruction: 3120325f
    15d4:	544e4900 			@ <UNDEFINED> instruction: 544e4900
    15d8:	5f58414d 			@ <UNDEFINED> instruction: 5f58414d
    15dc:	29782843 			@ <UNDEFINED> instruction: 29782843
    15e0:	495f5f20 			@ <UNDEFINED> instruction: 495f5f20
    15e4:	414d544e 			@ <UNDEFINED> instruction: 414d544e
    15e8:	28435f58 			@ <UNDEFINED> instruction: 28435f58
    15ec:	50002978 			@ <UNDEFINED> instruction: 50002978
    15f0:	49445254 			@ <UNDEFINED> instruction: 49445254
    15f4:	4d5f4646 			@ <UNDEFINED> instruction: 4d5f4646
    15f8:	28204e49 			@ <UNDEFINED> instruction: 28204e49
    15fc:	5254502d 			@ <UNDEFINED> instruction: 5254502d
    1600:	46464944 			@ <UNDEFINED> instruction: 46464944
    1604:	58414d5f 			@ <UNDEFINED> instruction: 58414d5f
    1608:	31202d20 			@ <UNDEFINED> instruction: 31202d20
    160c:	5f5f0029 			@ <UNDEFINED> instruction: 5f5f0029
    1610:	544e4955 			@ <UNDEFINED> instruction: 544e4955
    1614:	5341465f 	movtpl	r4, #5727	@ 0x165f
    1618:	5f343654 			@ <UNDEFINED> instruction: 5f343654
    161c:	45505954 			@ <UNDEFINED> instruction: 45505954
    1620:	6c205f5f 			@ <UNDEFINED> instruction: 6c205f5f
    1624:	20676e6f 			@ <UNDEFINED> instruction: 20676e6f
    1628:	676e6f6c 			@ <UNDEFINED> instruction: 676e6f6c
    162c:	736e7520 			@ <UNDEFINED> instruction: 736e7520
    1630:	656e6769 			@ <UNDEFINED> instruction: 656e6769
    1634:	6e692064 			@ <UNDEFINED> instruction: 6e692064
    1638:	5f5f0074 			@ <UNDEFINED> instruction: 5f5f0074
    163c:	5f544c46 			@ <UNDEFINED> instruction: 5f544c46
    1640:	5f4e494d 			@ <UNDEFINED> instruction: 5f4e494d
    1644:	2e31205f 			@ <UNDEFINED> instruction: 2e31205f
    1648:	34353731 			@ <UNDEFINED> instruction: 34353731
    164c:	35333439 			@ <UNDEFINED> instruction: 35333439
    1650:	32323830 			@ <UNDEFINED> instruction: 32323830
    1654:	35373832 			@ <UNDEFINED> instruction: 35373832
    1658:	38332d65 			@ <UNDEFINED> instruction: 38332d65
    165c:	5f5f0046 			@ <UNDEFINED> instruction: 5f5f0046
    1660:	465f4148 			@ <UNDEFINED> instruction: 465f4148
    1664:	5f544942 			@ <UNDEFINED> instruction: 5f544942
    1668:	0037205f 			@ <UNDEFINED> instruction: 0037205f
    166c:	44465f5f 			@ <UNDEFINED> instruction: 44465f5f
    1670:	5f434950 			@ <UNDEFINED> instruction: 5f434950
    1674:	5f5f005f 			@ <UNDEFINED> instruction: 5f5f005f
    1678:	33544c46 			@ <UNDEFINED> instruction: 33544c46
    167c:	53495f32 	movtpl	r5, #40754	@ 0x9f32
    1680:	4345495f 	movtmi	r4, #22879	@ 0x595f
    1684:	3530365f 			@ <UNDEFINED> instruction: 3530365f
    1688:	5f5f3935 			@ <UNDEFINED> instruction: 5f5f3935
    168c:	53003120 	movwpl	r3, #288	@ 0x120
    1690:	415f4749 			@ <UNDEFINED> instruction: 415f4749
    1694:	494d4f54 			@ <UNDEFINED> instruction: 494d4f54
    1698:	414d5f43 			@ <UNDEFINED> instruction: 414d5f43
    169c:	5f282058 			@ <UNDEFINED> instruction: 5f282058
    16a0:	4454535f 			@ <UNDEFINED> instruction: 4454535f
    16a4:	5f544e49 			@ <UNDEFINED> instruction: 5f544e49
    16a8:	28505845 			@ <UNDEFINED> instruction: 28505845
    16ac:	5f544e49 			@ <UNDEFINED> instruction: 5f544e49
    16b0:	2958414d 			@ <UNDEFINED> instruction: 2958414d
    16b4:	5f5f0029 			@ <UNDEFINED> instruction: 5f5f0029
    16b8:	52465355 			@ <UNDEFINED> instruction: 52465355
    16bc:	5f544341 			@ <UNDEFINED> instruction: 5f544341
    16c0:	54494249 			@ <UNDEFINED> instruction: 54494249
    16c4:	30205f5f 			@ <UNDEFINED> instruction: 30205f5f
    16c8:	61747300 			@ <UNDEFINED> instruction: 61747300
    16cc:	5f636974 			@ <UNDEFINED> instruction: 5f636974
    16d0:	00726176 			@ <UNDEFINED> instruction: 00726176
    16d4:	53555f5f 			@ <UNDEFINED> instruction: 53555f5f
    16d8:	43415246 	movtmi	r5, #4678	@ 0x1246
    16dc:	494d5f54 			@ <UNDEFINED> instruction: 494d5f54
    16e0:	205f5f4e 			@ <UNDEFINED> instruction: 205f5f4e
    16e4:	55302e30 			@ <UNDEFINED> instruction: 55302e30
    16e8:	5f005248 			@ <UNDEFINED> instruction: 5f005248
    16ec:	4d52415f 			@ <UNDEFINED> instruction: 4d52415f
    16f0:	4f454e5f 			@ <UNDEFINED> instruction: 4f454e5f
    16f4:	5f5f004e 			@ <UNDEFINED> instruction: 5f5f004e
    16f8:	544e4955 			@ <UNDEFINED> instruction: 544e4955
    16fc:	414d5f38 			@ <UNDEFINED> instruction: 414d5f38
    1700:	205f5f58 			@ <UNDEFINED> instruction: 205f5f58
    1704:	66667830 			@ <UNDEFINED> instruction: 66667830
    1708:	5f5f5f00 			@ <UNDEFINED> instruction: 5f5f5f00
    170c:	31746e69 			@ <UNDEFINED> instruction: 31746e69
    1710:	5f745f36 			@ <UNDEFINED> instruction: 5f745f36
    1714:	69666564 			@ <UNDEFINED> instruction: 69666564
    1718:	2064656e 			@ <UNDEFINED> instruction: 2064656e
    171c:	5f5f0031 			@ <UNDEFINED> instruction: 5f5f0031
    1720:	4c42444c 	mcrrmi	4, 4, r4, r2, cr12
    1724:	58414d5f 			@ <UNDEFINED> instruction: 58414d5f
    1728:	5058455f 			@ <UNDEFINED> instruction: 5058455f
    172c:	31205f5f 			@ <UNDEFINED> instruction: 31205f5f
    1730:	00343230 			@ <UNDEFINED> instruction: 00343230
    1734:	42445f5f 			@ <UNDEFINED> instruction: 42445f5f
    1738:	41485f4c 			@ <UNDEFINED> instruction: 41485f4c
    173c:	45445f53 			@ <UNDEFINED> instruction: 45445f53
    1740:	4d524f4e 			@ <UNDEFINED> instruction: 4d524f4e
    1744:	31205f5f 			@ <UNDEFINED> instruction: 31205f5f
    1748:	544e4900 			@ <UNDEFINED> instruction: 544e4900
    174c:	5f58414d 			@ <UNDEFINED> instruction: 5f58414d
    1750:	2058414d 			@ <UNDEFINED> instruction: 2058414d
    1754:	495f5f28 			@ <UNDEFINED> instruction: 495f5f28
    1758:	414d544e 			@ <UNDEFINED> instruction: 414d544e
    175c:	414d5f58 			@ <UNDEFINED> instruction: 414d5f58
    1760:	295f5f58 			@ <UNDEFINED> instruction: 295f5f58
    1764:	544e4900 			@ <UNDEFINED> instruction: 544e4900
    1768:	4d5f3233 			@ <UNDEFINED> instruction: 4d5f3233
    176c:	28205841 			@ <UNDEFINED> instruction: 28205841
    1770:	4e495f5f 			@ <UNDEFINED> instruction: 4e495f5f
    1774:	5f323354 			@ <UNDEFINED> instruction: 5f323354
    1778:	5f58414d 			@ <UNDEFINED> instruction: 5f58414d
    177c:	5f00295f 			@ <UNDEFINED> instruction: 5f00295f
    1780:	5f41445f 			@ <UNDEFINED> instruction: 5f41445f
    1784:	54494246 			@ <UNDEFINED> instruction: 54494246
    1788:	33205f5f 			@ <UNDEFINED> instruction: 33205f5f
    178c:	545f0031 			@ <UNDEFINED> instruction: 545f0031
    1790:	5254505f 			@ <UNDEFINED> instruction: 5254505f
    1794:	46464944 			@ <UNDEFINED> instruction: 46464944
    1798:	5f00205f 			@ <UNDEFINED> instruction: 5f00205f
    179c:	544e495f 			@ <UNDEFINED> instruction: 544e495f
    17a0:	41454c5f 			@ <UNDEFINED> instruction: 41454c5f
    17a4:	36315453 			@ <UNDEFINED> instruction: 36315453
    17a8:	58414d5f 			@ <UNDEFINED> instruction: 58414d5f
    17ac:	30205f5f 			@ <UNDEFINED> instruction: 30205f5f
    17b0:	66663778 			@ <UNDEFINED> instruction: 66663778
    17b4:	5f5f0066 			@ <UNDEFINED> instruction: 5f5f0066
    17b8:	5f544c46 			@ <UNDEFINED> instruction: 5f544c46
    17bc:	4f4e4544 			@ <UNDEFINED> instruction: 4f4e4544
    17c0:	4d5f4d52 			@ <UNDEFINED> instruction: 4d5f4d52
    17c4:	5f5f4e49 			@ <UNDEFINED> instruction: 5f5f4e49
    17c8:	342e3120 			@ <UNDEFINED> instruction: 342e3120
    17cc:	39323130 			@ <UNDEFINED> instruction: 39323130
    17d0:	34363438 			@ <UNDEFINED> instruction: 34363438
    17d4:	38343233 			@ <UNDEFINED> instruction: 38343233
    17d8:	65313731 			@ <UNDEFINED> instruction: 65313731
    17dc:	4635342d 			@ <UNDEFINED> instruction: 4635342d
    17e0:	4c5f5f00 	mrrcmi	15, 0, r5, pc, cr0	@ <UNPREDICTABLE>
    17e4:	54534145 			@ <UNDEFINED> instruction: 54534145
    17e8:	68222038 			@ <UNDEFINED> instruction: 68222038
    17ec:	55002268 			@ <UNDEFINED> instruction: 55002268
    17f0:	5f544e49 			@ <UNDEFINED> instruction: 5f544e49
    17f4:	5341454c 	movtpl	r4, #5452	@ 0x154c
    17f8:	5f363154 			@ <UNDEFINED> instruction: 5f363154
    17fc:	2058414d 			@ <UNDEFINED> instruction: 2058414d
    1800:	555f5f28 			@ <UNDEFINED> instruction: 555f5f28
    1804:	5f544e49 			@ <UNDEFINED> instruction: 5f544e49
    1808:	5341454c 	movtpl	r4, #5452	@ 0x154c
    180c:	5f363154 			@ <UNDEFINED> instruction: 5f363154
    1810:	5f58414d 			@ <UNDEFINED> instruction: 5f58414d
    1814:	5f00295f 			@ <UNDEFINED> instruction: 5f00295f
    1818:	4e49555f 			@ <UNDEFINED> instruction: 4e49555f
    181c:	5f323354 			@ <UNDEFINED> instruction: 5f323354
    1820:	29632843 			@ <UNDEFINED> instruction: 29632843
    1824:	23206320 			@ <UNDEFINED> instruction: 23206320
    1828:	4c552023 	mrrcmi	0, 2, r2, r5, cr3
    182c:	43435200 	movtmi	r5, #12800	@ 0x3200
    1830:	5f52435f 			@ <UNDEFINED> instruction: 5f52435f
    1834:	5346464f 	movtpl	r4, #26191	@ 0x664f
    1838:	30205445 			@ <UNDEFINED> instruction: 30205445
    183c:	55303078 			@ <UNDEFINED> instruction: 55303078
    1840:	555f5f00 			@ <UNDEFINED> instruction: 555f5f00
    1844:	55434341 			@ <UNDEFINED> instruction: 55434341
    1848:	494d5f4d 			@ <UNDEFINED> instruction: 494d5f4d
    184c:	205f5f4e 			@ <UNDEFINED> instruction: 205f5f4e
    1850:	55302e30 			@ <UNDEFINED> instruction: 55302e30
    1854:	5f5f004b 			@ <UNDEFINED> instruction: 5f5f004b
    1858:	5f544c46 			@ <UNDEFINED> instruction: 5f544c46
    185c:	49535045 			@ <UNDEFINED> instruction: 49535045
    1860:	5f4e4f4c 			@ <UNDEFINED> instruction: 5f4e4f4c
    1864:	2e31205f 			@ <UNDEFINED> instruction: 2e31205f
    1868:	30323931 			@ <UNDEFINED> instruction: 30323931
    186c:	39383239 			@ <UNDEFINED> instruction: 39383239
    1870:	37303535 			@ <UNDEFINED> instruction: 37303535
    1874:	35323138 			@ <UNDEFINED> instruction: 35323138
    1878:	46372d65 			@ <UNDEFINED> instruction: 46372d65
    187c:	475f5f00 			@ <UNDEFINED> instruction: 475f5f00
    1880:	415f4343 			@ <UNDEFINED> instruction: 415f4343
    1884:	494d4f54 			@ <UNDEFINED> instruction: 494d4f54
    1888:	48535f43 			@ <UNDEFINED> instruction: 48535f43
    188c:	5f54524f 			@ <UNDEFINED> instruction: 5f54524f
    1890:	4b434f4c 			@ <UNDEFINED> instruction: 4b434f4c
    1894:	4552465f 			@ <UNDEFINED> instruction: 4552465f
    1898:	00322045 			@ <UNDEFINED> instruction: 00322045
    189c:	42445f5f 			@ <UNDEFINED> instruction: 42445f5f
    18a0:	414d5f4c 			@ <UNDEFINED> instruction: 414d5f4c
    18a4:	30315f58 			@ <UNDEFINED> instruction: 30315f58
    18a8:	5058455f 			@ <UNDEFINED> instruction: 5058455f
    18ac:	33205f5f 			@ <UNDEFINED> instruction: 33205f5f
    18b0:	5f003830 			@ <UNDEFINED> instruction: 5f003830
    18b4:	5254505f 			@ <UNDEFINED> instruction: 5254505f
    18b8:	46464944 			@ <UNDEFINED> instruction: 46464944
    18bc:	5059545f 			@ <UNDEFINED> instruction: 5059545f
    18c0:	205f5f45 			@ <UNDEFINED> instruction: 205f5f45
    18c4:	00746e69 			@ <UNDEFINED> instruction: 00746e69
    18c8:	52415f5f 			@ <UNDEFINED> instruction: 52415f5f
    18cc:	52415f4d 			@ <UNDEFINED> instruction: 52415f4d
    18d0:	495f4843 			@ <UNDEFINED> instruction: 495f4843
    18d4:	545f4153 			@ <UNDEFINED> instruction: 545f4153
    18d8:	424d5548 			@ <UNDEFINED> instruction: 424d5548
    18dc:	2f3a4400 			@ <UNDEFINED> instruction: 2f3a4400
    18e0:	72706d63 			@ <UNDEFINED> instruction: 72706d63
    18e4:	732f6a6f 			@ <UNDEFINED> instruction: 732f6a6f
    18e8:	32336d74 			@ <UNDEFINED> instruction: 32336d74
    18ec:	6172752f 			@ <UNDEFINED> instruction: 6172752f
    18f0:	2f617275 			@ <UNDEFINED> instruction: 2f617275
    18f4:	72732d63 			@ <UNDEFINED> instruction: 72732d63
    18f8:	75622f63 			@ <UNDEFINED> instruction: 75622f63
    18fc:	2f646c69 			@ <UNDEFINED> instruction: 2f646c69
    1900:	75626544 			@ <UNDEFINED> instruction: 75626544
    1904:	5f5f0067 			@ <UNDEFINED> instruction: 5f5f0067
    1908:	5f4d5241 			@ <UNDEFINED> instruction: 5f4d5241
    190c:	54414546 			@ <UNDEFINED> instruction: 54414546
    1910:	5f455255 			@ <UNDEFINED> instruction: 5f455255
    1914:	4d54414d 			@ <UNDEFINED> instruction: 4d54414d
    1918:	495f4c55 			@ <UNDEFINED> instruction: 495f4c55
    191c:	0038544e 			@ <UNDEFINED> instruction: 0038544e
    1920:	5f544e49 			@ <UNDEFINED> instruction: 5f544e49
    1924:	5341454c 	movtpl	r4, #5452	@ 0x154c
    1928:	5f323354 			@ <UNDEFINED> instruction: 5f323354
    192c:	2058414d 			@ <UNDEFINED> instruction: 2058414d
    1930:	495f5f28 			@ <UNDEFINED> instruction: 495f5f28
    1934:	4c5f544e 	mrrcmi	4, 4, r5, pc, cr14	@ <UNPREDICTABLE>
    1938:	54534145 			@ <UNDEFINED> instruction: 54534145
    193c:	4d5f3233 			@ <UNDEFINED> instruction: 4d5f3233
    1940:	5f5f5841 			@ <UNDEFINED> instruction: 5f5f5841
    1944:	4e490029 			@ <UNDEFINED> instruction: 4e490029
    1948:	454c5f54 			@ <UNDEFINED> instruction: 454c5f54
    194c:	33545341 			@ <UNDEFINED> instruction: 33545341
    1950:	494d5f32 			@ <UNDEFINED> instruction: 494d5f32
    1954:	2d28204e 			@ <UNDEFINED> instruction: 2d28204e
    1958:	4e495f5f 			@ <UNDEFINED> instruction: 4e495f5f
    195c:	454c5f54 			@ <UNDEFINED> instruction: 454c5f54
    1960:	33545341 			@ <UNDEFINED> instruction: 33545341
    1964:	414d5f32 			@ <UNDEFINED> instruction: 414d5f32
    1968:	205f5f58 			@ <UNDEFINED> instruction: 205f5f58
    196c:	2931202d 			@ <UNDEFINED> instruction: 2931202d
    1970:	555f5f00 			@ <UNDEFINED> instruction: 555f5f00
    1974:	43434153 	movtmi	r4, #12627	@ 0x3153
    1978:	465f4d55 			@ <UNDEFINED> instruction: 465f4d55
    197c:	5f544942 			@ <UNDEFINED> instruction: 5f544942
    1980:	0038205f 			@ <UNDEFINED> instruction: 0038205f
    1984:	43475f5f 	movtmi	r5, #32607	@ 0x7f5f
    1988:	54415f43 			@ <UNDEFINED> instruction: 54415f43
    198c:	43494d4f 	movtmi	r4, #40271	@ 0x9d4f
    1990:	5345545f 	movtpl	r5, #21599	@ 0x545f
    1994:	4e415f54 			@ <UNDEFINED> instruction: 4e415f54
    1998:	45535f44 			@ <UNDEFINED> instruction: 45535f44
    199c:	52545f54 			@ <UNDEFINED> instruction: 52545f54
    19a0:	41564555 			@ <UNDEFINED> instruction: 41564555
    19a4:	0031204c 			@ <UNDEFINED> instruction: 0031204c
    19a8:	494d5f5f 			@ <UNDEFINED> instruction: 494d5f5f
    19ac:	565f4353 			@ <UNDEFINED> instruction: 565f4353
    19b0:	42495349 			@ <UNDEFINED> instruction: 42495349
    19b4:	3120454c 			@ <UNDEFINED> instruction: 3120454c
    19b8:	43435200 	movtmi	r5, #12800	@ 0x3200
    19bc:	4250415f 			@ <UNDEFINED> instruction: 4250415f
    19c0:	53525f31 			@ <UNDEFINED> instruction: 53525f31
    19c4:	464f5f54 			@ <UNDEFINED> instruction: 464f5f54
    19c8:	54455346 			@ <UNDEFINED> instruction: 54455346
    19cc:	33783020 			@ <UNDEFINED> instruction: 33783020
    19d0:	5f005538 			@ <UNDEFINED> instruction: 5f005538
    19d4:	544c465f 			@ <UNDEFINED> instruction: 544c465f
    19d8:	485f3233 			@ <UNDEFINED> instruction: 485f3233
    19dc:	515f5341 			@ <UNDEFINED> instruction: 515f5341
    19e0:	54454955 			@ <UNDEFINED> instruction: 54454955
    19e4:	4e414e5f 			@ <UNDEFINED> instruction: 4e414e5f
    19e8:	31205f5f 			@ <UNDEFINED> instruction: 31205f5f
    19ec:	6e695000 			@ <UNDEFINED> instruction: 6e695000
    19f0:	7074754f 			@ <UNDEFINED> instruction: 7074754f
    19f4:	79547475 			@ <UNDEFINED> instruction: 79547475
    19f8:	41006570 			@ <UNDEFINED> instruction: 41006570
    19fc:	32495f46 			@ <UNDEFINED> instruction: 32495f46
    1a00:	535f3343 			@ <UNDEFINED> instruction: 535f3343
    1a04:	30204c43 			@ <UNDEFINED> instruction: 30204c43
    1a08:	4c003478 			@ <UNDEFINED> instruction: 4c003478
    1a0c:	6e496465 			@ <UNDEFINED> instruction: 6e496465
    1a10:	5f006f66 			@ <UNDEFINED> instruction: 5f006f66
    1a14:	5f41545f 			@ <UNDEFINED> instruction: 5f41545f
    1a18:	54494246 			@ <UNDEFINED> instruction: 54494246
    1a1c:	36205f5f 	qsaxcc	r5, r0, pc	@ <UNPREDICTABLE>
    1a20:	4e490033 			@ <UNDEFINED> instruction: 4e490033
    1a24:	52545054 			@ <UNDEFINED> instruction: 52545054
    1a28:	4e494d5f 			@ <UNDEFINED> instruction: 4e494d5f
    1a2c:	5f2d2820 			@ <UNDEFINED> instruction: 5f2d2820
    1a30:	544e495f 			@ <UNDEFINED> instruction: 544e495f
    1a34:	5f525450 			@ <UNDEFINED> instruction: 5f525450
    1a38:	5f58414d 			@ <UNDEFINED> instruction: 5f58414d
    1a3c:	202d205f 			@ <UNDEFINED> instruction: 202d205f
    1a40:	6c002931 			@ <UNDEFINED> instruction: 6c002931
    1a44:	745f6465 			@ <UNDEFINED> instruction: 745f6465
    1a48:	6c67676f 			@ <UNDEFINED> instruction: 6c67676f
    1a4c:	756f0065 			@ <UNDEFINED> instruction: 756f0065
    1a50:	74757074 			@ <UNDEFINED> instruction: 74757074
    1a54:	65707954 			@ <UNDEFINED> instruction: 65707954
    1a58:	555f5f00 			@ <UNDEFINED> instruction: 555f5f00
    1a5c:	495f5151 			@ <UNDEFINED> instruction: 495f5151
    1a60:	5f544942 			@ <UNDEFINED> instruction: 5f544942
    1a64:	0030205f 			@ <UNDEFINED> instruction: 0030205f
    1a68:	505f4f4e 			@ <UNDEFINED> instruction: 505f4f4e
    1a6c:	004c4c55 			@ <UNDEFINED> instruction: 004c4c55
    1a70:	49535f5f 			@ <UNDEFINED> instruction: 49535f5f
    1a74:	54415f47 			@ <UNDEFINED> instruction: 54415f47
    1a78:	43494d4f 	movtmi	r4, #40271	@ 0x9d4f
    1a7c:	4e494d5f 			@ <UNDEFINED> instruction: 4e494d5f
    1a80:	28205f5f 			@ <UNDEFINED> instruction: 28205f5f
    1a84:	535f5f2d 			@ <UNDEFINED> instruction: 535f5f2d
    1a88:	415f4749 			@ <UNDEFINED> instruction: 415f4749
    1a8c:	494d4f54 			@ <UNDEFINED> instruction: 494d4f54
    1a90:	414d5f43 			@ <UNDEFINED> instruction: 414d5f43
    1a94:	205f5f58 			@ <UNDEFINED> instruction: 205f5f58
    1a98:	2931202d 			@ <UNDEFINED> instruction: 2931202d
    1a9c:	555f5f00 			@ <UNDEFINED> instruction: 555f5f00
    1aa0:	5f544e49 			@ <UNDEFINED> instruction: 5f544e49
    1aa4:	5341454c 	movtpl	r4, #5452	@ 0x154c
    1aa8:	4d5f3854 			@ <UNDEFINED> instruction: 4d5f3854
    1aac:	5f5f5841 			@ <UNDEFINED> instruction: 5f5f5841
    1ab0:	66783020 			@ <UNDEFINED> instruction: 66783020
    1ab4:	425f0066 			@ <UNDEFINED> instruction: 425f0066
    1ab8:	575f4453 			@ <UNDEFINED> instruction: 575f4453
    1abc:	52414843 			@ <UNDEFINED> instruction: 52414843
    1ac0:	205f545f 			@ <UNDEFINED> instruction: 205f545f
    1ac4:	49504700 			@ <UNDEFINED> instruction: 49504700
    1ac8:	4f505f4f 			@ <UNDEFINED> instruction: 4f505f4f
    1acc:	5f415452 			@ <UNDEFINED> instruction: 5f415452
    1ad0:	5346464f 	movtpl	r4, #26191	@ 0x664f
    1ad4:	30205445 			@ <UNDEFINED> instruction: 30205445
    1ad8:	30303078 			@ <UNDEFINED> instruction: 30303078
    1adc:	53005530 	movwpl	r5, #1328	@ 0x530
    1ae0:	415f4749 			@ <UNDEFINED> instruction: 415f4749
    1ae4:	494d4f54 			@ <UNDEFINED> instruction: 494d4f54
    1ae8:	494d5f43 			@ <UNDEFINED> instruction: 494d5f43
    1aec:	2d28204e 			@ <UNDEFINED> instruction: 2d28204e
    1af0:	54535f5f 			@ <UNDEFINED> instruction: 54535f5f
    1af4:	544e4944 			@ <UNDEFINED> instruction: 544e4944
    1af8:	5058455f 			@ <UNDEFINED> instruction: 5058455f
    1afc:	544e4928 			@ <UNDEFINED> instruction: 544e4928
    1b00:	58414d5f 			@ <UNDEFINED> instruction: 58414d5f
    1b04:	202d2029 			@ <UNDEFINED> instruction: 202d2029
    1b08:	5f002931 			@ <UNDEFINED> instruction: 5f002931
    1b0c:	544c465f 			@ <UNDEFINED> instruction: 544c465f
    1b10:	5f583233 			@ <UNDEFINED> instruction: 5f583233
    1b14:	495f5349 			@ <UNDEFINED> instruction: 495f5349
    1b18:	365f4345 			@ <UNDEFINED> instruction: 365f4345
    1b1c:	39353530 			@ <UNDEFINED> instruction: 39353530
    1b20:	31205f5f 			@ <UNDEFINED> instruction: 31205f5f
    1b24:	4e495f00 			@ <UNDEFINED> instruction: 4e495f00
    1b28:	5f363154 			@ <UNDEFINED> instruction: 5f363154
    1b2c:	45445f54 			@ <UNDEFINED> instruction: 45445f54
    1b30:	52414c43 			@ <UNDEFINED> instruction: 52414c43
    1b34:	00204445 			@ <UNDEFINED> instruction: 00204445
    1b38:	49555f5f 			@ <UNDEFINED> instruction: 49555f5f
    1b3c:	5450544e 			@ <UNDEFINED> instruction: 5450544e
    1b40:	414d5f52 			@ <UNDEFINED> instruction: 414d5f52
    1b44:	205f5f58 			@ <UNDEFINED> instruction: 205f5f58
    1b48:	66667830 			@ <UNDEFINED> instruction: 66667830
    1b4c:	66666666 			@ <UNDEFINED> instruction: 66666666
    1b50:	00556666 			@ <UNDEFINED> instruction: 00556666
    1b54:	4e495f5f 			@ <UNDEFINED> instruction: 4e495f5f
    1b58:	454c5f54 			@ <UNDEFINED> instruction: 454c5f54
    1b5c:	31545341 			@ <UNDEFINED> instruction: 31545341
    1b60:	49575f36 			@ <UNDEFINED> instruction: 49575f36
    1b64:	5f485444 			@ <UNDEFINED> instruction: 5f485444
    1b68:	3631205f 			@ <UNDEFINED> instruction: 3631205f
    1b6c:	445f5f00 			@ <UNDEFINED> instruction: 445f5f00
    1b70:	455f4345 			@ <UNDEFINED> instruction: 455f4345
    1b74:	5f4c4156 			@ <UNDEFINED> instruction: 5f4c4156
    1b78:	4854454d 			@ <UNDEFINED> instruction: 4854454d
    1b7c:	5f5f444f 			@ <UNDEFINED> instruction: 5f5f444f
    1b80:	5f003220 			@ <UNDEFINED> instruction: 5f003220
    1b84:	4d52415f 			@ <UNDEFINED> instruction: 4d52415f
    1b88:	4145465f 			@ <UNDEFINED> instruction: 4145465f
    1b8c:	45525554 			@ <UNDEFINED> instruction: 45525554
    1b90:	3150465f 			@ <UNDEFINED> instruction: 3150465f
    1b94:	4d465f36 			@ <UNDEFINED> instruction: 4d465f36
    1b98:	5f5f004c 			@ <UNDEFINED> instruction: 5f5f004c
    1b9c:	52465355 			@ <UNDEFINED> instruction: 52465355
    1ba0:	5f544341 			@ <UNDEFINED> instruction: 5f544341
    1ba4:	49535045 			@ <UNDEFINED> instruction: 49535045
    1ba8:	5f4e4f4c 			@ <UNDEFINED> instruction: 5f4e4f4c
    1bac:	7830205f 			@ <UNDEFINED> instruction: 7830205f
    1bb0:	382d5031 			@ <UNDEFINED> instruction: 382d5031
    1bb4:	00524855 			@ <UNDEFINED> instruction: 00524855
    1bb8:	4c4c554e 	mcrrmi	5, 4, r5, ip, cr14
    1bbc:	76282820 			@ <UNDEFINED> instruction: 76282820
    1bc0:	2064696f 			@ <UNDEFINED> instruction: 2064696f
    1bc4:	2930292a 			@ <UNDEFINED> instruction: 2930292a
    1bc8:	535f5f00 			@ <UNDEFINED> instruction: 535f5f00
    1bcc:	5f455a49 			@ <UNDEFINED> instruction: 5f455a49
    1bd0:	5f002054 			@ <UNDEFINED> instruction: 5f002054
    1bd4:	6e695f5f 			@ <UNDEFINED> instruction: 6e695f5f
    1bd8:	656c5f74 			@ <UNDEFINED> instruction: 656c5f74
    1bdc:	33747361 			@ <UNDEFINED> instruction: 33747361
    1be0:	5f745f32 			@ <UNDEFINED> instruction: 5f745f32
    1be4:	69666564 			@ <UNDEFINED> instruction: 69666564
    1be8:	2064656e 			@ <UNDEFINED> instruction: 2064656e
    1bec:	5f5f0031 			@ <UNDEFINED> instruction: 5f5f0031
    1bf0:	43414c4c 	movtmi	r4, #7244	@ 0x1c4c
    1bf4:	5f4d5543 			@ <UNDEFINED> instruction: 5f4d5543
    1bf8:	5f58414d 			@ <UNDEFINED> instruction: 5f58414d
    1bfc:	5830205f 			@ <UNDEFINED> instruction: 5830205f
    1c00:	46464637 			@ <UNDEFINED> instruction: 46464637
    1c04:	46464646 			@ <UNDEFINED> instruction: 46464646
    1c08:	46464646 			@ <UNDEFINED> instruction: 46464646
    1c0c:	46464646 			@ <UNDEFINED> instruction: 46464646
    1c10:	31332d50 			@ <UNDEFINED> instruction: 31332d50
    1c14:	004b4c4c 			@ <UNDEFINED> instruction: 004b4c4c
    1c18:	656e5f5f 			@ <UNDEFINED> instruction: 656e5f5f
    1c1c:	4e5f6465 			@ <UNDEFINED> instruction: 4e5f6465
    1c20:	004c4c55 			@ <UNDEFINED> instruction: 004c4c55
    1c24:	5f433249 			@ <UNDEFINED> instruction: 5f433249
    1c28:	464e4f43 			@ <UNDEFINED> instruction: 464e4f43
    1c2c:	61284749 			@ <UNDEFINED> instruction: 61284749
    1c30:	65726464 			@ <UNDEFINED> instruction: 65726464
    1c34:	2c5f7373 	mrrccs	3, 7, r7, pc, cr3	@ <UNPREDICTABLE>
    1c38:	696d6974 			@ <UNDEFINED> instruction: 696d6974
    1c3c:	2c5f676e 	mrrccs	7, 6, r6, pc, cr14	@ <UNPREDICTABLE>
    1c40:	65646f6d 			@ <UNDEFINED> instruction: 65646f6d
    1c44:	6e692c5f 			@ <UNDEFINED> instruction: 6e692c5f
    1c48:	72726574 			@ <UNDEFINED> instruction: 72726574
    1c4c:	73747075 			@ <UNDEFINED> instruction: 73747075
    1c50:	2820295f 			@ <UNDEFINED> instruction: 2820295f
    1c54:	43324928 			@ <UNDEFINED> instruction: 43324928
    1c58:	2e207b29 	vmulcs.f64	d7, d0, d25
    1c5c:	69676572 			@ <UNDEFINED> instruction: 69676572
    1c60:	72657473 			@ <UNDEFINED> instruction: 72657473
    1c64:	203d2073 			@ <UNDEFINED> instruction: 203d2073
    1c68:	43324928 			@ <UNDEFINED> instruction: 43324928
    1c6c:	6765525f 			@ <UNDEFINED> instruction: 6765525f
    1c70:	65747369 			@ <UNDEFINED> instruction: 65747369
    1c74:	2a207372 			@ <UNDEFINED> instruction: 2a207372
    1c78:	43324929 			@ <UNDEFINED> instruction: 43324929
    1c7c:	41425f33 			@ <UNDEFINED> instruction: 41425f33
    1c80:	202c4553 			@ <UNDEFINED> instruction: 202c4553
    1c84:	6e6f632e 			@ <UNDEFINED> instruction: 6e6f632e
    1c88:	20676966 			@ <UNDEFINED> instruction: 20676966
    1c8c:	207b203d 			@ <UNDEFINED> instruction: 207b203d
    1c90:	6164732e 			@ <UNDEFINED> instruction: 6164732e
    1c94:	49203d20 			@ <UNDEFINED> instruction: 49203d20
    1c98:	535f4332 			@ <UNDEFINED> instruction: 535f4332
    1c9c:	475f4144 			@ <UNDEFINED> instruction: 475f4144
    1ca0:	2c4f4950 	mcrrcs	9, 5, r4, pc, cr0	@ <UNPREDICTABLE>
    1ca4:	63732e20 			@ <UNDEFINED> instruction: 63732e20
    1ca8:	203d206c 			@ <UNDEFINED> instruction: 203d206c
    1cac:	5f433249 			@ <UNDEFINED> instruction: 5f433249
    1cb0:	5f4c4353 			@ <UNDEFINED> instruction: 5f4c4353
    1cb4:	4f495047 			@ <UNDEFINED> instruction: 4f495047
    1cb8:	612e202c 			@ <UNDEFINED> instruction: 612e202c
    1cbc:	65726464 			@ <UNDEFINED> instruction: 65726464
    1cc0:	3d207373 			@ <UNDEFINED> instruction: 3d207373
    1cc4:	64612820 			@ <UNDEFINED> instruction: 64612820
    1cc8:	73657264 			@ <UNDEFINED> instruction: 73657264
    1ccc:	2c295f73 			@ <UNDEFINED> instruction: 2c295f73
    1cd0:	69742e20 			@ <UNDEFINED> instruction: 69742e20
    1cd4:	676e696d 			@ <UNDEFINED> instruction: 676e696d
    1cd8:	28203d20 			@ <UNDEFINED> instruction: 28203d20
    1cdc:	696d6974 			@ <UNDEFINED> instruction: 696d6974
    1ce0:	295f676e 			@ <UNDEFINED> instruction: 295f676e
    1ce4:	6d2e202c 			@ <UNDEFINED> instruction: 6d2e202c
    1ce8:	2065646f 			@ <UNDEFINED> instruction: 2065646f
    1cec:	6d28203d 			@ <UNDEFINED> instruction: 6d28203d
    1cf0:	5f65646f 			@ <UNDEFINED> instruction: 5f65646f
    1cf4:	2e202c29 			@ <UNDEFINED> instruction: 2e202c29
    1cf8:	62616e65 			@ <UNDEFINED> instruction: 62616e65
    1cfc:	695f656c 			@ <UNDEFINED> instruction: 695f656c
    1d00:	7265746e 			@ <UNDEFINED> instruction: 7265746e
    1d04:	74707572 			@ <UNDEFINED> instruction: 74707572
    1d08:	203d2073 			@ <UNDEFINED> instruction: 203d2073
    1d0c:	746e6928 			@ <UNDEFINED> instruction: 746e6928
    1d10:	75727265 			@ <UNDEFINED> instruction: 75727265
    1d14:	5f737470 			@ <UNDEFINED> instruction: 5f737470
    1d18:	207d2029 			@ <UNDEFINED> instruction: 207d2029
    1d1c:	5f00297d 			@ <UNDEFINED> instruction: 5f00297d
    1d20:	4553555f 			@ <UNDEFINED> instruction: 4553555f
    1d24:	414c5f52 			@ <UNDEFINED> instruction: 414c5f52
    1d28:	5f4c4542 			@ <UNDEFINED> instruction: 5f4c4542
    1d2c:	46455250 			@ <UNDEFINED> instruction: 46455250
    1d30:	5f5f5849 			@ <UNDEFINED> instruction: 5f5f5849
    1d34:	5f5f0020 			@ <UNDEFINED> instruction: 5f5f0020
    1d38:	544e4955 			@ <UNDEFINED> instruction: 544e4955
    1d3c:	4d5f3436 			@ <UNDEFINED> instruction: 4d5f3436
    1d40:	5f5f5841 			@ <UNDEFINED> instruction: 5f5f5841
    1d44:	66783020 			@ <UNDEFINED> instruction: 66783020
    1d48:	66666666 			@ <UNDEFINED> instruction: 66666666
    1d4c:	66666666 			@ <UNDEFINED> instruction: 66666666
    1d50:	66666666 			@ <UNDEFINED> instruction: 66666666
    1d54:	55666666 			@ <UNDEFINED> instruction: 55666666
    1d58:	5f004c4c 			@ <UNDEFINED> instruction: 5f004c4c
    1d5c:	4e49555f 			@ <UNDEFINED> instruction: 4e49555f
    1d60:	5f323354 			@ <UNDEFINED> instruction: 5f323354
    1d64:	5f58414d 			@ <UNDEFINED> instruction: 5f58414d
    1d68:	7830205f 			@ <UNDEFINED> instruction: 7830205f
    1d6c:	66666666 			@ <UNDEFINED> instruction: 66666666
    1d70:	66666666 			@ <UNDEFINED> instruction: 66666666
    1d74:	49004c55 			@ <UNDEFINED> instruction: 49004c55
    1d78:	3436544e 			@ <UNDEFINED> instruction: 3436544e
    1d7c:	7828435f 			@ <UNDEFINED> instruction: 7828435f
    1d80:	5f5f2029 			@ <UNDEFINED> instruction: 5f5f2029
    1d84:	36544e49 			@ <UNDEFINED> instruction: 36544e49
    1d88:	28435f34 			@ <UNDEFINED> instruction: 28435f34
    1d8c:	5f002978 			@ <UNDEFINED> instruction: 5f002978
    1d90:	49465441 			@ <UNDEFINED> instruction: 49465441
    1d94:	535f454c 			@ <UNDEFINED> instruction: 535f454c
    1d98:	4352554f 			@ <UNDEFINED> instruction: 4352554f
    1d9c:	4e490045 			@ <UNDEFINED> instruction: 4e490045
    1da0:	41465f54 			@ <UNDEFINED> instruction: 41465f54
    1da4:	36315453 			@ <UNDEFINED> instruction: 36315453
    1da8:	4e494d5f 			@ <UNDEFINED> instruction: 4e494d5f
    1dac:	5f2d2820 			@ <UNDEFINED> instruction: 5f2d2820
    1db0:	544e495f 			@ <UNDEFINED> instruction: 544e495f
    1db4:	5341465f 	movtpl	r4, #5727	@ 0x165f
    1db8:	5f363154 			@ <UNDEFINED> instruction: 5f363154
    1dbc:	5f58414d 			@ <UNDEFINED> instruction: 5f58414d
    1dc0:	202d205f 			@ <UNDEFINED> instruction: 202d205f
    1dc4:	52002931 			@ <UNDEFINED> instruction: 52002931
    1dc8:	435f4343 			@ <UNDEFINED> instruction: 435f4343
    1dcc:	20524746 			@ <UNDEFINED> instruction: 20524746
    1dd0:	76282a28 			@ <UNDEFINED> instruction: 76282a28
    1dd4:	74616c6f 			@ <UNDEFINED> instruction: 74616c6f
    1dd8:	20656c69 			@ <UNDEFINED> instruction: 20656c69
    1ddc:	746e6975 			@ <UNDEFINED> instruction: 746e6975
    1de0:	745f3233 			@ <UNDEFINED> instruction: 745f3233
    1de4:	28292a20 			@ <UNDEFINED> instruction: 28292a20
    1de8:	5f434352 			@ <UNDEFINED> instruction: 5f434352
    1dec:	45534142 			@ <UNDEFINED> instruction: 45534142
    1df0:	52202b20 			@ <UNDEFINED> instruction: 52202b20
    1df4:	435f4343 			@ <UNDEFINED> instruction: 435f4343
    1df8:	5f524746 			@ <UNDEFINED> instruction: 5f524746
    1dfc:	5346464f 	movtpl	r4, #26191	@ 0x664f
    1e00:	29295445 			@ <UNDEFINED> instruction: 29295445
    1e04:	495f5f00 			@ <UNDEFINED> instruction: 495f5f00
    1e08:	4c5f544e 	mrrcmi	4, 4, r5, pc, cr14	@ <UNPREDICTABLE>
    1e0c:	54534145 			@ <UNDEFINED> instruction: 54534145
    1e10:	414d5f38 			@ <UNDEFINED> instruction: 414d5f38
    1e14:	205f5f58 			@ <UNDEFINED> instruction: 205f5f58
    1e18:	66377830 			@ <UNDEFINED> instruction: 66377830
    1e1c:	5f464100 			@ <UNDEFINED> instruction: 5f464100
    1e20:	454e4f4e 			@ <UNDEFINED> instruction: 454e4f4e
    1e24:	30783020 			@ <UNDEFINED> instruction: 30783020
    1e28:	4f500055 			@ <UNDEFINED> instruction: 4f500055
    1e2c:	00415452 			@ <UNDEFINED> instruction: 00415452
    1e30:	54524f50 			@ <UNDEFINED> instruction: 54524f50
    1e34:	5f5f0042 			@ <UNDEFINED> instruction: 5f5f0042
    1e38:	5f4d5241 			@ <UNDEFINED> instruction: 5f4d5241
    1e3c:	54414546 			@ <UNDEFINED> instruction: 54414546
    1e40:	5f455255 			@ <UNDEFINED> instruction: 5f455255
    1e44:	205a4c43 			@ <UNDEFINED> instruction: 205a4c43
    1e48:	4f500031 			@ <UNDEFINED> instruction: 4f500031
    1e4c:	00445452 			@ <UNDEFINED> instruction: 00445452
    1e50:	54415f5f 			@ <UNDEFINED> instruction: 54415f5f
    1e54:	43494d4f 	movtmi	r4, #40271	@ 0x9d4f
    1e58:	5143415f 			@ <UNDEFINED> instruction: 5143415f
    1e5c:	45524955 			@ <UNDEFINED> instruction: 45524955
    1e60:	5f003220 			@ <UNDEFINED> instruction: 5f003220
    1e64:	4d52415f 			@ <UNDEFINED> instruction: 4d52415f
    1e68:	4145465f 			@ <UNDEFINED> instruction: 4145465f
    1e6c:	45525554 			@ <UNDEFINED> instruction: 45525554
    1e70:	4d4f435f 			@ <UNDEFINED> instruction: 4d4f435f
    1e74:	58454c50 			@ <UNDEFINED> instruction: 58454c50
    1e78:	524f5000 			@ <UNDEFINED> instruction: 524f5000
    1e7c:	5f004754 			@ <UNDEFINED> instruction: 5f004754
    1e80:	50544e49 			@ <UNDEFINED> instruction: 50544e49
    1e84:	455f5254 			@ <UNDEFINED> instruction: 455f5254
    1e88:	4e495f51 			@ <UNDEFINED> instruction: 4e495f51
    1e8c:	5f002054 			@ <UNDEFINED> instruction: 5f002054
    1e90:	4d52415f 			@ <UNDEFINED> instruction: 4d52415f
    1e94:	5a49535f 			@ <UNDEFINED> instruction: 5a49535f
    1e98:	5f464f45 			@ <UNDEFINED> instruction: 5f464f45
    1e9c:	41484357 			@ <UNDEFINED> instruction: 41484357
    1ea0:	20545f52 			@ <UNDEFINED> instruction: 20545f52
    1ea4:	5f5f0034 			@ <UNDEFINED> instruction: 5f5f0034
    1ea8:	33544c46 			@ <UNDEFINED> instruction: 33544c46
    1eac:	4d5f5832 			@ <UNDEFINED> instruction: 4d5f5832
    1eb0:	455f5841 			@ <UNDEFINED> instruction: 455f5841
    1eb4:	5f5f5058 			@ <UNDEFINED> instruction: 5f5f5058
    1eb8:	32303120 			@ <UNDEFINED> instruction: 32303120
    1ebc:	5f5f0034 			@ <UNDEFINED> instruction: 5f5f0034
    1ec0:	544e4955 			@ <UNDEFINED> instruction: 544e4955
    1ec4:	41454c5f 			@ <UNDEFINED> instruction: 41454c5f
    1ec8:	32335453 			@ <UNDEFINED> instruction: 32335453
    1ecc:	58414d5f 			@ <UNDEFINED> instruction: 58414d5f
    1ed0:	30205f5f 			@ <UNDEFINED> instruction: 30205f5f
    1ed4:	66666678 			@ <UNDEFINED> instruction: 66666678
    1ed8:	66666666 			@ <UNDEFINED> instruction: 66666666
    1edc:	004c5566 			@ <UNDEFINED> instruction: 004c5566
    1ee0:	42445f5f 			@ <UNDEFINED> instruction: 42445f5f
    1ee4:	50455f4c 			@ <UNDEFINED> instruction: 50455f4c
    1ee8:	4f4c4953 			@ <UNDEFINED> instruction: 4f4c4953
    1eec:	205f5f4e 			@ <UNDEFINED> instruction: 205f5f4e
    1ef0:	6f642828 			@ <UNDEFINED> instruction: 6f642828
    1ef4:	656c6275 			@ <UNDEFINED> instruction: 656c6275
    1ef8:	322e3229 			@ <UNDEFINED> instruction: 322e3229
    1efc:	34343032 			@ <UNDEFINED> instruction: 34343032
    1f00:	39343036 			@ <UNDEFINED> instruction: 39343036
    1f04:	33303532 			@ <UNDEFINED> instruction: 33303532
    1f08:	65313331 			@ <UNDEFINED> instruction: 65313331
    1f0c:	4c36312d 			@ <UNDEFINED> instruction: 4c36312d
    1f10:	5f5f0029 			@ <UNDEFINED> instruction: 5f5f0029
    1f14:	4152464c 			@ <UNDEFINED> instruction: 4152464c
    1f18:	4d5f5443 			@ <UNDEFINED> instruction: 4d5f5443
    1f1c:	5f5f4e49 			@ <UNDEFINED> instruction: 5f5f4e49
    1f20:	302d2820 			@ <UNDEFINED> instruction: 302d2820
    1f24:	524c352e 			@ <UNDEFINED> instruction: 524c352e
    1f28:	352e302d 			@ <UNDEFINED> instruction: 352e302d
    1f2c:	0029524c 			@ <UNDEFINED> instruction: 0029524c
    1f30:	4e495f5f 			@ <UNDEFINED> instruction: 4e495f5f
    1f34:	454c5f54 			@ <UNDEFINED> instruction: 454c5f54
    1f38:	36545341 			@ <UNDEFINED> instruction: 36545341
    1f3c:	49575f34 			@ <UNDEFINED> instruction: 49575f34
    1f40:	5f485444 			@ <UNDEFINED> instruction: 5f485444
    1f44:	3436205f 			@ <UNDEFINED> instruction: 3436205f
    1f48:	465f5f00 			@ <UNDEFINED> instruction: 465f5f00
    1f4c:	485f544c 			@ <UNDEFINED> instruction: 485f544c
    1f50:	495f5341 			@ <UNDEFINED> instruction: 495f5341
    1f54:	4e49464e 			@ <UNDEFINED> instruction: 4e49464e
    1f58:	5f595449 			@ <UNDEFINED> instruction: 5f595449
    1f5c:	0031205f 			@ <UNDEFINED> instruction: 0031205f
    1f60:	43415f5f 	movtmi	r5, #8031	@ 0x1f5f
    1f64:	5f4d5543 			@ <UNDEFINED> instruction: 5f4d5543
    1f68:	5f58414d 			@ <UNDEFINED> instruction: 5f58414d
    1f6c:	5830205f 			@ <UNDEFINED> instruction: 5830205f
    1f70:	46464637 			@ <UNDEFINED> instruction: 46464637
    1f74:	46464646 			@ <UNDEFINED> instruction: 46464646
    1f78:	35312d50 			@ <UNDEFINED> instruction: 35312d50
    1f7c:	5f5f004b 			@ <UNDEFINED> instruction: 5f5f004b
    1f80:	38544e49 			@ <UNDEFINED> instruction: 38544e49
    1f84:	58414d5f 			@ <UNDEFINED> instruction: 58414d5f
    1f88:	30205f5f 			@ <UNDEFINED> instruction: 30205f5f
    1f8c:	00663778 			@ <UNDEFINED> instruction: 00663778
    1f90:	43475f5f 	movtmi	r5, #32607	@ 0x7f5f
    1f94:	41485f43 			@ <UNDEFINED> instruction: 41485f43
    1f98:	445f4556 			@ <UNDEFINED> instruction: 445f4556
    1f9c:	46524157 			@ <UNDEFINED> instruction: 46524157
    1fa0:	46435f32 			@ <UNDEFINED> instruction: 46435f32
    1fa4:	53415f49 	movtpl	r5, #8009	@ 0x1f49
    1fa8:	0031204d 			@ <UNDEFINED> instruction: 0031204d
    1fac:	695f5f5f 			@ <UNDEFINED> instruction: 695f5f5f
    1fb0:	5f38746e 			@ <UNDEFINED> instruction: 5f38746e
    1fb4:	65645f74 			@ <UNDEFINED> instruction: 65645f74
    1fb8:	656e6966 			@ <UNDEFINED> instruction: 656e6966
    1fbc:	00312064 			@ <UNDEFINED> instruction: 00312064
    1fc0:	46535f5f 	usaxmi	r5, r3, pc	@ <UNPREDICTABLE>
    1fc4:	54434152 			@ <UNDEFINED> instruction: 54434152
    1fc8:	4e494d5f 			@ <UNDEFINED> instruction: 4e494d5f
    1fcc:	28205f5f 			@ <UNDEFINED> instruction: 28205f5f
    1fd0:	352e302d 			@ <UNDEFINED> instruction: 352e302d
    1fd4:	302d5248 			@ <UNDEFINED> instruction: 302d5248
    1fd8:	5248352e 			@ <UNDEFINED> instruction: 5248352e
    1fdc:	5f5f0029 			@ <UNDEFINED> instruction: 5f5f0029
    1fe0:	495f4153 			@ <UNDEFINED> instruction: 495f4153
    1fe4:	5f544942 			@ <UNDEFINED> instruction: 5f544942
    1fe8:	3631205f 			@ <UNDEFINED> instruction: 3631205f
    1fec:	475f5f00 			@ <UNDEFINED> instruction: 475f5f00
    1ff0:	495f4343 			@ <UNDEFINED> instruction: 495f4343
    1ff4:	355f4345 			@ <UNDEFINED> instruction: 355f4345
    1ff8:	435f3935 			@ <UNDEFINED> instruction: 435f3935
    1ffc:	4c504d4f 	mrrcmi	13, 4, r4, r0, cr15
    2000:	30205845 			@ <UNDEFINED> instruction: 30205845
    2004:	415f5f00 			@ <UNDEFINED> instruction: 415f5f00
    2008:	465f4d52 			@ <UNDEFINED> instruction: 465f4d52
    200c:	55544145 			@ <UNDEFINED> instruction: 55544145
    2010:	4d5f4552 			@ <UNDEFINED> instruction: 4d5f4552
    2014:	5f004556 			@ <UNDEFINED> instruction: 5f004556
    2018:	544c465f 			@ <UNDEFINED> instruction: 544c465f
    201c:	5f583233 			@ <UNDEFINED> instruction: 5f583233
    2020:	5f58414d 			@ <UNDEFINED> instruction: 5f58414d
    2024:	455f3031 			@ <UNDEFINED> instruction: 455f3031
    2028:	5f5f5058 			@ <UNDEFINED> instruction: 5f5f5058
    202c:	38303320 			@ <UNDEFINED> instruction: 38303320
    2030:	415f5f00 			@ <UNDEFINED> instruction: 415f5f00
    2034:	465f4d52 			@ <UNDEFINED> instruction: 465f4d52
    2038:	5f363150 			@ <UNDEFINED> instruction: 5f363150
    203c:	4d524f46 			@ <UNDEFINED> instruction: 4d524f46
    2040:	495f5441 			@ <UNDEFINED> instruction: 495f5441
    2044:	00454545 			@ <UNDEFINED> instruction: 00454545
    2048:	49555f5f 			@ <UNDEFINED> instruction: 49555f5f
    204c:	3631544e 			@ <UNDEFINED> instruction: 3631544e
    2050:	5059545f 			@ <UNDEFINED> instruction: 5059545f
    2054:	205f5f45 			@ <UNDEFINED> instruction: 205f5f45
    2058:	726f6873 			@ <UNDEFINED> instruction: 726f6873
    205c:	6e752074 			@ <UNDEFINED> instruction: 6e752074
    2060:	6e676973 			@ <UNDEFINED> instruction: 6e676973
    2064:	69206465 			@ <UNDEFINED> instruction: 69206465
    2068:	5f00746e 			@ <UNDEFINED> instruction: 5f00746e
    206c:	49534f50 			@ <UNDEFINED> instruction: 49534f50
    2070:	4f535f58 			@ <UNDEFINED> instruction: 4f535f58
    2074:	45435255 			@ <UNDEFINED> instruction: 45435255
    2078:	755f5f00 			@ <UNDEFINED> instruction: 755f5f00
    207c:	33746e69 			@ <UNDEFINED> instruction: 33746e69
    2080:	00745f32 			@ <UNDEFINED> instruction: 00745f32
    2084:	535f545f 			@ <UNDEFINED> instruction: 535f545f
    2088:	5f455a49 			@ <UNDEFINED> instruction: 5f455a49
    208c:	5f5f0020 			@ <UNDEFINED> instruction: 5f5f0020
    2090:	5f544c46 			@ <UNDEFINED> instruction: 5f544c46
    2094:	4c415645 	mcrrmi	6, 4, r5, r1, cr5
    2098:	54454d5f 			@ <UNDEFINED> instruction: 54454d5f
    209c:	5f444f48 			@ <UNDEFINED> instruction: 5f444f48
    20a0:	315f5354 			@ <UNDEFINED> instruction: 315f5354
    20a4:	31363638 			@ <UNDEFINED> instruction: 31363638
    20a8:	5f5f335f 			@ <UNDEFINED> instruction: 5f5f335f
    20ac:	69003020 			@ <UNDEFINED> instruction: 69003020
    20b0:	2b20746e 			@ <UNDEFINED> instruction: 2b20746e
    20b4:	4e490032 			@ <UNDEFINED> instruction: 4e490032
    20b8:	435f3854 			@ <UNDEFINED> instruction: 435f3854
    20bc:	20297828 			@ <UNDEFINED> instruction: 20297828
    20c0:	4e495f5f 			@ <UNDEFINED> instruction: 4e495f5f
    20c4:	435f3854 			@ <UNDEFINED> instruction: 435f3854
    20c8:	00297828 			@ <UNDEFINED> instruction: 00297828
    20cc:	49555f5f 			@ <UNDEFINED> instruction: 49555f5f
    20d0:	465f544e 			@ <UNDEFINED> instruction: 465f544e
    20d4:	38545341 			@ <UNDEFINED> instruction: 38545341
    20d8:	5059545f 			@ <UNDEFINED> instruction: 5059545f
    20dc:	205f5f45 			@ <UNDEFINED> instruction: 205f5f45
    20e0:	69736e75 			@ <UNDEFINED> instruction: 69736e75
    20e4:	64656e67 			@ <UNDEFINED> instruction: 64656e67
    20e8:	746e6920 			@ <UNDEFINED> instruction: 746e6920
    20ec:	4c5f5f00 	mrrcmi	15, 0, r5, pc, cr0	@ <UNPREDICTABLE>
    20f0:	4343414c 	movtmi	r4, #12620	@ 0x314c
    20f4:	495f4d55 			@ <UNDEFINED> instruction: 495f4d55
    20f8:	5f544942 			@ <UNDEFINED> instruction: 5f544942
    20fc:	3233205f 			@ <UNDEFINED> instruction: 3233205f
    2100:	49504700 			@ <UNDEFINED> instruction: 49504700
    2104:	65525f4f 			@ <UNDEFINED> instruction: 65525f4f
    2108:	74736967 			@ <UNDEFINED> instruction: 74736967
    210c:	00737265 			@ <UNDEFINED> instruction: 00737265
    2110:	52465f5f 			@ <UNDEFINED> instruction: 52465f5f
    2114:	5f544341 			@ <UNDEFINED> instruction: 5f544341
    2118:	49535045 			@ <UNDEFINED> instruction: 49535045
    211c:	5f4e4f4c 			@ <UNDEFINED> instruction: 5f4e4f4c
    2120:	7830205f 			@ <UNDEFINED> instruction: 7830205f
    2124:	312d5031 			@ <UNDEFINED> instruction: 312d5031
    2128:	5f005235 			@ <UNDEFINED> instruction: 5f005235
    212c:	544e495f 			@ <UNDEFINED> instruction: 544e495f
    2130:	4d5f3233 			@ <UNDEFINED> instruction: 4d5f3233
    2134:	5f5f5841 			@ <UNDEFINED> instruction: 5f5f5841
    2138:	37783020 			@ <UNDEFINED> instruction: 37783020
    213c:	66666666 			@ <UNDEFINED> instruction: 66666666
    2140:	4c666666 			@ <UNDEFINED> instruction: 4c666666
    2144:	555f5f00 			@ <UNDEFINED> instruction: 555f5f00
    2148:	38544e49 			@ <UNDEFINED> instruction: 38544e49
    214c:	5059545f 			@ <UNDEFINED> instruction: 5059545f
    2150:	205f5f45 			@ <UNDEFINED> instruction: 205f5f45
    2154:	69736e75 			@ <UNDEFINED> instruction: 69736e75
    2158:	64656e67 			@ <UNDEFINED> instruction: 64656e67
    215c:	61686320 			@ <UNDEFINED> instruction: 61686320
    2160:	5f5f0072 			@ <UNDEFINED> instruction: 5f5f0072
    2164:	5f585847 			@ <UNDEFINED> instruction: 5f585847
    2168:	45505954 			@ <UNDEFINED> instruction: 45505954
    216c:	4f464e49 			@ <UNDEFINED> instruction: 4f464e49
    2170:	5551455f 			@ <UNDEFINED> instruction: 5551455f
    2174:	54494c41 			@ <UNDEFINED> instruction: 54494c41
    2178:	4e495f59 			@ <UNDEFINED> instruction: 4e495f59
    217c:	454e494c 			@ <UNDEFINED> instruction: 454e494c
    2180:	5f003020 			@ <UNDEFINED> instruction: 5f003020
    2184:	544e495f 			@ <UNDEFINED> instruction: 544e495f
    2188:	41454c5f 			@ <UNDEFINED> instruction: 41454c5f
    218c:	34365453 			@ <UNDEFINED> instruction: 34365453
    2190:	58414d5f 			@ <UNDEFINED> instruction: 58414d5f
    2194:	30205f5f 			@ <UNDEFINED> instruction: 30205f5f
    2198:	66663778 			@ <UNDEFINED> instruction: 66663778
    219c:	66666666 			@ <UNDEFINED> instruction: 66666666
    21a0:	66666666 			@ <UNDEFINED> instruction: 66666666
    21a4:	66666666 			@ <UNDEFINED> instruction: 66666666
    21a8:	004c4c66 			@ <UNDEFINED> instruction: 004c4c66
    21ac:	50415f5f 			@ <UNDEFINED> instruction: 50415f5f
    21b0:	335f5343 			@ <UNDEFINED> instruction: 335f5343
    21b4:	205f5f32 			@ <UNDEFINED> instruction: 205f5f32
    21b8:	5f5f0031 			@ <UNDEFINED> instruction: 5f5f0031
    21bc:	5f4d5241 			@ <UNDEFINED> instruction: 5f4d5241
    21c0:	54414546 			@ <UNDEFINED> instruction: 54414546
    21c4:	5f455255 			@ <UNDEFINED> instruction: 5f455255
    21c8:	36314642 			@ <UNDEFINED> instruction: 36314642
    21cc:	4345565f 	movtmi	r5, #22111	@ 0x565f
    21d0:	5f524f54 			@ <UNDEFINED> instruction: 5f524f54
    21d4:	54495241 			@ <UNDEFINED> instruction: 54495241
    21d8:	54454d48 			@ <UNDEFINED> instruction: 54454d48
    21dc:	5f004349 			@ <UNDEFINED> instruction: 5f004349
    21e0:	41464544 			@ <UNDEFINED> instruction: 41464544
    21e4:	5f544c55 			@ <UNDEFINED> instruction: 5f544c55
    21e8:	52554f53 			@ <UNDEFINED> instruction: 52554f53
    21ec:	31204543 			@ <UNDEFINED> instruction: 31204543
    21f0:	465f5f00 			@ <UNDEFINED> instruction: 465f5f00
    21f4:	3233544c 			@ <UNDEFINED> instruction: 3233544c
    21f8:	4e414d5f 			@ <UNDEFINED> instruction: 4e414d5f
    21fc:	49445f54 			@ <UNDEFINED> instruction: 49445f54
    2200:	205f5f47 			@ <UNDEFINED> instruction: 205f5f47
    2204:	5f003432 			@ <UNDEFINED> instruction: 5f003432
    2208:	544c465f 			@ <UNDEFINED> instruction: 544c465f
    220c:	445f3233 			@ <UNDEFINED> instruction: 445f3233
    2210:	524f4e45 			@ <UNDEFINED> instruction: 524f4e45
    2214:	494d5f4d 			@ <UNDEFINED> instruction: 494d5f4d
    2218:	205f5f4e 			@ <UNDEFINED> instruction: 205f5f4e
    221c:	30342e31 			@ <UNDEFINED> instruction: 30342e31
    2220:	38393231 			@ <UNDEFINED> instruction: 38393231
    2224:	33343634 			@ <UNDEFINED> instruction: 33343634
    2228:	31383432 			@ <UNDEFINED> instruction: 31383432
    222c:	2d653137 			@ <UNDEFINED> instruction: 2d653137
    2230:	33463534 	movtcc	r3, #25908	@ 0x6534
    2234:	666f0032 			@ <UNDEFINED> instruction: 666f0032
    2238:	74657366 			@ <UNDEFINED> instruction: 74657366
    223c:	5428666f 			@ <UNDEFINED> instruction: 5428666f
    2240:	2c455059 	mcrrcs	0, 5, r5, r5, cr9
    2244:	424d454d 			@ <UNDEFINED> instruction: 424d454d
    2248:	20295245 			@ <UNDEFINED> instruction: 20295245
    224c:	75625f5f 			@ <UNDEFINED> instruction: 75625f5f
    2250:	69746c69 			@ <UNDEFINED> instruction: 69746c69
    2254:	666f5f6e 			@ <UNDEFINED> instruction: 666f5f6e
    2258:	74657366 			@ <UNDEFINED> instruction: 74657366
    225c:	2820666f 			@ <UNDEFINED> instruction: 2820666f
    2260:	45505954 			@ <UNDEFINED> instruction: 45505954
    2264:	454d202c 			@ <UNDEFINED> instruction: 454d202c
    2268:	5245424d 			@ <UNDEFINED> instruction: 5245424d
    226c:	5f5f0029 			@ <UNDEFINED> instruction: 5f5f0029
    2270:	544e4955 			@ <UNDEFINED> instruction: 544e4955
    2274:	435f3436 			@ <UNDEFINED> instruction: 435f3436
    2278:	20296328 			@ <UNDEFINED> instruction: 20296328
    227c:	23232063 			@ <UNDEFINED> instruction: 23232063
    2280:	4c4c5520 	mcrrmi	5, 2, r5, ip, cr0
    2284:	555f5f00 			@ <UNDEFINED> instruction: 555f5f00
    2288:	5f544e49 			@ <UNDEFINED> instruction: 5f544e49
    228c:	5341454c 	movtpl	r4, #5452	@ 0x154c
    2290:	5f343654 			@ <UNDEFINED> instruction: 5f343654
    2294:	45505954 			@ <UNDEFINED> instruction: 45505954
    2298:	6c205f5f 			@ <UNDEFINED> instruction: 6c205f5f
    229c:	20676e6f 			@ <UNDEFINED> instruction: 20676e6f
    22a0:	676e6f6c 			@ <UNDEFINED> instruction: 676e6f6c
    22a4:	736e7520 			@ <UNDEFINED> instruction: 736e7520
    22a8:	656e6769 			@ <UNDEFINED> instruction: 656e6769
    22ac:	6e692064 			@ <UNDEFINED> instruction: 6e692064
    22b0:	5f5f0074 			@ <UNDEFINED> instruction: 5f5f0074
    22b4:	5f4d5241 			@ <UNDEFINED> instruction: 5f4d5241
    22b8:	54414546 			@ <UNDEFINED> instruction: 54414546
    22bc:	5f455255 			@ <UNDEFINED> instruction: 5f455255
    22c0:	00534541 			@ <UNDEFINED> instruction: 00534541
    22c4:	53555f5f 			@ <UNDEFINED> instruction: 53555f5f
    22c8:	43415246 	movtmi	r5, #4678	@ 0x1246
    22cc:	42465f54 			@ <UNDEFINED> instruction: 42465f54
    22d0:	5f5f5449 			@ <UNDEFINED> instruction: 5f5f5449
    22d4:	5f003820 			@ <UNDEFINED> instruction: 5f003820
    22d8:	42444c5f 			@ <UNDEFINED> instruction: 42444c5f
    22dc:	50455f4c 			@ <UNDEFINED> instruction: 50455f4c
    22e0:	4f4c4953 			@ <UNDEFINED> instruction: 4f4c4953
    22e4:	205f5f4e 			@ <UNDEFINED> instruction: 205f5f4e
    22e8:	32322e32 			@ <UNDEFINED> instruction: 32322e32
    22ec:	36343430 			@ <UNDEFINED> instruction: 36343430
    22f0:	32393430 			@ <UNDEFINED> instruction: 32393430
    22f4:	31333035 			@ <UNDEFINED> instruction: 31333035
    22f8:	2d653133 			@ <UNDEFINED> instruction: 2d653133
    22fc:	004c3631 			@ <UNDEFINED> instruction: 004c3631
    2300:	5f544e49 			@ <UNDEFINED> instruction: 5f544e49
    2304:	54534146 			@ <UNDEFINED> instruction: 54534146
    2308:	4d5f3436 			@ <UNDEFINED> instruction: 4d5f3436
    230c:	28205841 			@ <UNDEFINED> instruction: 28205841
    2310:	4e495f5f 			@ <UNDEFINED> instruction: 4e495f5f
    2314:	41465f54 			@ <UNDEFINED> instruction: 41465f54
    2318:	34365453 			@ <UNDEFINED> instruction: 34365453
    231c:	58414d5f 			@ <UNDEFINED> instruction: 58414d5f
    2320:	00295f5f 			@ <UNDEFINED> instruction: 00295f5f
    2324:	43475f5f 	movtmi	r5, #32607	@ 0x7f5f
    2328:	54415f43 			@ <UNDEFINED> instruction: 54415f43
    232c:	43494d4f 	movtmi	r4, #40271	@ 0x9d4f
    2330:	4148435f 			@ <UNDEFINED> instruction: 4148435f
    2334:	5f363152 			@ <UNDEFINED> instruction: 5f363152
    2338:	4f4c5f54 			@ <UNDEFINED> instruction: 4f4c5f54
    233c:	465f4b43 			@ <UNDEFINED> instruction: 465f4b43
    2340:	20454552 			@ <UNDEFINED> instruction: 20454552
    2344:	434c0032 	movtmi	r0, #49202	@ 0xc032
    2348:	5f00524b 			@ <UNDEFINED> instruction: 5f00524b
    234c:	4c42445f 	mcrrmi	4, 5, r4, r2, cr15
    2350:	58414d5f 			@ <UNDEFINED> instruction: 58414d5f
    2354:	5058455f 			@ <UNDEFINED> instruction: 5058455f
    2358:	31205f5f 			@ <UNDEFINED> instruction: 31205f5f
    235c:	00343230 			@ <UNDEFINED> instruction: 00343230
    2360:	41465f5f 			@ <UNDEFINED> instruction: 41465f5f
    2364:	34365453 			@ <UNDEFINED> instruction: 34365453
    2368:	6c6c2220 			@ <UNDEFINED> instruction: 6c6c2220
    236c:	5f5f0022 			@ <UNDEFINED> instruction: 5f5f0022
    2370:	4d4f5441 			@ <UNDEFINED> instruction: 4d4f5441
    2374:	525f4349 			@ <UNDEFINED> instruction: 525f4349
    2378:	41454c45 			@ <UNDEFINED> instruction: 41454c45
    237c:	33204553 			@ <UNDEFINED> instruction: 33204553
    2380:	736e7500 			@ <UNDEFINED> instruction: 736e7500
    2384:	656e6769 			@ <UNDEFINED> instruction: 656e6769
    2388:	302b2064 			@ <UNDEFINED> instruction: 302b2064
    238c:	465f5f00 			@ <UNDEFINED> instruction: 465f5f00
    2390:	3233544c 			@ <UNDEFINED> instruction: 3233544c
    2394:	41485f58 			@ <UNDEFINED> instruction: 41485f58
    2398:	45445f53 			@ <UNDEFINED> instruction: 45445f53
    239c:	4d524f4e 			@ <UNDEFINED> instruction: 4d524f4e
    23a0:	31205f5f 			@ <UNDEFINED> instruction: 31205f5f
    23a4:	465f5f00 			@ <UNDEFINED> instruction: 465f5f00
    23a8:	4d5f544c 			@ <UNDEFINED> instruction: 4d5f544c
    23ac:	5f544e41 			@ <UNDEFINED> instruction: 5f544e41
    23b0:	5f474944 			@ <UNDEFINED> instruction: 5f474944
    23b4:	3432205f 			@ <UNDEFINED> instruction: 3432205f
    23b8:	4f505f00 			@ <UNDEFINED> instruction: 4f505f00
    23bc:	5f584953 			@ <UNDEFINED> instruction: 5f584953
    23c0:	52554f53 			@ <UNDEFINED> instruction: 52554f53
    23c4:	31204543 			@ <UNDEFINED> instruction: 31204543
    23c8:	555f5f00 			@ <UNDEFINED> instruction: 555f5f00
    23cc:	495f5144 			@ <UNDEFINED> instruction: 495f5144
    23d0:	5f544942 			@ <UNDEFINED> instruction: 5f544942
    23d4:	0030205f 			@ <UNDEFINED> instruction: 0030205f
    23d8:	544e4955 			@ <UNDEFINED> instruction: 544e4955
    23dc:	5f58414d 			@ <UNDEFINED> instruction: 5f58414d
    23e0:	2058414d 			@ <UNDEFINED> instruction: 2058414d
    23e4:	555f5f28 			@ <UNDEFINED> instruction: 555f5f28
    23e8:	4d544e49 			@ <UNDEFINED> instruction: 4d544e49
    23ec:	4d5f5841 			@ <UNDEFINED> instruction: 4d5f5841
    23f0:	5f5f5841 			@ <UNDEFINED> instruction: 5f5f5841
    23f4:	495f0029 			@ <UNDEFINED> instruction: 495f0029
    23f8:	3233544e 			@ <UNDEFINED> instruction: 3233544e
    23fc:	445f545f 			@ <UNDEFINED> instruction: 445f545f
    2400:	414c4345 			@ <UNDEFINED> instruction: 414c4345
    2404:	20444552 			@ <UNDEFINED> instruction: 20444552
    2408:	535f5f00 			@ <UNDEFINED> instruction: 535f5f00
    240c:	5f434454 			@ <UNDEFINED> instruction: 5f434454
    2410:	53524556 			@ <UNDEFINED> instruction: 53524556
    2414:	5f4e4f49 			@ <UNDEFINED> instruction: 5f4e4f49
    2418:	3032205f 			@ <UNDEFINED> instruction: 3032205f
    241c:	30303032 			@ <UNDEFINED> instruction: 30303032
    2420:	5f5f004c 			@ <UNDEFINED> instruction: 5f5f004c
    2424:	5f505353 			@ <UNDEFINED> instruction: 5f505353
    2428:	54524f46 			@ <UNDEFINED> instruction: 54524f46
    242c:	5f594649 			@ <UNDEFINED> instruction: 5f594649
    2430:	4556454c 			@ <UNDEFINED> instruction: 4556454c
    2434:	0030204c 			@ <UNDEFINED> instruction: 0030204c
    2438:	51515f5f 			@ <UNDEFINED> instruction: 51515f5f
    243c:	4942465f 			@ <UNDEFINED> instruction: 4942465f
    2440:	205f5f54 			@ <UNDEFINED> instruction: 205f5f54
    2444:	5f5f0037 			@ <UNDEFINED> instruction: 5f5f0037
    2448:	54534146 			@ <UNDEFINED> instruction: 54534146
    244c:	00203233 			@ <UNDEFINED> instruction: 00203233
    2450:	49465f5f 			@ <UNDEFINED> instruction: 49465f5f
    2454:	4554494e 			@ <UNDEFINED> instruction: 4554494e
    2458:	54414d5f 			@ <UNDEFINED> instruction: 54414d5f
    245c:	4e4f5f48 			@ <UNDEFINED> instruction: 4e4f5f48
    2460:	5f5f594c 			@ <UNDEFINED> instruction: 5f5f594c
    2464:	5f003020 			@ <UNDEFINED> instruction: 5f003020
    2468:	746e695f 			@ <UNDEFINED> instruction: 746e695f
    246c:	2b203032 			@ <UNDEFINED> instruction: 2b203032
    2470:	5f5f0032 			@ <UNDEFINED> instruction: 5f5f0032
    2474:	4c42444c 	mcrrmi	4, 4, r4, r2, cr12
    2478:	4e45445f 			@ <UNDEFINED> instruction: 4e45445f
    247c:	5f4d524f 			@ <UNDEFINED> instruction: 5f4d524f
    2480:	5f4e494d 			@ <UNDEFINED> instruction: 5f4e494d
    2484:	2e34205f 			@ <UNDEFINED> instruction: 2e34205f
    2488:	36303439 			@ <UNDEFINED> instruction: 36303439
    248c:	35343635 			@ <UNDEFINED> instruction: 35343635
    2490:	32313438 			@ <UNDEFINED> instruction: 32313438
    2494:	34353634 			@ <UNDEFINED> instruction: 34353634
    2498:	32332d65 			@ <UNDEFINED> instruction: 32332d65
    249c:	5f004c34 			@ <UNDEFINED> instruction: 5f004c34
    24a0:	544e495f 			@ <UNDEFINED> instruction: 544e495f
    24a4:	4d5f3436 			@ <UNDEFINED> instruction: 4d5f3436
    24a8:	5f5f5841 			@ <UNDEFINED> instruction: 5f5f5841
    24ac:	37783020 			@ <UNDEFINED> instruction: 37783020
    24b0:	66666666 			@ <UNDEFINED> instruction: 66666666
    24b4:	66666666 			@ <UNDEFINED> instruction: 66666666
    24b8:	66666666 			@ <UNDEFINED> instruction: 66666666
    24bc:	4c666666 			@ <UNDEFINED> instruction: 4c666666
    24c0:	5f5f004c 			@ <UNDEFINED> instruction: 5f5f004c
    24c4:	5f4d5241 			@ <UNDEFINED> instruction: 5f4d5241
    24c8:	54414546 			@ <UNDEFINED> instruction: 54414546
    24cc:	5f455255 			@ <UNDEFINED> instruction: 5f455255
    24d0:	20544153 			@ <UNDEFINED> instruction: 20544153
    24d4:	72610031 			@ <UNDEFINED> instruction: 72610031
    24d8:	5f007367 			@ <UNDEFINED> instruction: 5f007367
    24dc:	4c4c555f 	mcrrmi	5, 5, r5, ip, cr15
    24e0:	43415246 	movtmi	r5, #4678	@ 0x1246
    24e4:	42495f54 			@ <UNDEFINED> instruction: 42495f54
    24e8:	5f5f5449 			@ <UNDEFINED> instruction: 5f5f5449
    24ec:	5f003020 			@ <UNDEFINED> instruction: 5f003020
    24f0:	49534e41 			@ <UNDEFINED> instruction: 49534e41
    24f4:	4454535f 			@ <UNDEFINED> instruction: 4454535f
    24f8:	5f464544 			@ <UNDEFINED> instruction: 5f464544
    24fc:	5f002048 			@ <UNDEFINED> instruction: 5f002048
    2500:	4343475f 	movtmi	r4, #14175	@ 0x375f
    2504:	4f54415f 			@ <UNDEFINED> instruction: 4f54415f
    2508:	5f43494d 			@ <UNDEFINED> instruction: 5f43494d
    250c:	52414843 			@ <UNDEFINED> instruction: 52414843
    2510:	5f545f38 			@ <UNDEFINED> instruction: 5f545f38
    2514:	4b434f4c 			@ <UNDEFINED> instruction: 4b434f4c
    2518:	4552465f 			@ <UNDEFINED> instruction: 4552465f
    251c:	00322045 			@ <UNDEFINED> instruction: 00322045
    2520:	4550534f 			@ <UNDEFINED> instruction: 4550534f
    2524:	00524445 			@ <UNDEFINED> instruction: 00524445
    2528:	5f434352 			@ <UNDEFINED> instruction: 5f434352
    252c:	52474643 			@ <UNDEFINED> instruction: 52474643
    2530:	46464f5f 			@ <UNDEFINED> instruction: 46464f5f
    2534:	20544553 			@ <UNDEFINED> instruction: 20544553
    2538:	38307830 			@ <UNDEFINED> instruction: 38307830
    253c:	5f5f0055 			@ <UNDEFINED> instruction: 5f5f0055
    2540:	43554e47 			@ <UNDEFINED> instruction: 43554e47
    2544:	31205f5f 			@ <UNDEFINED> instruction: 31205f5f
    2548:	50470034 			@ <UNDEFINED> instruction: 50470034
    254c:	5f004f49 			@ <UNDEFINED> instruction: 5f004f49
    2550:	4e4f4c5f 			@ <UNDEFINED> instruction: 4e4f4c5f
    2554:	49575f47 			@ <UNDEFINED> instruction: 49575f47
    2558:	5f485444 			@ <UNDEFINED> instruction: 5f485444
    255c:	3233205f 			@ <UNDEFINED> instruction: 3233205f
    2560:	5f545f00 			@ <UNDEFINED> instruction: 5f545f00
    2564:	41484357 			@ <UNDEFINED> instruction: 41484357
    2568:	00205f52 			@ <UNDEFINED> instruction: 00205f52
    256c:	41555f5f 			@ <UNDEFINED> instruction: 41555f5f
    2570:	4d554343 			@ <UNDEFINED> instruction: 4d554343
    2574:	4942465f 			@ <UNDEFINED> instruction: 4942465f
    2578:	205f5f54 			@ <UNDEFINED> instruction: 205f5f54
    257c:	5f003631 			@ <UNDEFINED> instruction: 5f003631
    2580:	5246555f 			@ <UNDEFINED> instruction: 5246555f
    2584:	5f544341 			@ <UNDEFINED> instruction: 5f544341
    2588:	49535045 			@ <UNDEFINED> instruction: 49535045
    258c:	5f4e4f4c 			@ <UNDEFINED> instruction: 5f4e4f4c
    2590:	7830205f 			@ <UNDEFINED> instruction: 7830205f
    2594:	312d5031 			@ <UNDEFINED> instruction: 312d5031
    2598:	00525536 			@ <UNDEFINED> instruction: 00525536
    259c:	43575f5f 			@ <UNDEFINED> instruction: 43575f5f
    25a0:	5f524148 			@ <UNDEFINED> instruction: 5f524148
    25a4:	5f4e494d 			@ <UNDEFINED> instruction: 5f4e494d
    25a8:	5530205f 			@ <UNDEFINED> instruction: 5530205f
    25ac:	495f5f00 			@ <UNDEFINED> instruction: 495f5f00
    25b0:	3631544e 			@ <UNDEFINED> instruction: 3631544e
    25b4:	22682220 			@ <UNDEFINED> instruction: 22682220
    25b8:	454e5f00 			@ <UNDEFINED> instruction: 454e5f00
    25bc:	42494c57 			@ <UNDEFINED> instruction: 42494c57
    25c0:	5245565f 			@ <UNDEFINED> instruction: 5245565f
    25c4:	4e4f4953 			@ <UNDEFINED> instruction: 4e4f4953
    25c8:	5f5f485f 			@ <UNDEFINED> instruction: 5f5f485f
    25cc:	5f003120 			@ <UNDEFINED> instruction: 5f003120
    25d0:	4343475f 	movtmi	r4, #14175	@ 0x375f
    25d4:	4f54415f 			@ <UNDEFINED> instruction: 4f54415f
    25d8:	5f43494d 			@ <UNDEFINED> instruction: 5f43494d
    25dc:	474e4f4c 			@ <UNDEFINED> instruction: 474e4f4c
    25e0:	434f4c5f 	movtmi	r4, #64607	@ 0xfc5f
    25e4:	52465f4b 			@ <UNDEFINED> instruction: 52465f4b
    25e8:	32204545 			@ <UNDEFINED> instruction: 32204545
    25ec:	555f5f00 			@ <UNDEFINED> instruction: 555f5f00
    25f0:	4343414c 	movtmi	r4, #12620	@ 0x314c
    25f4:	4d5f4d55 			@ <UNDEFINED> instruction: 4d5f4d55
    25f8:	5f5f4e49 			@ <UNDEFINED> instruction: 5f5f4e49
    25fc:	302e3020 			@ <UNDEFINED> instruction: 302e3020
    2600:	004b4c55 			@ <UNDEFINED> instruction: 004b4c55
    2604:	656e5f5f 			@ <UNDEFINED> instruction: 656e5f5f
    2608:	735f6465 			@ <UNDEFINED> instruction: 735f6465
    260c:	5f657a69 			@ <UNDEFINED> instruction: 5f657a69
    2610:	5f5f0074 			@ <UNDEFINED> instruction: 5f5f0074
    2614:	4c42444c 	mcrrmi	4, 4, r4, r2, cr12
    2618:	58414d5f 			@ <UNDEFINED> instruction: 58414d5f
    261c:	31205f5f 			@ <UNDEFINED> instruction: 31205f5f
    2620:	3739372e 			@ <UNDEFINED> instruction: 3739372e
    2624:	31333936 			@ <UNDEFINED> instruction: 31333936
    2628:	36383433 			@ <UNDEFINED> instruction: 36383433
    262c:	35313332 			@ <UNDEFINED> instruction: 35313332
    2630:	332b6537 			@ <UNDEFINED> instruction: 332b6537
    2634:	004c3830 			@ <UNDEFINED> instruction: 004c3830
    2638:	52415f5f 			@ <UNDEFINED> instruction: 52415f5f
    263c:	52415f4d 			@ <UNDEFINED> instruction: 52415f4d
    2640:	37204843 			@ <UNDEFINED> instruction: 37204843
    2644:	465f5f00 			@ <UNDEFINED> instruction: 465f5f00
    2648:	525f544c 			@ <UNDEFINED> instruction: 525f544c
    264c:	58494441 			@ <UNDEFINED> instruction: 58494441
    2650:	32205f5f 			@ <UNDEFINED> instruction: 32205f5f
    2654:	43324900 			@ <UNDEFINED> instruction: 43324900
    2658:	59424e5f 			@ <UNDEFINED> instruction: 59424e5f
    265c:	5f534554 			@ <UNDEFINED> instruction: 5f534554
    2660:	2058414d 			@ <UNDEFINED> instruction: 2058414d
    2664:	55353532 			@ <UNDEFINED> instruction: 55353532
    2668:	415f5f00 			@ <UNDEFINED> instruction: 415f5f00
    266c:	465f4d52 			@ <UNDEFINED> instruction: 465f4d52
    2670:	55544145 			@ <UNDEFINED> instruction: 55544145
    2674:	435f4552 			@ <UNDEFINED> instruction: 435f4552
    2678:	0045534d 			@ <UNDEFINED> instruction: 0045534d
    267c:	544e4955 			@ <UNDEFINED> instruction: 544e4955
    2680:	4d5f3233 			@ <UNDEFINED> instruction: 4d5f3233
    2684:	28205841 			@ <UNDEFINED> instruction: 28205841
    2688:	49555f5f 			@ <UNDEFINED> instruction: 49555f5f
    268c:	3233544e 			@ <UNDEFINED> instruction: 3233544e
    2690:	58414d5f 			@ <UNDEFINED> instruction: 58414d5f
    2694:	00295f5f 			@ <UNDEFINED> instruction: 00295f5f
    2698:	414c4544 			@ <UNDEFINED> instruction: 414c4544
    269c:	4e555f59 			@ <UNDEFINED> instruction: 4e555f59
    26a0:	5f535449 			@ <UNDEFINED> instruction: 5f535449
    26a4:	5f00534d 			@ <UNDEFINED> instruction: 5f00534d
    26a8:	42444c5f 			@ <UNDEFINED> instruction: 42444c5f
    26ac:	41485f4c 			@ <UNDEFINED> instruction: 41485f4c
    26b0:	55515f53 			@ <UNDEFINED> instruction: 55515f53
    26b4:	5f544549 			@ <UNDEFINED> instruction: 5f544549
    26b8:	5f4e414e 			@ <UNDEFINED> instruction: 5f4e414e
    26bc:	0031205f 			@ <UNDEFINED> instruction: 0031205f
    26c0:	54535953 			@ <UNDEFINED> instruction: 54535953
    26c4:	5256525f 			@ <UNDEFINED> instruction: 5256525f
    26c8:	282a2820 			@ <UNDEFINED> instruction: 282a2820
    26cc:	616c6f76 			@ <UNDEFINED> instruction: 616c6f76
    26d0:	656c6974 			@ <UNDEFINED> instruction: 656c6974
    26d4:	6e697520 			@ <UNDEFINED> instruction: 6e697520
    26d8:	5f323374 			@ <UNDEFINED> instruction: 5f323374
    26dc:	292a2074 			@ <UNDEFINED> instruction: 292a2074
    26e0:	30457830 			@ <UNDEFINED> instruction: 30457830
    26e4:	30453030 			@ <UNDEFINED> instruction: 30453030
    26e8:	29553431 			@ <UNDEFINED> instruction: 29553431
    26ec:	4c5f5f00 	mrrcmi	15, 0, r5, pc, cr0	@ <UNPREDICTABLE>
    26f0:	5f474e4f 			@ <UNDEFINED> instruction: 5f474e4f
    26f4:	474e4f4c 			@ <UNDEFINED> instruction: 474e4f4c
    26f8:	4449575f 			@ <UNDEFINED> instruction: 4449575f
    26fc:	5f5f4854 			@ <UNDEFINED> instruction: 5f5f4854
    2700:	00343620 			@ <UNDEFINED> instruction: 00343620
    2704:	45445f5f 			@ <UNDEFINED> instruction: 45445f5f
    2708:	454e4946 			@ <UNDEFINED> instruction: 454e4946
    270c:	63775f44 			@ <UNDEFINED> instruction: 63775f44
    2710:	5f726168 			@ <UNDEFINED> instruction: 5f726168
    2714:	57002074 	smlsdxpl	r0, r4, r0, r2
    2718:	5f544e49 			@ <UNDEFINED> instruction: 5f544e49
    271c:	2058414d 			@ <UNDEFINED> instruction: 2058414d
    2720:	575f5f28 			@ <UNDEFINED> instruction: 575f5f28
    2724:	5f544e49 			@ <UNDEFINED> instruction: 5f544e49
    2728:	5f58414d 			@ <UNDEFINED> instruction: 5f58414d
    272c:	5f00295f 			@ <UNDEFINED> instruction: 5f00295f
    2730:	4e49555f 			@ <UNDEFINED> instruction: 4e49555f
    2734:	41465f54 			@ <UNDEFINED> instruction: 41465f54
    2738:	34365453 			@ <UNDEFINED> instruction: 34365453
    273c:	58414d5f 			@ <UNDEFINED> instruction: 58414d5f
    2740:	30205f5f 			@ <UNDEFINED> instruction: 30205f5f
    2744:	66666678 			@ <UNDEFINED> instruction: 66666678
    2748:	66666666 			@ <UNDEFINED> instruction: 66666666
    274c:	66666666 			@ <UNDEFINED> instruction: 66666666
    2750:	66666666 			@ <UNDEFINED> instruction: 66666666
    2754:	4c4c5566 	mcrrmi	5, 6, r5, ip, cr6
    2758:	415f5f00 			@ <UNDEFINED> instruction: 415f5f00
    275c:	465f4d52 			@ <UNDEFINED> instruction: 465f4d52
    2760:	5f5f0050 			@ <UNDEFINED> instruction: 5f5f0050
    2764:	495f4148 			@ <UNDEFINED> instruction: 495f4148
    2768:	5f544942 			@ <UNDEFINED> instruction: 5f544942
    276c:	0038205f 			@ <UNDEFINED> instruction: 0038205f
    2770:	4e495f5f 			@ <UNDEFINED> instruction: 4e495f5f
    2774:	52545054 			@ <UNDEFINED> instruction: 52545054
    2778:	4449575f 			@ <UNDEFINED> instruction: 4449575f
    277c:	5f5f4854 			@ <UNDEFINED> instruction: 5f5f4854
    2780:	00323320 			@ <UNDEFINED> instruction: 00323320
    2784:	43475f5f 	movtmi	r5, #32607	@ 0x7f5f
    2788:	54415f43 			@ <UNDEFINED> instruction: 54415f43
    278c:	43494d4f 	movtmi	r4, #40271	@ 0x9d4f
    2790:	4f4c4c5f 			@ <UNDEFINED> instruction: 4f4c4c5f
    2794:	4c5f474e 	mrrcmi	7, 4, r4, pc, cr14	@ <UNPREDICTABLE>
    2798:	5f4b434f 			@ <UNDEFINED> instruction: 5f4b434f
    279c:	45455246 			@ <UNDEFINED> instruction: 45455246
    27a0:	5f003120 			@ <UNDEFINED> instruction: 5f003120
    27a4:	544c465f 			@ <UNDEFINED> instruction: 544c465f
    27a8:	5f583233 			@ <UNDEFINED> instruction: 5f583233
    27ac:	5f4e494d 			@ <UNDEFINED> instruction: 5f4e494d
    27b0:	2e32205f 			@ <UNDEFINED> instruction: 2e32205f
    27b4:	30353232 			@ <UNDEFINED> instruction: 30353232
    27b8:	35383337 			@ <UNDEFINED> instruction: 35383337
    27bc:	37303538 			@ <UNDEFINED> instruction: 37303538
    27c0:	34313032 			@ <UNDEFINED> instruction: 34313032
    27c4:	30332d65 			@ <UNDEFINED> instruction: 30332d65
    27c8:	32334638 			@ <UNDEFINED> instruction: 32334638
    27cc:	5f5f0078 			@ <UNDEFINED> instruction: 5f5f0078
    27d0:	36544c46 			@ <UNDEFINED> instruction: 36544c46
    27d4:	414d5f34 			@ <UNDEFINED> instruction: 414d5f34
    27d8:	58455f58 			@ <UNDEFINED> instruction: 58455f58
    27dc:	205f5f50 			@ <UNDEFINED> instruction: 205f5f50
    27e0:	34323031 			@ <UNDEFINED> instruction: 34323031
    27e4:	575f5f00 			@ <UNDEFINED> instruction: 575f5f00
    27e8:	52414843 			@ <UNDEFINED> instruction: 52414843
    27ec:	0020545f 			@ <UNDEFINED> instruction: 0020545f
    27f0:	57454e5f 	smlsldpl	r4, r5, pc, lr	@ <UNPREDICTABLE>
    27f4:	5f42494c 			@ <UNDEFINED> instruction: 5f42494c
    27f8:	53524556 			@ <UNDEFINED> instruction: 53524556
    27fc:	204e4f49 			@ <UNDEFINED> instruction: 204e4f49
    2800:	352e3422 			@ <UNDEFINED> instruction: 352e3422
    2804:	0022302e 			@ <UNDEFINED> instruction: 0022302e
    2808:	4c465f5f 	mcrrmi	15, 5, r5, r6, cr15
    280c:	5f343654 			@ <UNDEFINED> instruction: 5f343654
    2810:	5f4e494d 			@ <UNDEFINED> instruction: 5f4e494d
    2814:	2e32205f 			@ <UNDEFINED> instruction: 2e32205f
    2818:	30353232 			@ <UNDEFINED> instruction: 30353232
    281c:	35383337 			@ <UNDEFINED> instruction: 35383337
    2820:	37303538 			@ <UNDEFINED> instruction: 37303538
    2824:	34313032 			@ <UNDEFINED> instruction: 34313032
    2828:	30332d65 			@ <UNDEFINED> instruction: 30332d65
    282c:	34364638 			@ <UNDEFINED> instruction: 34364638
    2830:	5f5f5f00 			@ <UNDEFINED> instruction: 5f5f5f00
    2834:	33746e69 			@ <UNDEFINED> instruction: 33746e69
    2838:	5f745f32 			@ <UNDEFINED> instruction: 5f745f32
    283c:	69666564 			@ <UNDEFINED> instruction: 69666564
    2840:	2064656e 			@ <UNDEFINED> instruction: 2064656e
    2844:	5f5f0031 			@ <UNDEFINED> instruction: 5f5f0031
    2848:	5f544c46 			@ <UNDEFINED> instruction: 5f544c46
    284c:	5f4e494d 			@ <UNDEFINED> instruction: 5f4e494d
    2850:	5f505845 			@ <UNDEFINED> instruction: 5f505845
    2854:	2d28205f 			@ <UNDEFINED> instruction: 2d28205f
    2858:	29353231 			@ <UNDEFINED> instruction: 29353231
    285c:	415f5f00 			@ <UNDEFINED> instruction: 415f5f00
    2860:	415f4d52 			@ <UNDEFINED> instruction: 415f4d52
    2864:	5f484352 			@ <UNDEFINED> instruction: 5f484352
    2868:	464f5250 			@ <UNDEFINED> instruction: 464f5250
    286c:	00454c49 			@ <UNDEFINED> instruction: 00454c49
    2870:	4e495f5f 			@ <UNDEFINED> instruction: 4e495f5f
    2874:	5f343654 			@ <UNDEFINED> instruction: 5f343654
    2878:	45505954 			@ <UNDEFINED> instruction: 45505954
    287c:	6c205f5f 			@ <UNDEFINED> instruction: 6c205f5f
    2880:	20676e6f 			@ <UNDEFINED> instruction: 20676e6f
    2884:	676e6f6c 			@ <UNDEFINED> instruction: 676e6f6c
    2888:	746e6920 			@ <UNDEFINED> instruction: 746e6920
    288c:	4c5f5f00 	mrrcmi	15, 0, r5, pc, cr0	@ <UNPREDICTABLE>
    2890:	43415246 	movtmi	r5, #4678	@ 0x1246
    2894:	42465f54 			@ <UNDEFINED> instruction: 42465f54
    2898:	5f5f5449 			@ <UNDEFINED> instruction: 5f5f5449
    289c:	00313320 			@ <UNDEFINED> instruction: 00313320
    28a0:	544e4955 			@ <UNDEFINED> instruction: 544e4955
    28a4:	4d5f3631 			@ <UNDEFINED> instruction: 4d5f3631
    28a8:	28205841 			@ <UNDEFINED> instruction: 28205841
    28ac:	49555f5f 			@ <UNDEFINED> instruction: 49555f5f
    28b0:	3631544e 			@ <UNDEFINED> instruction: 3631544e
    28b4:	58414d5f 			@ <UNDEFINED> instruction: 58414d5f
    28b8:	00295f5f 			@ <UNDEFINED> instruction: 00295f5f
    28bc:	5f44454c 			@ <UNDEFINED> instruction: 5f44454c
    28c0:	5f002048 			@ <UNDEFINED> instruction: 5f002048
    28c4:	5a49535f 			@ <UNDEFINED> instruction: 5a49535f
    28c8:	5f464f45 			@ <UNDEFINED> instruction: 5f464f45
    28cc:	41484357 			@ <UNDEFINED> instruction: 41484357
    28d0:	5f545f52 			@ <UNDEFINED> instruction: 5f545f52
    28d4:	0034205f 			@ <UNDEFINED> instruction: 0034205f
    28d8:	53425f5f 	movtpl	r5, #12127	@ 0x2f5f
    28dc:	49565f44 			@ <UNDEFINED> instruction: 49565f44
    28e0:	4c424953 	mcrrmi	9, 5, r4, r2, cr3	@ <UNPREDICTABLE>
    28e4:	00312045 			@ <UNDEFINED> instruction: 00312045
    28e8:	5f544e49 			@ <UNDEFINED> instruction: 5f544e49
    28ec:	5341454c 	movtpl	r4, #5452	@ 0x154c
    28f0:	5f363154 			@ <UNDEFINED> instruction: 5f363154
    28f4:	204e494d 			@ <UNDEFINED> instruction: 204e494d
    28f8:	5f5f2d28 			@ <UNDEFINED> instruction: 5f5f2d28
    28fc:	5f544e49 			@ <UNDEFINED> instruction: 5f544e49
    2900:	5341454c 	movtpl	r4, #5452	@ 0x154c
    2904:	5f363154 			@ <UNDEFINED> instruction: 5f363154
    2908:	5f58414d 			@ <UNDEFINED> instruction: 5f58414d
    290c:	202d205f 			@ <UNDEFINED> instruction: 202d205f
    2910:	5f002931 			@ <UNDEFINED> instruction: 5f002931
    2914:	5246555f 			@ <UNDEFINED> instruction: 5246555f
    2918:	5f544341 			@ <UNDEFINED> instruction: 5f544341
    291c:	5f58414d 			@ <UNDEFINED> instruction: 5f58414d
    2920:	5830205f 			@ <UNDEFINED> instruction: 5830205f
    2924:	46464646 			@ <UNDEFINED> instruction: 46464646
    2928:	36312d50 			@ <UNDEFINED> instruction: 36312d50
    292c:	5f005255 			@ <UNDEFINED> instruction: 5f005255
    2930:	6e695f5f 			@ <UNDEFINED> instruction: 6e695f5f
    2934:	656c5f74 			@ <UNDEFINED> instruction: 656c5f74
    2938:	36747361 			@ <UNDEFINED> instruction: 36747361
    293c:	5f745f34 			@ <UNDEFINED> instruction: 5f745f34
    2940:	69666564 			@ <UNDEFINED> instruction: 69666564
    2944:	2064656e 			@ <UNDEFINED> instruction: 2064656e
    2948:	654c0031 			@ <UNDEFINED> instruction: 654c0031
    294c:	6e755264 			@ <UNDEFINED> instruction: 6e755264
    2950:	654c0030 			@ <UNDEFINED> instruction: 654c0030
    2954:	6e755264 			@ <UNDEFINED> instruction: 6e755264
    2958:	5f5f0031 			@ <UNDEFINED> instruction: 5f5f0031
    295c:	5f4d5241 			@ <UNDEFINED> instruction: 5f4d5241
    2960:	54414546 			@ <UNDEFINED> instruction: 54414546
    2964:	5f455255 			@ <UNDEFINED> instruction: 5f455255
    2968:	54554150 			@ <UNDEFINED> instruction: 54554150
    296c:	5f5f0048 			@ <UNDEFINED> instruction: 5f5f0048
    2970:	5f544e49 			@ <UNDEFINED> instruction: 5f544e49
    2974:	5341454c 	movtpl	r4, #5452	@ 0x154c
    2978:	5f323354 			@ <UNDEFINED> instruction: 5f323354
    297c:	5f58414d 			@ <UNDEFINED> instruction: 5f58414d
    2980:	7830205f 			@ <UNDEFINED> instruction: 7830205f
    2984:	66666637 			@ <UNDEFINED> instruction: 66666637
    2988:	66666666 			@ <UNDEFINED> instruction: 66666666
    298c:	5f5f004c 			@ <UNDEFINED> instruction: 5f5f004c
    2990:	41524653 			@ <UNDEFINED> instruction: 41524653
    2994:	495f5443 			@ <UNDEFINED> instruction: 495f5443
    2998:	5f544942 			@ <UNDEFINED> instruction: 5f544942
    299c:	0030205f 			@ <UNDEFINED> instruction: 0030205f
    29a0:	4654415f 			@ <UNDEFINED> instruction: 4654415f
    29a4:	5f454c49 			@ <UNDEFINED> instruction: 5f454c49
    29a8:	52554f53 			@ <UNDEFINED> instruction: 52554f53
    29ac:	31204543 			@ <UNDEFINED> instruction: 31204543
    29b0:	535f5f00 			@ <UNDEFINED> instruction: 535f5f00
    29b4:	4e494454 			@ <UNDEFINED> instruction: 4e494454
    29b8:	58455f54 			@ <UNDEFINED> instruction: 58455f54
    29bc:	29782850 			@ <UNDEFINED> instruction: 29782850
    29c0:	205f5f20 			@ <UNDEFINED> instruction: 205f5f20
    29c4:	20782323 			@ <UNDEFINED> instruction: 20782323
    29c8:	5f5f2323 			@ <UNDEFINED> instruction: 5f5f2323
    29cc:	455f5f00 			@ <UNDEFINED> instruction: 455f5f00
    29d0:	78285058 			@ <UNDEFINED> instruction: 78285058
    29d4:	5f5f2029 			@ <UNDEFINED> instruction: 5f5f2029
    29d8:	78232320 			@ <UNDEFINED> instruction: 78232320
    29dc:	5f232320 			@ <UNDEFINED> instruction: 5f232320
    29e0:	5f5f005f 			@ <UNDEFINED> instruction: 5f5f005f
    29e4:	45545942 			@ <UNDEFINED> instruction: 45545942
    29e8:	44524f5f 			@ <UNDEFINED> instruction: 44524f5f
    29ec:	5f5f5245 			@ <UNDEFINED> instruction: 5f5f5245
    29f0:	4f5f5f20 			@ <UNDEFINED> instruction: 4f5f5f20
    29f4:	52454452 			@ <UNDEFINED> instruction: 52454452
    29f8:	54494c5f 			@ <UNDEFINED> instruction: 54494c5f
    29fc:	5f454c54 			@ <UNDEFINED> instruction: 5f454c54
    2a00:	49444e45 			@ <UNDEFINED> instruction: 49444e45
    2a04:	5f5f4e41 			@ <UNDEFINED> instruction: 5f5f4e41
    2a08:	465f5f00 			@ <UNDEFINED> instruction: 465f5f00
    2a0c:	3233544c 			@ <UNDEFINED> instruction: 3233544c
    2a10:	5350455f 			@ <UNDEFINED> instruction: 5350455f
    2a14:	4e4f4c49 			@ <UNDEFINED> instruction: 4e4f4c49
    2a18:	31205f5f 			@ <UNDEFINED> instruction: 31205f5f
    2a1c:	3239312e 			@ <UNDEFINED> instruction: 3239312e
    2a20:	38323930 			@ <UNDEFINED> instruction: 38323930
    2a24:	30353539 			@ <UNDEFINED> instruction: 30353539
    2a28:	32313837 			@ <UNDEFINED> instruction: 32313837
    2a2c:	372d6535 			@ <UNDEFINED> instruction: 372d6535
    2a30:	00323346 			@ <UNDEFINED> instruction: 00323346
    2a34:	52415f5f 			@ <UNDEFINED> instruction: 52415f5f
    2a38:	454e5f4d 			@ <UNDEFINED> instruction: 454e5f4d
    2a3c:	465f4e4f 			@ <UNDEFINED> instruction: 465f4e4f
    2a40:	50470050 			@ <UNDEFINED> instruction: 50470050
    2a44:	505f4f49 			@ <UNDEFINED> instruction: 505f4f49
    2a48:	4454524f 			@ <UNDEFINED> instruction: 4454524f
    2a4c:	46464f5f 			@ <UNDEFINED> instruction: 46464f5f
    2a50:	20544553 			@ <UNDEFINED> instruction: 20544553
    2a54:	43307830 			@ <UNDEFINED> instruction: 43307830
    2a58:	00553030 			@ <UNDEFINED> instruction: 00553030
    2a5c:	46555f5f 	usaxmi	r5, r5, pc	@ <UNPREDICTABLE>
    2a60:	54434152 			@ <UNDEFINED> instruction: 54434152
    2a64:	4942465f 			@ <UNDEFINED> instruction: 4942465f
    2a68:	205f5f54 			@ <UNDEFINED> instruction: 205f5f54
    2a6c:	5f003631 			@ <UNDEFINED> instruction: 5f003631
    2a70:	5144555f 			@ <UNDEFINED> instruction: 5144555f
    2a74:	4942465f 			@ <UNDEFINED> instruction: 4942465f
    2a78:	205f5f54 			@ <UNDEFINED> instruction: 205f5f54
    2a7c:	5f003436 			@ <UNDEFINED> instruction: 5f003436
    2a80:	4c42445f 	mcrrmi	4, 5, r4, r2, cr15
    2a84:	524f4e5f 			@ <UNDEFINED> instruction: 524f4e5f
    2a88:	414d5f4d 			@ <UNDEFINED> instruction: 414d5f4d
    2a8c:	205f5f58 			@ <UNDEFINED> instruction: 205f5f58
    2a90:	6f642828 			@ <UNDEFINED> instruction: 6f642828
    2a94:	656c6275 			@ <UNDEFINED> instruction: 656c6275
    2a98:	372e3129 			@ <UNDEFINED> instruction: 372e3129
    2a9c:	39363739 			@ <UNDEFINED> instruction: 39363739
    2aa0:	34333133 			@ <UNDEFINED> instruction: 34333133
    2aa4:	33323638 			@ <UNDEFINED> instruction: 33323638
    2aa8:	65373531 			@ <UNDEFINED> instruction: 65373531
    2aac:	3830332b 			@ <UNDEFINED> instruction: 3830332b
    2ab0:	5f00294c 			@ <UNDEFINED> instruction: 5f00294c
    2ab4:	746e695f 			@ <UNDEFINED> instruction: 746e695f
    2ab8:	7361665f 			@ <UNDEFINED> instruction: 7361665f
    2abc:	5f363174 			@ <UNDEFINED> instruction: 5f363174
    2ac0:	65645f74 			@ <UNDEFINED> instruction: 65645f74
    2ac4:	656e6966 			@ <UNDEFINED> instruction: 656e6966
    2ac8:	00312064 			@ <UNDEFINED> instruction: 00312064
    2acc:	45444f4d 			@ <UNDEFINED> instruction: 45444f4d
    2ad0:	5f5f0052 			@ <UNDEFINED> instruction: 5f5f0052
    2ad4:	4c42444c 	mcrrmi	4, 4, r4, r2, cr12
    2ad8:	58414d5f 			@ <UNDEFINED> instruction: 58414d5f
    2adc:	5f30315f 			@ <UNDEFINED> instruction: 5f30315f
    2ae0:	5f505845 			@ <UNDEFINED> instruction: 5f505845
    2ae4:	3033205f 			@ <UNDEFINED> instruction: 3033205f
    2ae8:	5f5f0038 			@ <UNDEFINED> instruction: 5f5f0038
    2aec:	5f4d5241 			@ <UNDEFINED> instruction: 5f4d5241
    2af0:	54414546 			@ <UNDEFINED> instruction: 54414546
    2af4:	5f455255 			@ <UNDEFINED> instruction: 5f455255
    2af8:	52504f43 			@ <UNDEFINED> instruction: 52504f43
    2afc:	3120434f 			@ <UNDEFINED> instruction: 3120434f
    2b00:	43520035 			@ <UNDEFINED> instruction: 43520035
    2b04:	20485f43 			@ <UNDEFINED> instruction: 20485f43
    2b08:	445f5f00 			@ <UNDEFINED> instruction: 445f5f00
    2b0c:	445f4c42 			@ <UNDEFINED> instruction: 445f4c42
    2b10:	524f4e45 			@ <UNDEFINED> instruction: 524f4e45
    2b14:	494d5f4d 			@ <UNDEFINED> instruction: 494d5f4d
    2b18:	205f5f4e 			@ <UNDEFINED> instruction: 205f5f4e
    2b1c:	6f642828 			@ <UNDEFINED> instruction: 6f642828
    2b20:	656c6275 			@ <UNDEFINED> instruction: 656c6275
    2b24:	392e3429 			@ <UNDEFINED> instruction: 392e3429
    2b28:	35363034 			@ <UNDEFINED> instruction: 35363034
    2b2c:	38353436 			@ <UNDEFINED> instruction: 38353436
    2b30:	34323134 			@ <UNDEFINED> instruction: 34323134
    2b34:	65343536 			@ <UNDEFINED> instruction: 65343536
    2b38:	3432332d 			@ <UNDEFINED> instruction: 3432332d
    2b3c:	4900294c 			@ <UNDEFINED> instruction: 4900294c
    2b40:	3436544e 			@ <UNDEFINED> instruction: 3436544e
    2b44:	58414d5f 			@ <UNDEFINED> instruction: 58414d5f
    2b48:	5f5f2820 			@ <UNDEFINED> instruction: 5f5f2820
    2b4c:	36544e49 			@ <UNDEFINED> instruction: 36544e49
    2b50:	414d5f34 			@ <UNDEFINED> instruction: 414d5f34
    2b54:	295f5f58 			@ <UNDEFINED> instruction: 295f5f58
    2b58:	4c5f5f00 	mrrcmi	15, 0, r5, pc, cr0	@ <UNPREDICTABLE>
    2b5c:	5f4c4244 			@ <UNDEFINED> instruction: 5f4c4244
    2b60:	5f534148 			@ <UNDEFINED> instruction: 5f534148
    2b64:	49464e49 			@ <UNDEFINED> instruction: 49464e49
    2b68:	5954494e 			@ <UNDEFINED> instruction: 5954494e
    2b6c:	31205f5f 			@ <UNDEFINED> instruction: 31205f5f
    2b70:	49535f00 			@ <UNDEFINED> instruction: 49535f00
    2b74:	5f54455a 			@ <UNDEFINED> instruction: 5f54455a
    2b78:	5f5f0020 			@ <UNDEFINED> instruction: 5f5f0020
    2b7c:	36544c46 			@ <UNDEFINED> instruction: 36544c46
    2b80:	41485f34 			@ <UNDEFINED> instruction: 41485f34
    2b84:	55515f53 			@ <UNDEFINED> instruction: 55515f53
    2b88:	5f544549 			@ <UNDEFINED> instruction: 5f544549
    2b8c:	5f4e414e 			@ <UNDEFINED> instruction: 5f4e414e
    2b90:	0031205f 			@ <UNDEFINED> instruction: 0031205f
    2b94:	544e4955 			@ <UNDEFINED> instruction: 544e4955
    2b98:	435f3233 			@ <UNDEFINED> instruction: 435f3233
    2b9c:	20297828 			@ <UNDEFINED> instruction: 20297828
    2ba0:	49555f5f 			@ <UNDEFINED> instruction: 49555f5f
    2ba4:	3233544e 			@ <UNDEFINED> instruction: 3233544e
    2ba8:	7828435f 			@ <UNDEFINED> instruction: 7828435f
    2bac:	5f5f0029 			@ <UNDEFINED> instruction: 5f5f0029
    2bb0:	43415355 	movtmi	r5, #4949	@ 0x1355
    2bb4:	5f4d5543 			@ <UNDEFINED> instruction: 5f4d5543
    2bb8:	54494249 			@ <UNDEFINED> instruction: 54494249
    2bbc:	38205f5f 			@ <UNDEFINED> instruction: 38205f5f
    2bc0:	544e4900 			@ <UNDEFINED> instruction: 544e4900
    2bc4:	5341465f 	movtpl	r4, #5727	@ 0x165f
    2bc8:	4d5f3854 			@ <UNDEFINED> instruction: 4d5f3854
    2bcc:	28204e49 			@ <UNDEFINED> instruction: 28204e49
    2bd0:	495f5f2d 			@ <UNDEFINED> instruction: 495f5f2d
    2bd4:	465f544e 			@ <UNDEFINED> instruction: 465f544e
    2bd8:	38545341 			@ <UNDEFINED> instruction: 38545341
    2bdc:	58414d5f 			@ <UNDEFINED> instruction: 58414d5f
    2be0:	2d205f5f 			@ <UNDEFINED> instruction: 2d205f5f
    2be4:	00293120 			@ <UNDEFINED> instruction: 00293120
    2be8:	4c465f5f 	mcrrmi	15, 5, r5, r6, cr15
    2bec:	5f343654 			@ <UNDEFINED> instruction: 5f343654
    2bf0:	5f534148 			@ <UNDEFINED> instruction: 5f534148
    2bf4:	4f4e4544 			@ <UNDEFINED> instruction: 4f4e4544
    2bf8:	5f5f4d52 			@ <UNDEFINED> instruction: 5f5f4d52
    2bfc:	5f003120 			@ <UNDEFINED> instruction: 5f003120
    2c00:	4c4c555f 	mcrrmi	5, 5, r5, ip, cr15
    2c04:	55434341 			@ <UNDEFINED> instruction: 55434341
    2c08:	42495f4d 			@ <UNDEFINED> instruction: 42495f4d
    2c0c:	5f5f5449 			@ <UNDEFINED> instruction: 5f5f5449
    2c10:	00323320 			@ <UNDEFINED> instruction: 00323320
    2c14:	49555f5f 			@ <UNDEFINED> instruction: 49555f5f
    2c18:	414d544e 			@ <UNDEFINED> instruction: 414d544e
    2c1c:	59545f58 			@ <UNDEFINED> instruction: 59545f58
    2c20:	5f5f4550 			@ <UNDEFINED> instruction: 5f5f4550
    2c24:	6e6f6c20 			@ <UNDEFINED> instruction: 6e6f6c20
    2c28:	6f6c2067 			@ <UNDEFINED> instruction: 6f6c2067
    2c2c:	7520676e 			@ <UNDEFINED> instruction: 7520676e
    2c30:	6769736e 			@ <UNDEFINED> instruction: 6769736e
    2c34:	2064656e 			@ <UNDEFINED> instruction: 2064656e
    2c38:	00746e69 			@ <UNDEFINED> instruction: 00746e69
    2c3c:	4843575f 			@ <UNDEFINED> instruction: 4843575f
    2c40:	545f5241 			@ <UNDEFINED> instruction: 545f5241
    2c44:	4345445f 	movtmi	r4, #21599	@ 0x545f
    2c48:	4552414c 			@ <UNDEFINED> instruction: 4552414c
    2c4c:	5f002044 			@ <UNDEFINED> instruction: 5f002044
    2c50:	4148435f 			@ <UNDEFINED> instruction: 4148435f
    2c54:	49425f52 			@ <UNDEFINED> instruction: 49425f52
    2c58:	205f5f54 			@ <UNDEFINED> instruction: 205f5f54
    2c5c:	43520038 			@ <UNDEFINED> instruction: 43520038
    2c60:	41425f43 			@ <UNDEFINED> instruction: 41425f43
    2c64:	30204553 			@ <UNDEFINED> instruction: 30204553
    2c68:	30303458 			@ <UNDEFINED> instruction: 30303458
    2c6c:	30303132 			@ <UNDEFINED> instruction: 30303132
    2c70:	5f005530 			@ <UNDEFINED> instruction: 5f005530
    2c74:	544c465f 			@ <UNDEFINED> instruction: 544c465f
    2c78:	4156455f 			@ <UNDEFINED> instruction: 4156455f
    2c7c:	454d5f4c 			@ <UNDEFINED> instruction: 454d5f4c
    2c80:	444f4854 			@ <UNDEFINED> instruction: 444f4854
    2c84:	30205f5f 			@ <UNDEFINED> instruction: 30205f5f
    2c88:	535f5f00 			@ <UNDEFINED> instruction: 535f5f00
    2c8c:	52414843 			@ <UNDEFINED> instruction: 52414843
    2c90:	58414d5f 			@ <UNDEFINED> instruction: 58414d5f
    2c94:	30205f5f 			@ <UNDEFINED> instruction: 30205f5f
    2c98:	00663778 			@ <UNDEFINED> instruction: 00663778
    2c9c:	58455f5f 			@ <UNDEFINED> instruction: 58455f5f
    2ca0:	5f5f0050 			@ <UNDEFINED> instruction: 5f5f0050
    2ca4:	5f544e49 			@ <UNDEFINED> instruction: 5f544e49
    2ca8:	54534146 			@ <UNDEFINED> instruction: 54534146
    2cac:	49575f38 			@ <UNDEFINED> instruction: 49575f38
    2cb0:	5f485444 			@ <UNDEFINED> instruction: 5f485444
    2cb4:	3233205f 			@ <UNDEFINED> instruction: 3233205f
    2cb8:	535f5f00 			@ <UNDEFINED> instruction: 535f5f00
    2cbc:	5f434454 			@ <UNDEFINED> instruction: 5f434454
    2cc0:	5f465455 			@ <UNDEFINED> instruction: 5f465455
    2cc4:	5f5f3631 			@ <UNDEFINED> instruction: 5f5f3631
    2cc8:	5f003120 			@ <UNDEFINED> instruction: 5f003120
    2ccc:	4d52415f 			@ <UNDEFINED> instruction: 4d52415f
    2cd0:	4145465f 			@ <UNDEFINED> instruction: 4145465f
    2cd4:	45525554 			@ <UNDEFINED> instruction: 45525554
    2cd8:	52444c5f 			@ <UNDEFINED> instruction: 52444c5f
    2cdc:	5f005845 			@ <UNDEFINED> instruction: 5f005845
    2ce0:	54505f54 			@ <UNDEFINED> instruction: 54505f54
    2ce4:	46494452 			@ <UNDEFINED> instruction: 46494452
    2ce8:	5f002046 			@ <UNDEFINED> instruction: 5f002046
    2cec:	5151555f 			@ <UNDEFINED> instruction: 5151555f
    2cf0:	4942465f 			@ <UNDEFINED> instruction: 4942465f
    2cf4:	205f5f54 			@ <UNDEFINED> instruction: 205f5f54
    2cf8:	5f5f0038 			@ <UNDEFINED> instruction: 5f5f0038
    2cfc:	544e4957 			@ <UNDEFINED> instruction: 544e4957
    2d00:	5059545f 			@ <UNDEFINED> instruction: 5059545f
    2d04:	205f5f45 			@ <UNDEFINED> instruction: 205f5f45
    2d08:	69736e75 			@ <UNDEFINED> instruction: 69736e75
    2d0c:	64656e67 			@ <UNDEFINED> instruction: 64656e67
    2d10:	746e6920 			@ <UNDEFINED> instruction: 746e6920
    2d14:	415f5f00 			@ <UNDEFINED> instruction: 415f5f00
    2d18:	465f4d52 			@ <UNDEFINED> instruction: 465f4d52
    2d1c:	5f363150 			@ <UNDEFINED> instruction: 5f363150
    2d20:	53475241 	movtpl	r5, #29249	@ 0x7241
    2d24:	555f5f00 			@ <UNDEFINED> instruction: 555f5f00
    2d28:	55434341 			@ <UNDEFINED> instruction: 55434341
    2d2c:	414d5f4d 			@ <UNDEFINED> instruction: 414d5f4d
    2d30:	205f5f58 			@ <UNDEFINED> instruction: 205f5f58
    2d34:	46465830 			@ <UNDEFINED> instruction: 46465830
    2d38:	46464646 			@ <UNDEFINED> instruction: 46464646
    2d3c:	2d504646 			@ <UNDEFINED> instruction: 2d504646
    2d40:	4b553631 			@ <UNDEFINED> instruction: 4b553631
    2d44:	544c4100 			@ <UNDEFINED> instruction: 544c4100
    2d48:	414e5245 			@ <UNDEFINED> instruction: 414e5245
    2d4c:	465f4554 			@ <UNDEFINED> instruction: 465f4554
    2d50:	54434e55 			@ <UNDEFINED> instruction: 54434e55
    2d54:	004e4f49 			@ <UNDEFINED> instruction: 004e4f49
    2d58:	464c5f5f 			@ <UNDEFINED> instruction: 464c5f5f
    2d5c:	54434152 			@ <UNDEFINED> instruction: 54434152
    2d60:	58414d5f 			@ <UNDEFINED> instruction: 58414d5f
    2d64:	30205f5f 			@ <UNDEFINED> instruction: 30205f5f
    2d68:	46463758 			@ <UNDEFINED> instruction: 46463758
    2d6c:	46464646 			@ <UNDEFINED> instruction: 46464646
    2d70:	332d5046 			@ <UNDEFINED> instruction: 332d5046
    2d74:	00524c31 			@ <UNDEFINED> instruction: 00524c31
    2d78:	49535f5f 			@ <UNDEFINED> instruction: 49535f5f
    2d7c:	464f455a 			@ <UNDEFINED> instruction: 464f455a
    2d80:	5254505f 			@ <UNDEFINED> instruction: 5254505f
    2d84:	46464944 			@ <UNDEFINED> instruction: 46464944
    2d88:	5f5f545f 			@ <UNDEFINED> instruction: 5f5f545f
    2d8c:	5f003420 			@ <UNDEFINED> instruction: 5f003420
    2d90:	4843575f 			@ <UNDEFINED> instruction: 4843575f
    2d94:	545f5241 			@ <UNDEFINED> instruction: 545f5241
    2d98:	00205f5f 			@ <UNDEFINED> instruction: 00205f5f
    2d9c:	695f5f5f 			@ <UNDEFINED> instruction: 695f5f5f
    2da0:	6c5f746e 	mrrcvs	4, 6, r7, pc, cr14	@ <UNPREDICTABLE>
    2da4:	74736165 			@ <UNDEFINED> instruction: 74736165
    2da8:	5f745f38 			@ <UNDEFINED> instruction: 5f745f38
    2dac:	69666564 			@ <UNDEFINED> instruction: 69666564
    2db0:	2064656e 			@ <UNDEFINED> instruction: 2064656e
    2db4:	5f5f0031 			@ <UNDEFINED> instruction: 5f5f0031
    2db8:	5f4d5241 			@ <UNDEFINED> instruction: 5f4d5241
    2dbc:	54414546 			@ <UNDEFINED> instruction: 54414546
    2dc0:	5f455255 			@ <UNDEFINED> instruction: 5f455255
    2dc4:	56494449 			@ <UNDEFINED> instruction: 56494449
    2dc8:	5f003120 			@ <UNDEFINED> instruction: 5f003120
    2dcc:	4f4c465f 			@ <UNDEFINED> instruction: 4f4c465f
    2dd0:	575f5441 			@ <UNDEFINED> instruction: 575f5441
    2dd4:	5f44524f 			@ <UNDEFINED> instruction: 5f44524f
    2dd8:	4544524f 			@ <UNDEFINED> instruction: 4544524f
    2ddc:	205f5f52 			@ <UNDEFINED> instruction: 205f5f52
    2de0:	524f5f5f 			@ <UNDEFINED> instruction: 524f5f5f
    2de4:	5f524544 			@ <UNDEFINED> instruction: 5f524544
    2de8:	5454494c 			@ <UNDEFINED> instruction: 5454494c
    2dec:	455f454c 			@ <UNDEFINED> instruction: 455f454c
    2df0:	4149444e 			@ <UNDEFINED> instruction: 4149444e
    2df4:	005f5f4e 			@ <UNDEFINED> instruction: 005f5f4e
    2df8:	4343475f 	movtmi	r4, #14175	@ 0x375f
    2dfc:	4843575f 			@ <UNDEFINED> instruction: 4843575f
    2e00:	545f5241 			@ <UNDEFINED> instruction: 545f5241
    2e04:	5f5f0020 			@ <UNDEFINED> instruction: 5f5f0020
    2e08:	5f746e69 			@ <UNDEFINED> instruction: 5f746e69
    2e0c:	74736166 			@ <UNDEFINED> instruction: 74736166
    2e10:	5f745f38 			@ <UNDEFINED> instruction: 5f745f38
    2e14:	69666564 			@ <UNDEFINED> instruction: 69666564
    2e18:	2064656e 			@ <UNDEFINED> instruction: 2064656e
    2e1c:	5f5f0031 			@ <UNDEFINED> instruction: 5f5f0031
    2e20:	544e4955 			@ <UNDEFINED> instruction: 544e4955
    2e24:	41454c5f 			@ <UNDEFINED> instruction: 41454c5f
    2e28:	5f385453 			@ <UNDEFINED> instruction: 5f385453
    2e2c:	45505954 			@ <UNDEFINED> instruction: 45505954
    2e30:	75205f5f 			@ <UNDEFINED> instruction: 75205f5f
    2e34:	6769736e 			@ <UNDEFINED> instruction: 6769736e
    2e38:	2064656e 			@ <UNDEFINED> instruction: 2064656e
    2e3c:	72616863 			@ <UNDEFINED> instruction: 72616863
    2e40:	535f5f00 			@ <UNDEFINED> instruction: 535f5f00
    2e44:	5f545248 			@ <UNDEFINED> instruction: 5f545248
    2e48:	54444957 			@ <UNDEFINED> instruction: 54444957
    2e4c:	205f5f48 			@ <UNDEFINED> instruction: 205f5f48
    2e50:	49003631 			@ <UNDEFINED> instruction: 49003631
    2e54:	5450544e 			@ <UNDEFINED> instruction: 5450544e
    2e58:	414d5f52 			@ <UNDEFINED> instruction: 414d5f52
    2e5c:	5f282058 			@ <UNDEFINED> instruction: 5f282058
    2e60:	544e495f 			@ <UNDEFINED> instruction: 544e495f
    2e64:	5f525450 			@ <UNDEFINED> instruction: 5f525450
    2e68:	5f58414d 			@ <UNDEFINED> instruction: 5f58414d
    2e6c:	5f00295f 			@ <UNDEFINED> instruction: 5f00295f
    2e70:	44525450 			@ <UNDEFINED> instruction: 44525450
    2e74:	5f464649 			@ <UNDEFINED> instruction: 5f464649
    2e78:	45445f54 			@ <UNDEFINED> instruction: 45445f54
    2e7c:	52414c43 			@ <UNDEFINED> instruction: 52414c43
    2e80:	00204445 			@ <UNDEFINED> instruction: 00204445
    2e84:	53555f5f 			@ <UNDEFINED> instruction: 53555f5f
    2e88:	42465f41 			@ <UNDEFINED> instruction: 42465f41
    2e8c:	5f5f5449 			@ <UNDEFINED> instruction: 5f5f5449
    2e90:	00363120 			@ <UNDEFINED> instruction: 00363120
    2e94:	4e495f5f 			@ <UNDEFINED> instruction: 4e495f5f
    2e98:	41465f54 			@ <UNDEFINED> instruction: 41465f54
    2e9c:	32335453 			@ <UNDEFINED> instruction: 32335453
    2ea0:	5059545f 			@ <UNDEFINED> instruction: 5059545f
    2ea4:	205f5f45 			@ <UNDEFINED> instruction: 205f5f45
    2ea8:	00746e69 			@ <UNDEFINED> instruction: 00746e69
    2eac:	444c5f5f 			@ <UNDEFINED> instruction: 444c5f5f
    2eb0:	4d5f4c42 			@ <UNDEFINED> instruction: 4d5f4c42
    2eb4:	315f4e49 			@ <UNDEFINED> instruction: 315f4e49
    2eb8:	58455f30 			@ <UNDEFINED> instruction: 58455f30
    2ebc:	205f5f50 			@ <UNDEFINED> instruction: 205f5f50
    2ec0:	30332d28 			@ <UNDEFINED> instruction: 30332d28
    2ec4:	5f002937 			@ <UNDEFINED> instruction: 5f002937
    2ec8:	544c465f 			@ <UNDEFINED> instruction: 544c465f
    2ecc:	5341485f 	movtpl	r4, #6239	@ 0x185f
    2ed0:	4955515f 			@ <UNDEFINED> instruction: 4955515f
    2ed4:	4e5f5445 			@ <UNDEFINED> instruction: 4e5f5445
    2ed8:	5f5f4e41 			@ <UNDEFINED> instruction: 5f5f4e41
    2edc:	5f003120 			@ <UNDEFINED> instruction: 5f003120
    2ee0:	4654415f 			@ <UNDEFINED> instruction: 4654415f
    2ee4:	5f454c49 			@ <UNDEFINED> instruction: 5f454c49
    2ee8:	49534956 			@ <UNDEFINED> instruction: 49534956
    2eec:	20454c42 			@ <UNDEFINED> instruction: 20454c42
    2ef0:	554f0031 			@ <UNDEFINED> instruction: 554f0031
    2ef4:	54555054 			@ <UNDEFINED> instruction: 54555054
    2ef8:	504e4900 			@ <UNDEFINED> instruction: 504e4900
    2efc:	5f005455 			@ <UNDEFINED> instruction: 5f005455
    2f00:	52464c5f 			@ <UNDEFINED> instruction: 52464c5f
    2f04:	5f544341 			@ <UNDEFINED> instruction: 5f544341
    2f08:	49535045 			@ <UNDEFINED> instruction: 49535045
    2f0c:	5f4e4f4c 			@ <UNDEFINED> instruction: 5f4e4f4c
    2f10:	7830205f 			@ <UNDEFINED> instruction: 7830205f
    2f14:	332d5031 			@ <UNDEFINED> instruction: 332d5031
    2f18:	00524c31 			@ <UNDEFINED> instruction: 00524c31
    2f1c:	52415f5f 			@ <UNDEFINED> instruction: 52415f5f
    2f20:	49535f4d 			@ <UNDEFINED> instruction: 49535f4d
    2f24:	464f455a 			@ <UNDEFINED> instruction: 464f455a
    2f28:	4e494d5f 			@ <UNDEFINED> instruction: 4e494d5f
    2f2c:	4c414d49 	mcrrmi	13, 4, r4, r1, cr9
    2f30:	554e455f 			@ <UNDEFINED> instruction: 554e455f
    2f34:	0031204d 			@ <UNDEFINED> instruction: 0031204d
    2f38:	4c465f5f 	mcrrmi	15, 5, r5, r6, cr15
    2f3c:	58323354 			@ <UNDEFINED> instruction: 58323354
    2f40:	524f4e5f 			@ <UNDEFINED> instruction: 524f4e5f
    2f44:	414d5f4d 			@ <UNDEFINED> instruction: 414d5f4d
    2f48:	205f5f58 			@ <UNDEFINED> instruction: 205f5f58
    2f4c:	39372e31 			@ <UNDEFINED> instruction: 39372e31
    2f50:	33393637 			@ <UNDEFINED> instruction: 33393637
    2f54:	38343331 			@ <UNDEFINED> instruction: 38343331
    2f58:	31333236 			@ <UNDEFINED> instruction: 31333236
    2f5c:	2b653735 			@ <UNDEFINED> instruction: 2b653735
    2f60:	46383033 			@ <UNDEFINED> instruction: 46383033
    2f64:	00783233 			@ <UNDEFINED> instruction: 00783233
    2f68:	72615f5f 			@ <UNDEFINED> instruction: 72615f5f
    2f6c:	205f5f6d 			@ <UNDEFINED> instruction: 205f5f6d
    2f70:	5f5f0031 			@ <UNDEFINED> instruction: 5f5f0031
    2f74:	33544c46 			@ <UNDEFINED> instruction: 33544c46
    2f78:	494d5f32 			@ <UNDEFINED> instruction: 494d5f32
    2f7c:	30315f4e 			@ <UNDEFINED> instruction: 30315f4e
    2f80:	5058455f 			@ <UNDEFINED> instruction: 5058455f
    2f84:	28205f5f 			@ <UNDEFINED> instruction: 28205f5f
    2f88:	2937332d 			@ <UNDEFINED> instruction: 2937332d
    2f8c:	544e4900 			@ <UNDEFINED> instruction: 544e4900
    2f90:	4d5f3631 			@ <UNDEFINED> instruction: 4d5f3631
    2f94:	28204e49 			@ <UNDEFINED> instruction: 28204e49
    2f98:	495f5f2d 			@ <UNDEFINED> instruction: 495f5f2d
    2f9c:	3631544e 			@ <UNDEFINED> instruction: 3631544e
    2fa0:	58414d5f 			@ <UNDEFINED> instruction: 58414d5f
    2fa4:	2d205f5f 			@ <UNDEFINED> instruction: 2d205f5f
    2fa8:	00293120 			@ <UNDEFINED> instruction: 00293120
    2fac:	52415f5f 			@ <UNDEFINED> instruction: 52415f5f
    2fb0:	50465f4d 			@ <UNDEFINED> instruction: 50465f4d
    2fb4:	465f3631 			@ <UNDEFINED> instruction: 465f3631
    2fb8:	414d524f 			@ <UNDEFINED> instruction: 414d524f
    2fbc:	4c415f54 	mcrrmi	15, 5, r5, r1, cr4
    2fc0:	4e524554 			@ <UNDEFINED> instruction: 4e524554
    2fc4:	56495441 			@ <UNDEFINED> instruction: 56495441
    2fc8:	5f5f0045 			@ <UNDEFINED> instruction: 5f5f0045
    2fcc:	4c42444c 	mcrrmi	4, 4, r4, r2, cr12
    2fd0:	524f4e5f 			@ <UNDEFINED> instruction: 524f4e5f
    2fd4:	414d5f4d 			@ <UNDEFINED> instruction: 414d5f4d
    2fd8:	205f5f58 			@ <UNDEFINED> instruction: 205f5f58
    2fdc:	39372e31 			@ <UNDEFINED> instruction: 39372e31
    2fe0:	33393637 			@ <UNDEFINED> instruction: 33393637
    2fe4:	38343331 			@ <UNDEFINED> instruction: 38343331
    2fe8:	31333236 			@ <UNDEFINED> instruction: 31333236
    2fec:	2b653735 			@ <UNDEFINED> instruction: 2b653735
    2ff0:	4c383033 			@ <UNDEFINED> instruction: 4c383033
    2ff4:	414d5f00 			@ <UNDEFINED> instruction: 414d5f00
    2ff8:	4e494843 			@ <UNDEFINED> instruction: 4e494843
    2ffc:	445f5f45 			@ <UNDEFINED> instruction: 445f5f45
    3000:	55414645 			@ <UNDEFINED> instruction: 55414645
    3004:	545f544c 			@ <UNDEFINED> instruction: 545f544c
    3008:	53455059 	movtpl	r5, #20569	@ 0x5059
    300c:	0020485f 			@ <UNDEFINED> instruction: 0020485f
    3010:	49425f5f 			@ <UNDEFINED> instruction: 49425f5f
    3014:	53454747 	movtpl	r4, #22343	@ 0x5747
    3018:	4c415f54 	mcrrmi	15, 5, r5, r1, cr4
    301c:	4d4e4749 			@ <UNDEFINED> instruction: 4d4e4749
    3020:	5f544e45 			@ <UNDEFINED> instruction: 5f544e45
    3024:	0038205f 			@ <UNDEFINED> instruction: 0038205f
    3028:	4343475f 	movtmi	r4, #14175	@ 0x375f
    302c:	5254505f 			@ <UNDEFINED> instruction: 5254505f
    3030:	46464944 			@ <UNDEFINED> instruction: 46464944
    3034:	0020545f 			@ <UNDEFINED> instruction: 0020545f
    3038:	41545f5f 			@ <UNDEFINED> instruction: 41545f5f
    303c:	4942495f 			@ <UNDEFINED> instruction: 4942495f
    3040:	205f5f54 			@ <UNDEFINED> instruction: 205f5f54
    3044:	49003436 			@ <UNDEFINED> instruction: 49003436
    3048:	545f4332 			@ <UNDEFINED> instruction: 545f4332
    304c:	4e494d49 			@ <UNDEFINED> instruction: 4e494d49
    3050:	30315f47 			@ <UNDEFINED> instruction: 30315f47
    3054:	5a484b30 			@ <UNDEFINED> instruction: 5a484b30
    3058:	4d36315f 			@ <UNDEFINED> instruction: 4d36315f
    305c:	30205a48 			@ <UNDEFINED> instruction: 30205a48
    3060:	42303478 			@ <UNDEFINED> instruction: 42303478
    3064:	43353832 			@ <UNDEFINED> instruction: 43353832
    3068:	5f005532 			@ <UNDEFINED> instruction: 5f005532
    306c:	41454c5f 			@ <UNDEFINED> instruction: 41454c5f
    3070:	34365453 			@ <UNDEFINED> instruction: 34365453
    3074:	6c6c2220 			@ <UNDEFINED> instruction: 6c6c2220
    3078:	5f5f0022 			@ <UNDEFINED> instruction: 5f5f0022
    307c:	5f4d5241 			@ <UNDEFINED> instruction: 5f4d5241
    3080:	54414546 			@ <UNDEFINED> instruction: 54414546
    3084:	5f455255 			@ <UNDEFINED> instruction: 5f455255
    3088:	4d445251 			@ <UNDEFINED> instruction: 4d445251
    308c:	454c0058 			@ <UNDEFINED> instruction: 454c0058
    3090:	28203144 			@ <UNDEFINED> instruction: 28203144
    3094:	64654c28 			@ <UNDEFINED> instruction: 64654c28
    3098:	6f666e49 			@ <UNDEFINED> instruction: 6f666e49
    309c:	50477b29 			@ <UNDEFINED> instruction: 50477b29
    30a0:	435f4f49 			@ <UNDEFINED> instruction: 435f4f49
    30a4:	49464e4f 			@ <UNDEFINED> instruction: 49464e4f
    30a8:	4f502847 			@ <UNDEFINED> instruction: 4f502847
    30ac:	2c475452 	mcrrcs	4, 5, r5, r7, cr2
    30b0:	4e495020 			@ <UNDEFINED> instruction: 4e495020
    30b4:	202c395f 			@ <UNDEFINED> instruction: 202c395f
    30b8:	5054554f 			@ <UNDEFINED> instruction: 5054554f
    30bc:	202c5455 			@ <UNDEFINED> instruction: 202c5455
    30c0:	48535550 			@ <UNDEFINED> instruction: 48535550
    30c4:	4c55505f 	mrrcmi	0, 5, r5, r5, cr15	@ <UNPREDICTABLE>
    30c8:	50202c4c 			@ <UNDEFINED> instruction: 50202c4c
    30cc:	5f4c4c55 			@ <UNDEFINED> instruction: 5f4c4c55
    30d0:	4e574f44 			@ <UNDEFINED> instruction: 4e574f44
    30d4:	4641202c 			@ <UNDEFINED> instruction: 4641202c
    30d8:	4e4f4e5f 			@ <UNDEFINED> instruction: 4e4f4e5f
    30dc:	297d2945 			@ <UNDEFINED> instruction: 297d2945
    30e0:	415f5f00 			@ <UNDEFINED> instruction: 415f5f00
    30e4:	415f4d52 			@ <UNDEFINED> instruction: 415f4d52
    30e8:	5f484352 			@ <UNDEFINED> instruction: 5f484352
    30ec:	5f415349 			@ <UNDEFINED> instruction: 5f415349
    30f0:	4d554854 			@ <UNDEFINED> instruction: 4d554854
    30f4:	00322042 			@ <UNDEFINED> instruction: 00322042
    30f8:	4f4c5f5f 			@ <UNDEFINED> instruction: 4f4c5f5f
    30fc:	4c5f474e 	mrrcmi	7, 4, r4, pc, cr14	@ <UNPREDICTABLE>
    3100:	5f474e4f 			@ <UNDEFINED> instruction: 5f474e4f
    3104:	5f58414d 			@ <UNDEFINED> instruction: 5f58414d
    3108:	7830205f 			@ <UNDEFINED> instruction: 7830205f
    310c:	66666637 			@ <UNDEFINED> instruction: 66666637
    3110:	66666666 			@ <UNDEFINED> instruction: 66666666
    3114:	66666666 			@ <UNDEFINED> instruction: 66666666
    3118:	66666666 			@ <UNDEFINED> instruction: 66666666
    311c:	5f004c4c 			@ <UNDEFINED> instruction: 5f004c4c
    3120:	5f434347 			@ <UNDEFINED> instruction: 5f434347
    3124:	4c4c554e 	mcrrmi	5, 4, r5, ip, cr14
    3128:	5f525450 			@ <UNDEFINED> instruction: 5f525450
    312c:	6c002054 			@ <UNDEFINED> instruction: 6c002054
    3130:	20676e6f 			@ <UNDEFINED> instruction: 20676e6f
    3134:	62756f64 			@ <UNDEFINED> instruction: 62756f64
    3138:	6c00656c 			@ <UNDEFINED> instruction: 6c00656c
    313c:	00676e6f 			@ <UNDEFINED> instruction: 00676e6f
    3140:	726f6873 			@ <UNDEFINED> instruction: 726f6873
    3144:	5f5f0074 			@ <UNDEFINED> instruction: 5f5f0074
    3148:	43434153 	movtmi	r4, #12627	@ 0x3153
    314c:	4d5f4d55 			@ <UNDEFINED> instruction: 4d5f4d55
    3150:	5f5f5841 			@ <UNDEFINED> instruction: 5f5f5841
    3154:	37583020 			@ <UNDEFINED> instruction: 37583020
    3158:	50464646 			@ <UNDEFINED> instruction: 50464646
    315c:	4b48372d 			@ <UNDEFINED> instruction: 4b48372d
    3160:	555f5f00 			@ <UNDEFINED> instruction: 555f5f00
    3164:	43415246 	movtmi	r5, #4678	@ 0x1246
    3168:	42495f54 			@ <UNDEFINED> instruction: 42495f54
    316c:	5f5f5449 			@ <UNDEFINED> instruction: 5f5f5449
    3170:	5f003020 			@ <UNDEFINED> instruction: 5f003020
    3174:	4d52415f 			@ <UNDEFINED> instruction: 4d52415f
    3178:	4232335f 			@ <UNDEFINED> instruction: 4232335f
    317c:	535f5449 			@ <UNDEFINED> instruction: 535f5449
    3180:	45544154 			@ <UNDEFINED> instruction: 45544154
    3184:	5f003120 			@ <UNDEFINED> instruction: 5f003120
    3188:	544e495f 			@ <UNDEFINED> instruction: 544e495f
    318c:	28435f38 			@ <UNDEFINED> instruction: 28435f38
    3190:	63202963 			@ <UNDEFINED> instruction: 63202963
    3194:	4c5f5f00 	mrrcmi	15, 0, r5, pc, cr0	@ <UNPREDICTABLE>
    3198:	43415246 	movtmi	r5, #4678	@ 0x1246
    319c:	42495f54 			@ <UNDEFINED> instruction: 42495f54
    31a0:	5f5f5449 			@ <UNDEFINED> instruction: 5f5f5449
    31a4:	5f003020 			@ <UNDEFINED> instruction: 5f003020
    31a8:	44445453 			@ <UNDEFINED> instruction: 44445453
    31ac:	485f4645 			@ <UNDEFINED> instruction: 485f4645
    31b0:	5f00205f 			@ <UNDEFINED> instruction: 5f00205f
    31b4:	4c42445f 	mcrrmi	4, 5, r4, r2, cr15
    31b8:	4e494d5f 			@ <UNDEFINED> instruction: 4e494d5f
    31bc:	5058455f 			@ <UNDEFINED> instruction: 5058455f
    31c0:	28205f5f 			@ <UNDEFINED> instruction: 28205f5f
    31c4:	3230312d 			@ <UNDEFINED> instruction: 3230312d
    31c8:	5f002931 			@ <UNDEFINED> instruction: 5f002931
    31cc:	4f53495f 			@ <UNDEFINED> instruction: 4f53495f
    31d0:	565f435f 			@ <UNDEFINED> instruction: 565f435f
    31d4:	42495349 			@ <UNDEFINED> instruction: 42495349
    31d8:	3220454c 			@ <UNDEFINED> instruction: 3220454c
    31dc:	00303230 			@ <UNDEFINED> instruction: 00303230
    31e0:	5f434352 			@ <UNDEFINED> instruction: 5f434352
    31e4:	32424841 			@ <UNDEFINED> instruction: 32424841
    31e8:	4b4c435f 			@ <UNDEFINED> instruction: 4b4c435f
    31ec:	204e455f 			@ <UNDEFINED> instruction: 204e455f
    31f0:	76282a28 			@ <UNDEFINED> instruction: 76282a28
    31f4:	74616c6f 			@ <UNDEFINED> instruction: 74616c6f
    31f8:	20656c69 			@ <UNDEFINED> instruction: 20656c69
    31fc:	746e6975 			@ <UNDEFINED> instruction: 746e6975
    3200:	745f3233 			@ <UNDEFINED> instruction: 745f3233
    3204:	28292a20 			@ <UNDEFINED> instruction: 28292a20
    3208:	5f434352 			@ <UNDEFINED> instruction: 5f434352
    320c:	45534142 			@ <UNDEFINED> instruction: 45534142
    3210:	52202b20 			@ <UNDEFINED> instruction: 52202b20
    3214:	415f4343 			@ <UNDEFINED> instruction: 415f4343
    3218:	5f324248 			@ <UNDEFINED> instruction: 5f324248
    321c:	5f4b4c43 			@ <UNDEFINED> instruction: 5f4b4c43
    3220:	4f5f4e45 			@ <UNDEFINED> instruction: 4f5f4e45
    3224:	45534646 			@ <UNDEFINED> instruction: 45534646
    3228:	00292954 			@ <UNDEFINED> instruction: 00292954
    322c:	4c465f5f 	mcrrmi	15, 5, r5, r6, cr15
    3230:	5f323354 			@ <UNDEFINED> instruction: 5f323354
    3234:	5f474944 			@ <UNDEFINED> instruction: 5f474944
    3238:	0036205f 			@ <UNDEFINED> instruction: 0036205f
    323c:	5f434352 			@ <UNDEFINED> instruction: 5f434352
    3240:	32424841 			@ <UNDEFINED> instruction: 32424841
    3244:	4b4c435f 			@ <UNDEFINED> instruction: 4b4c435f
    3248:	5f4e455f 			@ <UNDEFINED> instruction: 5f4e455f
    324c:	5346464f 	movtpl	r4, #26191	@ 0x664f
    3250:	30205445 			@ <UNDEFINED> instruction: 30205445
    3254:	55433478 			@ <UNDEFINED> instruction: 55433478
    3258:	6c656400 			@ <UNDEFINED> instruction: 6c656400
    325c:	755f7961 			@ <UNDEFINED> instruction: 755f7961
    3260:	7374696e 			@ <UNDEFINED> instruction: 7374696e
    3264:	5500745f 			@ <UNDEFINED> instruction: 5500745f
    3268:	4d544e49 			@ <UNDEFINED> instruction: 4d544e49
    326c:	435f5841 			@ <UNDEFINED> instruction: 435f5841
    3270:	20297828 			@ <UNDEFINED> instruction: 20297828
    3274:	49555f5f 			@ <UNDEFINED> instruction: 49555f5f
    3278:	414d544e 			@ <UNDEFINED> instruction: 414d544e
    327c:	28435f58 			@ <UNDEFINED> instruction: 28435f58
    3280:	55002978 			@ <UNDEFINED> instruction: 55002978
    3284:	5f544e49 			@ <UNDEFINED> instruction: 5f544e49
    3288:	54534146 			@ <UNDEFINED> instruction: 54534146
    328c:	4d5f3436 			@ <UNDEFINED> instruction: 4d5f3436
    3290:	28205841 			@ <UNDEFINED> instruction: 28205841
    3294:	49555f5f 			@ <UNDEFINED> instruction: 49555f5f
    3298:	465f544e 			@ <UNDEFINED> instruction: 465f544e
    329c:	36545341 			@ <UNDEFINED> instruction: 36545341
    32a0:	414d5f34 			@ <UNDEFINED> instruction: 414d5f34
    32a4:	295f5f58 			@ <UNDEFINED> instruction: 295f5f58
    32a8:	4c5f5f00 	mrrcmi	15, 0, r5, pc, cr0	@ <UNPREDICTABLE>
    32ac:	5f4c4244 			@ <UNDEFINED> instruction: 5f4c4244
    32b0:	5f534148 			@ <UNDEFINED> instruction: 5f534148
    32b4:	4f4e4544 			@ <UNDEFINED> instruction: 4f4e4544
    32b8:	5f5f4d52 			@ <UNDEFINED> instruction: 5f5f4d52
    32bc:	5f003120 			@ <UNDEFINED> instruction: 5f003120
    32c0:	5641485f 			@ <UNDEFINED> instruction: 5641485f
    32c4:	50535f45 			@ <UNDEFINED> instruction: 50535f45
    32c8:	4c554345 	mrrcmi	3, 4, r4, r5, cr5
    32cc:	4f495441 			@ <UNDEFINED> instruction: 4f495441
    32d0:	41535f4e 			@ <UNDEFINED> instruction: 41535f4e
    32d4:	565f4546 			@ <UNDEFINED> instruction: 565f4546
    32d8:	45554c41 			@ <UNDEFINED> instruction: 45554c41
    32dc:	5f003120 			@ <UNDEFINED> instruction: 5f003120
    32e0:	4341535f 	movtmi	r5, #4959	@ 0x135f
    32e4:	5f4d5543 			@ <UNDEFINED> instruction: 5f4d5543
    32e8:	54494246 			@ <UNDEFINED> instruction: 54494246
    32ec:	37205f5f 			@ <UNDEFINED> instruction: 37205f5f
    32f0:	475f5f00 			@ <UNDEFINED> instruction: 475f5f00
    32f4:	485f4343 			@ <UNDEFINED> instruction: 485f4343
    32f8:	5f455641 			@ <UNDEFINED> instruction: 5f455641
    32fc:	434e5953 	movtmi	r5, #59731	@ 0xe953
    3300:	4d4f435f 			@ <UNDEFINED> instruction: 4d4f435f
    3304:	45524150 			@ <UNDEFINED> instruction: 45524150
    3308:	444e415f 			@ <UNDEFINED> instruction: 444e415f
    330c:	4157535f 			@ <UNDEFINED> instruction: 4157535f
    3310:	20345f50 			@ <UNDEFINED> instruction: 20345f50
    3314:	5f5f0031 			@ <UNDEFINED> instruction: 5f5f0031
    3318:	55434341 			@ <UNDEFINED> instruction: 55434341
    331c:	494d5f4d 			@ <UNDEFINED> instruction: 494d5f4d
    3320:	205f5f4e 			@ <UNDEFINED> instruction: 205f5f4e
    3324:	58302d28 			@ <UNDEFINED> instruction: 58302d28
    3328:	35315031 			@ <UNDEFINED> instruction: 35315031
    332c:	58302d4b 			@ <UNDEFINED> instruction: 58302d4b
    3330:	35315031 			@ <UNDEFINED> instruction: 35315031
    3334:	5f00294b 			@ <UNDEFINED> instruction: 5f00294b
    3338:	4d52415f 			@ <UNDEFINED> instruction: 4d52415f
    333c:	4145465f 			@ <UNDEFINED> instruction: 4145465f
    3340:	45525554 			@ <UNDEFINED> instruction: 45525554
    3344:	5952435f 			@ <UNDEFINED> instruction: 5952435f
    3348:	004f5450 			@ <UNDEFINED> instruction: 004f5450
    334c:	4e495f5f 			@ <UNDEFINED> instruction: 4e495f5f
    3350:	454c5f54 			@ <UNDEFINED> instruction: 454c5f54
    3354:	33545341 			@ <UNDEFINED> instruction: 33545341
    3358:	59545f32 			@ <UNDEFINED> instruction: 59545f32
    335c:	5f5f4550 			@ <UNDEFINED> instruction: 5f5f4550
    3360:	6e6f6c20 			@ <UNDEFINED> instruction: 6e6f6c20
    3364:	6e692067 			@ <UNDEFINED> instruction: 6e692067
    3368:	5f5f0074 			@ <UNDEFINED> instruction: 5f5f0074
    336c:	544e4955 			@ <UNDEFINED> instruction: 544e4955
    3370:	41454c5f 			@ <UNDEFINED> instruction: 41454c5f
    3374:	34365453 			@ <UNDEFINED> instruction: 34365453
    3378:	58414d5f 			@ <UNDEFINED> instruction: 58414d5f
    337c:	30205f5f 			@ <UNDEFINED> instruction: 30205f5f
    3380:	66666678 			@ <UNDEFINED> instruction: 66666678
    3384:	66666666 			@ <UNDEFINED> instruction: 66666666
    3388:	66666666 			@ <UNDEFINED> instruction: 66666666
    338c:	66666666 			@ <UNDEFINED> instruction: 66666666
    3390:	4c4c5566 	mcrrmi	5, 6, r5, ip, cr6
    3394:	49504700 			@ <UNDEFINED> instruction: 49504700
    3398:	4f505f4f 			@ <UNDEFINED> instruction: 4f505f4f
    339c:	5f465452 			@ <UNDEFINED> instruction: 5f465452
    33a0:	5346464f 	movtpl	r4, #26191	@ 0x664f
    33a4:	30205445 			@ <UNDEFINED> instruction: 30205445
    33a8:	30343178 			@ <UNDEFINED> instruction: 30343178
    33ac:	5f005530 			@ <UNDEFINED> instruction: 5f005530
    33b0:	4152465f 			@ <UNDEFINED> instruction: 4152465f
    33b4:	495f5443 			@ <UNDEFINED> instruction: 495f5443
    33b8:	5f544942 			@ <UNDEFINED> instruction: 5f544942
    33bc:	0030205f 			@ <UNDEFINED> instruction: 0030205f
    33c0:	4c465f5f 	mcrrmi	15, 5, r5, r6, cr15
    33c4:	5f343654 			@ <UNDEFINED> instruction: 5f343654
    33c8:	495f5349 			@ <UNDEFINED> instruction: 495f5349
    33cc:	365f4345 			@ <UNDEFINED> instruction: 365f4345
    33d0:	39353530 			@ <UNDEFINED> instruction: 39353530
    33d4:	31205f5f 			@ <UNDEFINED> instruction: 31205f5f
    33d8:	4e5f5f00 			@ <UNDEFINED> instruction: 4e5f5f00
    33dc:	494c5745 			@ <UNDEFINED> instruction: 494c5745
    33e0:	41505f42 			@ <UNDEFINED> instruction: 41505f42
    33e4:	4c484354 	mcrrmi	3, 5, r4, r8, cr4
    33e8:	4c455645 	mcrrmi	6, 4, r5, r5, cr5
    33ec:	30205f5f 			@ <UNDEFINED> instruction: 30205f5f
    33f0:	43324900 			@ <UNDEFINED> instruction: 43324900
    33f4:	4c43535f 	mcrrmi	3, 5, r5, r3, cr15
    33f8:	4950475f 			@ <UNDEFINED> instruction: 4950475f
    33fc:	5047204f 			@ <UNDEFINED> instruction: 5047204f
    3400:	435f4f49 			@ <UNDEFINED> instruction: 435f4f49
    3404:	49464e4f 			@ <UNDEFINED> instruction: 49464e4f
    3408:	4f502847 			@ <UNDEFINED> instruction: 4f502847
    340c:	2c475452 	mcrrcs	4, 5, r5, r7, cr2
    3410:	4e495020 			@ <UNDEFINED> instruction: 4e495020
    3414:	202c375f 			@ <UNDEFINED> instruction: 202c375f
    3418:	45544c41 			@ <UNDEFINED> instruction: 45544c41
    341c:	54414e52 			@ <UNDEFINED> instruction: 54414e52
    3420:	55465f45 			@ <UNDEFINED> instruction: 55465f45
    3424:	4954434e 			@ <UNDEFINED> instruction: 4954434e
    3428:	202c4e4f 			@ <UNDEFINED> instruction: 202c4e4f
    342c:	4e45504f 			@ <UNDEFINED> instruction: 4e45504f
    3430:	4152445f 			@ <UNDEFINED> instruction: 4152445f
    3434:	202c4e49 			@ <UNDEFINED> instruction: 202c4e49
    3438:	505f4f4e 			@ <UNDEFINED> instruction: 505f4f4e
    343c:	2c4c4c55 	mcrrcs	12, 5, r4, ip, cr5
    3440:	5f464120 			@ <UNDEFINED> instruction: 5f464120
    3444:	33433249 	movtcc	r3, #12873	@ 0x3249
    3448:	4c43535f 	mcrrmi	3, 5, r5, r3, cr15
    344c:	5f5f0029 			@ <UNDEFINED> instruction: 5f5f0029
    3450:	4544524f 			@ <UNDEFINED> instruction: 4544524f
    3454:	494c5f52 			@ <UNDEFINED> instruction: 494c5f52
    3458:	454c5454 			@ <UNDEFINED> instruction: 454c5454
    345c:	444e455f 			@ <UNDEFINED> instruction: 444e455f
    3460:	5f4e4149 			@ <UNDEFINED> instruction: 5f4e4149
    3464:	3231205f 			@ <UNDEFINED> instruction: 3231205f
    3468:	5f003433 			@ <UNDEFINED> instruction: 5f003433
    346c:	544c465f 			@ <UNDEFINED> instruction: 544c465f
    3470:	524f4e5f 			@ <UNDEFINED> instruction: 524f4e5f
    3474:	414d5f4d 			@ <UNDEFINED> instruction: 414d5f4d
    3478:	205f5f58 			@ <UNDEFINED> instruction: 205f5f58
    347c:	30342e33 			@ <UNDEFINED> instruction: 30342e33
    3480:	33323832 			@ <UNDEFINED> instruction: 33323832
    3484:	33363634 			@ <UNDEFINED> instruction: 33363634
    3488:	38323538 			@ <UNDEFINED> instruction: 38323538
    348c:	2b653638 			@ <UNDEFINED> instruction: 2b653638
    3490:	00463833 			@ <UNDEFINED> instruction: 00463833
    3494:	544e4955 			@ <UNDEFINED> instruction: 544e4955
    3498:	41454c5f 			@ <UNDEFINED> instruction: 41454c5f
    349c:	34365453 			@ <UNDEFINED> instruction: 34365453
    34a0:	58414d5f 			@ <UNDEFINED> instruction: 58414d5f
    34a4:	5f5f2820 			@ <UNDEFINED> instruction: 5f5f2820
    34a8:	544e4955 			@ <UNDEFINED> instruction: 544e4955
    34ac:	41454c5f 			@ <UNDEFINED> instruction: 41454c5f
    34b0:	34365453 			@ <UNDEFINED> instruction: 34365453
    34b4:	58414d5f 			@ <UNDEFINED> instruction: 58414d5f
    34b8:	00295f5f 			@ <UNDEFINED> instruction: 00295f5f
    34bc:	4c465f5f 	mcrrmi	15, 5, r5, r6, cr15
    34c0:	494d5f54 			@ <UNDEFINED> instruction: 494d5f54
    34c4:	30315f4e 			@ <UNDEFINED> instruction: 30315f4e
    34c8:	5058455f 			@ <UNDEFINED> instruction: 5058455f
    34cc:	28205f5f 			@ <UNDEFINED> instruction: 28205f5f
    34d0:	2937332d 			@ <UNDEFINED> instruction: 2937332d
    34d4:	555f5f00 			@ <UNDEFINED> instruction: 555f5f00
    34d8:	4343414c 	movtmi	r4, #12620	@ 0x314c
    34dc:	495f4d55 			@ <UNDEFINED> instruction: 495f4d55
    34e0:	5f544942 			@ <UNDEFINED> instruction: 5f544942
    34e4:	3233205f 			@ <UNDEFINED> instruction: 3233205f
    34e8:	4c5f5f00 	mrrcmi	15, 0, r5, pc, cr0	@ <UNPREDICTABLE>
    34ec:	5f4c4244 			@ <UNDEFINED> instruction: 5f4c4244
    34f0:	495f5349 			@ <UNDEFINED> instruction: 495f5349
    34f4:	365f4345 			@ <UNDEFINED> instruction: 365f4345
    34f8:	39353530 			@ <UNDEFINED> instruction: 39353530
    34fc:	31205f5f 			@ <UNDEFINED> instruction: 31205f5f
    3500:	4e495500 			@ <UNDEFINED> instruction: 4e495500
    3504:	41465f54 			@ <UNDEFINED> instruction: 41465f54
    3508:	5f385453 			@ <UNDEFINED> instruction: 5f385453
    350c:	2058414d 			@ <UNDEFINED> instruction: 2058414d
    3510:	555f5f28 			@ <UNDEFINED> instruction: 555f5f28
    3514:	5f544e49 			@ <UNDEFINED> instruction: 5f544e49
    3518:	54534146 			@ <UNDEFINED> instruction: 54534146
    351c:	414d5f38 			@ <UNDEFINED> instruction: 414d5f38
    3520:	295f5f58 			@ <UNDEFINED> instruction: 295f5f58
    3524:	555f5f00 			@ <UNDEFINED> instruction: 555f5f00
    3528:	43414c4c 	movtmi	r4, #7244	@ 0x1c4c
    352c:	5f4d5543 			@ <UNDEFINED> instruction: 5f4d5543
    3530:	49535045 			@ <UNDEFINED> instruction: 49535045
    3534:	5f4e4f4c 			@ <UNDEFINED> instruction: 5f4e4f4c
    3538:	7830205f 			@ <UNDEFINED> instruction: 7830205f
    353c:	332d5031 			@ <UNDEFINED> instruction: 332d5031
    3540:	4c4c5532 	mcrrmi	5, 3, r5, ip, cr2
    3544:	535f004b 			@ <UNDEFINED> instruction: 535f004b
    3548:	5f455a49 			@ <UNDEFINED> instruction: 5f455a49
    354c:	45445f54 			@ <UNDEFINED> instruction: 45445f54
    3550:	454e4946 			@ <UNDEFINED> instruction: 454e4946
    3554:	5f002044 			@ <UNDEFINED> instruction: 5f002044
    3558:	5f51445f 			@ <UNDEFINED> instruction: 5f51445f
    355c:	54494246 			@ <UNDEFINED> instruction: 54494246
    3560:	36205f5f 	qsaxcc	r5, r0, pc	@ <UNPREDICTABLE>
    3564:	5f5f0033 			@ <UNDEFINED> instruction: 5f5f0033
    3568:	5f554e47 			@ <UNDEFINED> instruction: 5f554e47
    356c:	49534956 			@ <UNDEFINED> instruction: 49534956
    3570:	20454c42 			@ <UNDEFINED> instruction: 20454c42
    3574:	5f5f0030 			@ <UNDEFINED> instruction: 5f5f0030
    3578:	43434153 	movtmi	r4, #12627	@ 0x3153
    357c:	495f4d55 			@ <UNDEFINED> instruction: 495f4d55
    3580:	5f544942 			@ <UNDEFINED> instruction: 5f544942
    3584:	0038205f 			@ <UNDEFINED> instruction: 0038205f
    3588:	54505f5f 			@ <UNDEFINED> instruction: 54505f5f
    358c:	46494452 			@ <UNDEFINED> instruction: 46494452
    3590:	20545f46 			@ <UNDEFINED> instruction: 20545f46
    3594:	555f5f00 			@ <UNDEFINED> instruction: 555f5f00
    3598:	495f5148 			@ <UNDEFINED> instruction: 495f5148
    359c:	5f544942 			@ <UNDEFINED> instruction: 5f544942
    35a0:	0030205f 			@ <UNDEFINED> instruction: 0030205f
    35a4:	4e495f5f 			@ <UNDEFINED> instruction: 4e495f5f
    35a8:	41465f54 			@ <UNDEFINED> instruction: 41465f54
    35ac:	36315453 			@ <UNDEFINED> instruction: 36315453
    35b0:	5059545f 			@ <UNDEFINED> instruction: 5059545f
    35b4:	205f5f45 			@ <UNDEFINED> instruction: 205f5f45
    35b8:	00746e69 			@ <UNDEFINED> instruction: 00746e69
    35bc:	4e49555f 			@ <UNDEFINED> instruction: 4e49555f
    35c0:	58414d54 			@ <UNDEFINED> instruction: 58414d54
    35c4:	445f545f 			@ <UNDEFINED> instruction: 445f545f
    35c8:	414c4345 			@ <UNDEFINED> instruction: 414c4345
    35cc:	20444552 			@ <UNDEFINED> instruction: 20444552
    35d0:	535f5f00 			@ <UNDEFINED> instruction: 535f5f00
    35d4:	55434341 			@ <UNDEFINED> instruction: 55434341
    35d8:	494d5f4d 			@ <UNDEFINED> instruction: 494d5f4d
    35dc:	205f5f4e 			@ <UNDEFINED> instruction: 205f5f4e
    35e0:	58302d28 			@ <UNDEFINED> instruction: 58302d28
    35e4:	48375031 			@ <UNDEFINED> instruction: 48375031
    35e8:	58302d4b 			@ <UNDEFINED> instruction: 58302d4b
    35ec:	48375031 			@ <UNDEFINED> instruction: 48375031
    35f0:	5f00294b 			@ <UNDEFINED> instruction: 5f00294b
    35f4:	464c555f 			@ <UNDEFINED> instruction: 464c555f
    35f8:	54434152 			@ <UNDEFINED> instruction: 54434152
    35fc:	58414d5f 			@ <UNDEFINED> instruction: 58414d5f
    3600:	30205f5f 			@ <UNDEFINED> instruction: 30205f5f
    3604:	46464658 			@ <UNDEFINED> instruction: 46464658
    3608:	46464646 			@ <UNDEFINED> instruction: 46464646
    360c:	332d5046 			@ <UNDEFINED> instruction: 332d5046
    3610:	524c5532 			@ <UNDEFINED> instruction: 524c5532
    3614:	555f5f00 			@ <UNDEFINED> instruction: 555f5f00
    3618:	5f544e49 			@ <UNDEFINED> instruction: 5f544e49
    361c:	5341454c 	movtpl	r4, #5452	@ 0x154c
    3620:	5f363154 			@ <UNDEFINED> instruction: 5f363154
    3624:	45505954 			@ <UNDEFINED> instruction: 45505954
    3628:	73205f5f 			@ <UNDEFINED> instruction: 73205f5f
    362c:	74726f68 			@ <UNDEFINED> instruction: 74726f68
    3630:	736e7520 			@ <UNDEFINED> instruction: 736e7520
    3634:	656e6769 			@ <UNDEFINED> instruction: 656e6769
    3638:	6e692064 			@ <UNDEFINED> instruction: 6e692064
    363c:	495f0074 			@ <UNDEFINED> instruction: 495f0074
    3640:	414d544e 			@ <UNDEFINED> instruction: 414d544e
    3644:	5f545f58 			@ <UNDEFINED> instruction: 5f545f58
    3648:	4c434544 	mcrrmi	5, 4, r4, r3, cr4
    364c:	44455241 			@ <UNDEFINED> instruction: 44455241
    3650:	5f5f0020 			@ <UNDEFINED> instruction: 5f5f0020
    3654:	4343414c 	movtmi	r4, #12620	@ 0x314c
    3658:	4d5f4d55 			@ <UNDEFINED> instruction: 4d5f4d55
    365c:	5f5f5841 			@ <UNDEFINED> instruction: 5f5f5841
    3660:	37583020 			@ <UNDEFINED> instruction: 37583020
    3664:	46464646 			@ <UNDEFINED> instruction: 46464646
    3668:	46464646 			@ <UNDEFINED> instruction: 46464646
    366c:	46464646 			@ <UNDEFINED> instruction: 46464646
    3670:	50464646 			@ <UNDEFINED> instruction: 50464646
    3674:	4c31332d 			@ <UNDEFINED> instruction: 4c31332d
    3678:	5f5f004b 			@ <UNDEFINED> instruction: 5f5f004b
    367c:	52414843 			@ <UNDEFINED> instruction: 52414843
    3680:	545f3631 			@ <UNDEFINED> instruction: 545f3631
    3684:	5f455059 			@ <UNDEFINED> instruction: 5f455059
    3688:	6873205f 			@ <UNDEFINED> instruction: 6873205f
    368c:	2074726f 			@ <UNDEFINED> instruction: 2074726f
    3690:	69736e75 			@ <UNDEFINED> instruction: 69736e75
    3694:	64656e67 			@ <UNDEFINED> instruction: 64656e67
    3698:	746e6920 			@ <UNDEFINED> instruction: 746e6920
    369c:	465f5f00 			@ <UNDEFINED> instruction: 465f5f00
    36a0:	3233544c 			@ <UNDEFINED> instruction: 3233544c
    36a4:	49445f58 			@ <UNDEFINED> instruction: 49445f58
    36a8:	205f5f47 			@ <UNDEFINED> instruction: 205f5f47
    36ac:	50003531 			@ <UNDEFINED> instruction: 50003531
    36b0:	5f4c4c55 			@ <UNDEFINED> instruction: 5f4c4c55
    36b4:	5f005055 			@ <UNDEFINED> instruction: 5f005055
    36b8:	5154555f 			@ <UNDEFINED> instruction: 5154555f
    36bc:	4942465f 			@ <UNDEFINED> instruction: 4942465f
    36c0:	205f5f54 			@ <UNDEFINED> instruction: 205f5f54
    36c4:	00383231 			@ <UNDEFINED> instruction: 00383231
    36c8:	534f505f 	movtpl	r5, #61535	@ 0xf05f
    36cc:	435f5849 			@ <UNDEFINED> instruction: 435f5849
    36d0:	554f535f 			@ <UNDEFINED> instruction: 554f535f
    36d4:	20454352 			@ <UNDEFINED> instruction: 20454352
    36d8:	34323032 			@ <UNDEFINED> instruction: 34323032
    36dc:	004c3530 			@ <UNDEFINED> instruction: 004c3530
    36e0:	4e495f5f 			@ <UNDEFINED> instruction: 4e495f5f
    36e4:	41465f54 			@ <UNDEFINED> instruction: 41465f54
    36e8:	36315453 			@ <UNDEFINED> instruction: 36315453
    36ec:	58414d5f 			@ <UNDEFINED> instruction: 58414d5f
    36f0:	30205f5f 			@ <UNDEFINED> instruction: 30205f5f
    36f4:	66663778 			@ <UNDEFINED> instruction: 66663778
    36f8:	66666666 			@ <UNDEFINED> instruction: 66666666
    36fc:	5f5f0066 			@ <UNDEFINED> instruction: 5f5f0066
    3700:	65766168 			@ <UNDEFINED> instruction: 65766168
    3704:	6e6f6c5f 			@ <UNDEFINED> instruction: 6e6f6c5f
    3708:	6e6f6c67 			@ <UNDEFINED> instruction: 6e6f6c67
    370c:	20343667 			@ <UNDEFINED> instruction: 20343667
    3710:	59530031 			@ <UNDEFINED> instruction: 59530031
    3714:	435f5453 			@ <UNDEFINED> instruction: 435f5453
    3718:	28205253 			@ <UNDEFINED> instruction: 28205253
    371c:	6f76282a 			@ <UNDEFINED> instruction: 6f76282a
    3720:	6974616c 			@ <UNDEFINED> instruction: 6974616c
    3724:	7520656c 			@ <UNDEFINED> instruction: 7520656c
    3728:	33746e69 			@ <UNDEFINED> instruction: 33746e69
    372c:	20745f32 			@ <UNDEFINED> instruction: 20745f32
    3730:	7830292a 			@ <UNDEFINED> instruction: 7830292a
    3734:	30303045 			@ <UNDEFINED> instruction: 30303045
    3738:	30313045 			@ <UNDEFINED> instruction: 30313045
    373c:	5f002955 			@ <UNDEFINED> instruction: 5f002955
    3740:	544e4955 			@ <UNDEFINED> instruction: 544e4955
    3744:	5f545f38 			@ <UNDEFINED> instruction: 5f545f38
    3748:	4c434544 	mcrrmi	5, 4, r4, r3, cr4
    374c:	44455241 			@ <UNDEFINED> instruction: 44455241
    3750:	555f0020 			@ <UNDEFINED> instruction: 555f0020
    3754:	50544e49 			@ <UNDEFINED> instruction: 50544e49
    3758:	545f5254 			@ <UNDEFINED> instruction: 545f5254
    375c:	4345445f 	movtmi	r4, #21599	@ 0x545f
    3760:	4552414c 			@ <UNDEFINED> instruction: 4552414c
    3764:	5f002044 			@ <UNDEFINED> instruction: 5f002044
    3768:	41484357 			@ <UNDEFINED> instruction: 41484357
    376c:	5f545f52 			@ <UNDEFINED> instruction: 5f545f52
    3770:	49464544 			@ <UNDEFINED> instruction: 49464544
    3774:	2044454e 			@ <UNDEFINED> instruction: 2044454e
    3778:	555f5f00 			@ <UNDEFINED> instruction: 555f5f00
    377c:	4343414c 	movtmi	r4, #12620	@ 0x314c
    3780:	4d5f4d55 			@ <UNDEFINED> instruction: 4d5f4d55
    3784:	5f5f5841 			@ <UNDEFINED> instruction: 5f5f5841
    3788:	46583020 			@ <UNDEFINED> instruction: 46583020
    378c:	46464646 			@ <UNDEFINED> instruction: 46464646
    3790:	46464646 			@ <UNDEFINED> instruction: 46464646
    3794:	46464646 			@ <UNDEFINED> instruction: 46464646
    3798:	50464646 			@ <UNDEFINED> instruction: 50464646
    379c:	5532332d 			@ <UNDEFINED> instruction: 5532332d
    37a0:	5f004b4c 			@ <UNDEFINED> instruction: 5f004b4c
    37a4:	464c555f 			@ <UNDEFINED> instruction: 464c555f
    37a8:	54434152 			@ <UNDEFINED> instruction: 54434152
    37ac:	4e494d5f 			@ <UNDEFINED> instruction: 4e494d5f
    37b0:	30205f5f 			@ <UNDEFINED> instruction: 30205f5f
    37b4:	4c55302e 	mrrcmi	0, 2, r3, r5, cr14
    37b8:	43520052 			@ <UNDEFINED> instruction: 43520052
    37bc:	50415f43 			@ <UNDEFINED> instruction: 50415f43
    37c0:	525f3142 			@ <UNDEFINED> instruction: 525f3142
    37c4:	28205453 			@ <UNDEFINED> instruction: 28205453
    37c8:	6f76282a 			@ <UNDEFINED> instruction: 6f76282a
    37cc:	6974616c 			@ <UNDEFINED> instruction: 6974616c
    37d0:	7520656c 			@ <UNDEFINED> instruction: 7520656c
    37d4:	33746e69 			@ <UNDEFINED> instruction: 33746e69
    37d8:	20745f32 			@ <UNDEFINED> instruction: 20745f32
    37dc:	5228292a 			@ <UNDEFINED> instruction: 5228292a
    37e0:	425f4343 			@ <UNDEFINED> instruction: 425f4343
    37e4:	20455341 			@ <UNDEFINED> instruction: 20455341
    37e8:	4352202b 			@ <UNDEFINED> instruction: 4352202b
    37ec:	50415f43 			@ <UNDEFINED> instruction: 50415f43
    37f0:	525f3142 			@ <UNDEFINED> instruction: 525f3142
    37f4:	4f5f5453 			@ <UNDEFINED> instruction: 4f5f5453
    37f8:	45534646 			@ <UNDEFINED> instruction: 45534646
    37fc:	00292954 			@ <UNDEFINED> instruction: 00292954
    3800:	455a4953 			@ <UNDEFINED> instruction: 455a4953
    3804:	58414d5f 			@ <UNDEFINED> instruction: 58414d5f
    3808:	5f5f2820 			@ <UNDEFINED> instruction: 5f5f2820
    380c:	455a4953 			@ <UNDEFINED> instruction: 455a4953
    3810:	58414d5f 			@ <UNDEFINED> instruction: 58414d5f
    3814:	00295f5f 			@ <UNDEFINED> instruction: 00295f5f
    3818:	51445f5f 			@ <UNDEFINED> instruction: 51445f5f
    381c:	4942495f 			@ <UNDEFINED> instruction: 4942495f
    3820:	205f5f54 			@ <UNDEFINED> instruction: 205f5f54
    3824:	6c670030 			@ <UNDEFINED> instruction: 6c670030
    3828:	6c61626f 			@ <UNDEFINED> instruction: 6c61626f
    382c:	696e695f 			@ <UNDEFINED> instruction: 696e695f
    3830:	5f5f0074 			@ <UNDEFINED> instruction: 5f5f0074
    3834:	5f4d5241 			@ <UNDEFINED> instruction: 5f4d5241
    3838:	36314642 			@ <UNDEFINED> instruction: 36314642
    383c:	524f465f 			@ <UNDEFINED> instruction: 524f465f
    3840:	5f54414d 			@ <UNDEFINED> instruction: 5f54414d
    3844:	45544c41 			@ <UNDEFINED> instruction: 45544c41
    3848:	54414e52 			@ <UNDEFINED> instruction: 54414e52
    384c:	00455649 			@ <UNDEFINED> instruction: 00455649
    3850:	4e495f5f 			@ <UNDEFINED> instruction: 4e495f5f
    3854:	5f323354 			@ <UNDEFINED> instruction: 5f323354
    3858:	45505954 			@ <UNDEFINED> instruction: 45505954
    385c:	6c205f5f 			@ <UNDEFINED> instruction: 6c205f5f
    3860:	20676e6f 			@ <UNDEFINED> instruction: 20676e6f
    3864:	00746e69 			@ <UNDEFINED> instruction: 00746e69
    3868:	54524f50 			@ <UNDEFINED> instruction: 54524f50
    386c:	4f500045 			@ <UNDEFINED> instruction: 4f500045
    3870:	00465452 			@ <UNDEFINED> instruction: 00465452
    3874:	4453425f 			@ <UNDEFINED> instruction: 4453425f
    3878:	5a49535f 			@ <UNDEFINED> instruction: 5a49535f
    387c:	5f545f45 			@ <UNDEFINED> instruction: 5f545f45
    3880:	5f5f0020 			@ <UNDEFINED> instruction: 5f5f0020
    3884:	32746e69 			@ <UNDEFINED> instruction: 32746e69
    3888:	205f5f30 			@ <UNDEFINED> instruction: 205f5f30
    388c:	5f00322b 			@ <UNDEFINED> instruction: 5f00322b
    3890:	36544e49 			@ <UNDEFINED> instruction: 36544e49
    3894:	5f545f34 			@ <UNDEFINED> instruction: 5f545f34
    3898:	4c434544 	mcrrmi	5, 4, r4, r3, cr4
    389c:	44455241 			@ <UNDEFINED> instruction: 44455241
    38a0:	545f0020 			@ <UNDEFINED> instruction: 545f0020
    38a4:	4843575f 			@ <UNDEFINED> instruction: 4843575f
    38a8:	00205241 			@ <UNDEFINED> instruction: 00205241
    38ac:	4f495047 			@ <UNDEFINED> instruction: 4f495047
    38b0:	524f505f 			@ <UNDEFINED> instruction: 524f505f
    38b4:	4f5f4754 			@ <UNDEFINED> instruction: 4f5f4754
    38b8:	45534646 			@ <UNDEFINED> instruction: 45534646
    38bc:	78302054 			@ <UNDEFINED> instruction: 78302054
    38c0:	30303831 			@ <UNDEFINED> instruction: 30303831
    38c4:	5f5f0055 			@ <UNDEFINED> instruction: 5f5f0055
    38c8:	5f515455 			@ <UNDEFINED> instruction: 5f515455
    38cc:	54494249 			@ <UNDEFINED> instruction: 54494249
    38d0:	30205f5f 			@ <UNDEFINED> instruction: 30205f5f
    38d4:	535f5f00 			@ <UNDEFINED> instruction: 535f5f00
    38d8:	42465f41 			@ <UNDEFINED> instruction: 42465f41
    38dc:	5f5f5449 			@ <UNDEFINED> instruction: 5f5f5449
    38e0:	00353120 			@ <UNDEFINED> instruction: 00353120
    38e4:	4e495f5f 			@ <UNDEFINED> instruction: 4e495f5f
    38e8:	43575f54 			@ <UNDEFINED> instruction: 43575f54
    38ec:	5f524148 			@ <UNDEFINED> instruction: 5f524148
    38f0:	20485f54 			@ <UNDEFINED> instruction: 20485f54
    38f4:	465f5f00 			@ <UNDEFINED> instruction: 465f5f00
    38f8:	3233544c 			@ <UNDEFINED> instruction: 3233544c
    38fc:	414d5f58 			@ <UNDEFINED> instruction: 414d5f58
    3900:	205f5f58 			@ <UNDEFINED> instruction: 205f5f58
    3904:	39372e31 			@ <UNDEFINED> instruction: 39372e31
    3908:	33393637 			@ <UNDEFINED> instruction: 33393637
    390c:	38343331 			@ <UNDEFINED> instruction: 38343331
    3910:	31333236 			@ <UNDEFINED> instruction: 31333236
    3914:	2b653735 			@ <UNDEFINED> instruction: 2b653735
    3918:	46383033 			@ <UNDEFINED> instruction: 46383033
    391c:	00783233 			@ <UNDEFINED> instruction: 00783233
    3920:	4e45504f 			@ <UNDEFINED> instruction: 4e45504f
    3924:	4152445f 			@ <UNDEFINED> instruction: 4152445f
    3928:	5f004e49 			@ <UNDEFINED> instruction: 5f004e49
    392c:	4d52415f 			@ <UNDEFINED> instruction: 4d52415f
    3930:	4241455f 			@ <UNDEFINED> instruction: 4241455f
    3934:	205f5f49 			@ <UNDEFINED> instruction: 205f5f49
    3938:	48540031 			@ <UNDEFINED> instruction: 48540031
    393c:	44414552 			@ <UNDEFINED> instruction: 44414552
    3940:	0020485f 			@ <UNDEFINED> instruction: 0020485f
    3944:	4c465f5f 	mcrrmi	15, 5, r5, r6, cr15
    3948:	53495f54 	movtpl	r5, #40788	@ 0x9f54
    394c:	4345495f 	movtmi	r4, #22879	@ 0x595f
    3950:	3530365f 			@ <UNDEFINED> instruction: 3530365f
    3954:	5f5f3935 			@ <UNDEFINED> instruction: 5f5f3935
    3958:	49003120 			@ <UNDEFINED> instruction: 49003120
    395c:	3233544e 			@ <UNDEFINED> instruction: 3233544e
    3960:	4e494d5f 			@ <UNDEFINED> instruction: 4e494d5f
    3964:	5f2d2820 			@ <UNDEFINED> instruction: 5f2d2820
    3968:	544e495f 			@ <UNDEFINED> instruction: 544e495f
    396c:	4d5f3233 			@ <UNDEFINED> instruction: 4d5f3233
    3970:	5f5f5841 			@ <UNDEFINED> instruction: 5f5f5841
    3974:	31202d20 			@ <UNDEFINED> instruction: 31202d20
    3978:	5f5f0029 			@ <UNDEFINED> instruction: 5f5f0029
    397c:	4d554854 			@ <UNDEFINED> instruction: 4d554854
    3980:	5f4c4542 			@ <UNDEFINED> instruction: 5f4c4542
    3984:	0031205f 			@ <UNDEFINED> instruction: 0031205f
    3988:	52415f5f 			@ <UNDEFINED> instruction: 52415f5f
    398c:	45465f4d 			@ <UNDEFINED> instruction: 45465f4d
    3990:	52555441 			@ <UNDEFINED> instruction: 52555441
    3994:	53445f45 	movtpl	r5, #20293	@ 0x4f45
    3998:	00312050 			@ <UNDEFINED> instruction: 00312050
    399c:	51515f5f 			@ <UNDEFINED> instruction: 51515f5f
    39a0:	4942495f 			@ <UNDEFINED> instruction: 4942495f
    39a4:	205f5f54 			@ <UNDEFINED> instruction: 205f5f54
    39a8:	544f0030 			@ <UNDEFINED> instruction: 544f0030
    39ac:	52455059 			@ <UNDEFINED> instruction: 52455059
    39b0:	4e495500 			@ <UNDEFINED> instruction: 4e495500
    39b4:	5f343654 			@ <UNDEFINED> instruction: 5f343654
    39b8:	29782843 			@ <UNDEFINED> instruction: 29782843
    39bc:	555f5f20 			@ <UNDEFINED> instruction: 555f5f20
    39c0:	36544e49 			@ <UNDEFINED> instruction: 36544e49
    39c4:	28435f34 			@ <UNDEFINED> instruction: 28435f34
    39c8:	5f002978 			@ <UNDEFINED> instruction: 5f002978
    39cc:	414c4c5f 			@ <UNDEFINED> instruction: 414c4c5f
    39d0:	4d554343 			@ <UNDEFINED> instruction: 4d554343
    39d4:	4942465f 			@ <UNDEFINED> instruction: 4942465f
    39d8:	205f5f54 			@ <UNDEFINED> instruction: 205f5f54
    39dc:	5f003133 			@ <UNDEFINED> instruction: 5f003133
    39e0:	544c465f 			@ <UNDEFINED> instruction: 544c465f
    39e4:	5f583233 			@ <UNDEFINED> instruction: 5f583233
    39e8:	5f4e494d 			@ <UNDEFINED> instruction: 5f4e494d
    39ec:	455f3031 			@ <UNDEFINED> instruction: 455f3031
    39f0:	5f5f5058 			@ <UNDEFINED> instruction: 5f5f5058
    39f4:	332d2820 			@ <UNDEFINED> instruction: 332d2820
    39f8:	00293730 			@ <UNDEFINED> instruction: 00293730
    39fc:	544e4955 			@ <UNDEFINED> instruction: 544e4955
    3a00:	41454c5f 			@ <UNDEFINED> instruction: 41454c5f
    3a04:	5f385453 			@ <UNDEFINED> instruction: 5f385453
    3a08:	2058414d 			@ <UNDEFINED> instruction: 2058414d
    3a0c:	555f5f28 			@ <UNDEFINED> instruction: 555f5f28
    3a10:	5f544e49 			@ <UNDEFINED> instruction: 5f544e49
    3a14:	5341454c 	movtpl	r4, #5452	@ 0x154c
    3a18:	4d5f3854 			@ <UNDEFINED> instruction: 4d5f3854
    3a1c:	5f5f5841 			@ <UNDEFINED> instruction: 5f5f5841
    3a20:	5f5f0029 			@ <UNDEFINED> instruction: 5f5f0029
    3a24:	5f515355 			@ <UNDEFINED> instruction: 5f515355
    3a28:	54494249 			@ <UNDEFINED> instruction: 54494249
    3a2c:	30205f5f 			@ <UNDEFINED> instruction: 30205f5f
    3a30:	475f5f00 			@ <UNDEFINED> instruction: 475f5f00
    3a34:	5f43554e 			@ <UNDEFINED> instruction: 5f43554e
    3a38:	4f4e494d 			@ <UNDEFINED> instruction: 4f4e494d
    3a3c:	205f5f52 			@ <UNDEFINED> instruction: 205f5f52
    3a40:	5f5f0033 			@ <UNDEFINED> instruction: 5f5f0033
    3a44:	544e4955 			@ <UNDEFINED> instruction: 544e4955
    3a48:	41454c5f 			@ <UNDEFINED> instruction: 41454c5f
    3a4c:	32335453 			@ <UNDEFINED> instruction: 32335453
    3a50:	5059545f 			@ <UNDEFINED> instruction: 5059545f
    3a54:	205f5f45 			@ <UNDEFINED> instruction: 205f5f45
    3a58:	676e6f6c 			@ <UNDEFINED> instruction: 676e6f6c
    3a5c:	736e7520 			@ <UNDEFINED> instruction: 736e7520
    3a60:	656e6769 			@ <UNDEFINED> instruction: 656e6769
    3a64:	6e692064 			@ <UNDEFINED> instruction: 6e692064
    3a68:	5f5f0074 			@ <UNDEFINED> instruction: 5f5f0074
    3a6c:	5f4d5241 			@ <UNDEFINED> instruction: 5f4d5241
    3a70:	54414546 			@ <UNDEFINED> instruction: 54414546
    3a74:	5f455255 			@ <UNDEFINED> instruction: 5f455255
    3a78:	454d554e 			@ <UNDEFINED> instruction: 454d554e
    3a7c:	5f434952 			@ <UNDEFINED> instruction: 5f434952
    3a80:	4d58414d 			@ <UNDEFINED> instruction: 4d58414d
    3a84:	5f004e49 			@ <UNDEFINED> instruction: 5f004e49
    3a88:	544e495f 			@ <UNDEFINED> instruction: 544e495f
    3a8c:	5f58414d 			@ <UNDEFINED> instruction: 5f58414d
    3a90:	45505954 			@ <UNDEFINED> instruction: 45505954
    3a94:	6c205f5f 			@ <UNDEFINED> instruction: 6c205f5f
    3a98:	20676e6f 			@ <UNDEFINED> instruction: 20676e6f
    3a9c:	676e6f6c 			@ <UNDEFINED> instruction: 676e6f6c
    3aa0:	746e6920 			@ <UNDEFINED> instruction: 746e6920
    3aa4:	475f5f00 			@ <UNDEFINED> instruction: 475f5f00
    3aa8:	415f4343 			@ <UNDEFINED> instruction: 415f4343
    3aac:	494d4f54 			@ <UNDEFINED> instruction: 494d4f54
    3ab0:	4e495f43 			@ <UNDEFINED> instruction: 4e495f43
    3ab4:	4f4c5f54 			@ <UNDEFINED> instruction: 4f4c5f54
    3ab8:	465f4b43 			@ <UNDEFINED> instruction: 465f4b43
    3abc:	20454552 			@ <UNDEFINED> instruction: 20454552
    3ac0:	43530032 			@ <UNDEFINED> instruction: 43530032
    3ac4:	43495f42 	movtmi	r5, #40770	@ 0x9f42
    3ac8:	505f5253 			@ <UNDEFINED> instruction: 505f5253
    3acc:	53444e45 	movtpl	r4, #20037	@ 0x4e45
    3ad0:	54455356 			@ <UNDEFINED> instruction: 54455356
    3ad4:	6b734d5f 			@ <UNDEFINED> instruction: 6b734d5f
    3ad8:	55312820 			@ <UNDEFINED> instruction: 55312820
    3adc:	3c3c204c 			@ <UNDEFINED> instruction: 3c3c204c
    3ae0:	29383220 			@ <UNDEFINED> instruction: 29383220
    3ae4:	4c555000 	mrrcmi	0, 0, r5, r5, cr0	@ <UNPREDICTABLE>
    3ae8:	4f445f4c 			@ <UNDEFINED> instruction: 4f445f4c
    3aec:	5f004e57 			@ <UNDEFINED> instruction: 5f004e57
    3af0:	5f434347 			@ <UNDEFINED> instruction: 5f434347
    3af4:	5f58414d 			@ <UNDEFINED> instruction: 5f58414d
    3af8:	47494c41 			@ <UNDEFINED> instruction: 47494c41
    3afc:	20545f4e 			@ <UNDEFINED> instruction: 20545f4e
    3b00:	415f5f00 			@ <UNDEFINED> instruction: 415f5f00
    3b04:	415f4d52 			@ <UNDEFINED> instruction: 415f4d52
    3b08:	5f484352 			@ <UNDEFINED> instruction: 5f484352
    3b0c:	5f4d4537 			@ <UNDEFINED> instruction: 5f4d4537
    3b10:	0031205f 			@ <UNDEFINED> instruction: 0031205f
    3b14:	52415f5f 			@ <UNDEFINED> instruction: 52415f5f
    3b18:	45465f4d 			@ <UNDEFINED> instruction: 45465f4d
    3b1c:	52555441 			@ <UNDEFINED> instruction: 52555441
    3b20:	50465f45 			@ <UNDEFINED> instruction: 50465f45
    3b24:	535f3631 			@ <UNDEFINED> instruction: 535f3631
    3b28:	414c4143 			@ <UNDEFINED> instruction: 414c4143
    3b2c:	52415f52 			@ <UNDEFINED> instruction: 52415f52
    3b30:	4d485449 			@ <UNDEFINED> instruction: 4d485449
    3b34:	43495445 	movtmi	r5, #37957	@ 0x9445
    3b38:	555f5f00 			@ <UNDEFINED> instruction: 555f5f00
    3b3c:	43434153 	movtmi	r4, #12627	@ 0x3153
    3b40:	455f4d55 			@ <UNDEFINED> instruction: 455f4d55
    3b44:	4c495350 	mcrrmi	3, 5, r5, r9, cr0
    3b48:	5f5f4e4f 			@ <UNDEFINED> instruction: 5f5f4e4f
    3b4c:	31783020 			@ <UNDEFINED> instruction: 31783020
    3b50:	55382d50 			@ <UNDEFINED> instruction: 55382d50
    3b54:	5f004b48 			@ <UNDEFINED> instruction: 5f004b48
    3b58:	4c42445f 	mcrrmi	4, 5, r4, r2, cr15
    3b5c:	5341485f 	movtpl	r4, #6239	@ 0x185f
    3b60:	4955515f 			@ <UNDEFINED> instruction: 4955515f
    3b64:	4e5f5445 			@ <UNDEFINED> instruction: 4e5f5445
    3b68:	5f5f4e41 			@ <UNDEFINED> instruction: 5f5f4e41
    3b6c:	49003120 			@ <UNDEFINED> instruction: 49003120
    3b70:	3233544e 			@ <UNDEFINED> instruction: 3233544e
    3b74:	7828435f 			@ <UNDEFINED> instruction: 7828435f
    3b78:	5f5f2029 			@ <UNDEFINED> instruction: 5f5f2029
    3b7c:	33544e49 			@ <UNDEFINED> instruction: 33544e49
    3b80:	28435f32 			@ <UNDEFINED> instruction: 28435f32
    3b84:	55002978 			@ <UNDEFINED> instruction: 55002978
    3b88:	5f544e49 			@ <UNDEFINED> instruction: 5f544e49
    3b8c:	54534146 			@ <UNDEFINED> instruction: 54534146
    3b90:	4d5f3631 			@ <UNDEFINED> instruction: 4d5f3631
    3b94:	28205841 			@ <UNDEFINED> instruction: 28205841
    3b98:	49555f5f 			@ <UNDEFINED> instruction: 49555f5f
    3b9c:	465f544e 			@ <UNDEFINED> instruction: 465f544e
    3ba0:	31545341 			@ <UNDEFINED> instruction: 31545341
    3ba4:	414d5f36 			@ <UNDEFINED> instruction: 414d5f36
    3ba8:	295f5f58 			@ <UNDEFINED> instruction: 295f5f58
    3bac:	4c5f5f00 	mrrcmi	15, 0, r5, pc, cr0	@ <UNPREDICTABLE>
    3bb0:	4152464c 			@ <UNDEFINED> instruction: 4152464c
    3bb4:	4d5f5443 			@ <UNDEFINED> instruction: 4d5f5443
    3bb8:	5f5f5841 			@ <UNDEFINED> instruction: 5f5f5841
    3bbc:	37583020 			@ <UNDEFINED> instruction: 37583020
    3bc0:	46464646 			@ <UNDEFINED> instruction: 46464646
    3bc4:	46464646 			@ <UNDEFINED> instruction: 46464646
    3bc8:	46464646 			@ <UNDEFINED> instruction: 46464646
    3bcc:	50464646 			@ <UNDEFINED> instruction: 50464646
    3bd0:	4c33362d 			@ <UNDEFINED> instruction: 4c33362d
    3bd4:	5500524c 			@ <UNDEFINED> instruction: 5500524c
    3bd8:	5f544e49 			@ <UNDEFINED> instruction: 5f544e49
    3bdc:	5341454c 	movtpl	r4, #5452	@ 0x154c
    3be0:	5f323354 			@ <UNDEFINED> instruction: 5f323354
    3be4:	2058414d 			@ <UNDEFINED> instruction: 2058414d
    3be8:	555f5f28 			@ <UNDEFINED> instruction: 555f5f28
    3bec:	5f544e49 			@ <UNDEFINED> instruction: 5f544e49
    3bf0:	5341454c 	movtpl	r4, #5452	@ 0x154c
    3bf4:	5f323354 			@ <UNDEFINED> instruction: 5f323354
    3bf8:	5f58414d 			@ <UNDEFINED> instruction: 5f58414d
    3bfc:	4700295f 	smlsdmi	r0, pc, r9, r2	@ <UNPREDICTABLE>
    3c00:	5f4f4950 			@ <UNDEFINED> instruction: 5f4f4950
    3c04:	006e6950 			@ <UNDEFINED> instruction: 006e6950
    3c08:	72616863 			@ <UNDEFINED> instruction: 72616863
    3c0c:	00302b20 			@ <UNDEFINED> instruction: 00302b20
    3c10:	4e495f5f 			@ <UNDEFINED> instruction: 4e495f5f
    3c14:	52545054 			@ <UNDEFINED> instruction: 52545054
    3c18:	5059545f 			@ <UNDEFINED> instruction: 5059545f
    3c1c:	205f5f45 			@ <UNDEFINED> instruction: 205f5f45
    3c20:	00746e69 			@ <UNDEFINED> instruction: 00746e69
    3c24:	49555f5f 			@ <UNDEFINED> instruction: 49555f5f
    3c28:	5450544e 			@ <UNDEFINED> instruction: 5450544e
    3c2c:	59545f52 			@ <UNDEFINED> instruction: 59545f52
    3c30:	5f5f4550 			@ <UNDEFINED> instruction: 5f5f4550
    3c34:	736e7520 			@ <UNDEFINED> instruction: 736e7520
    3c38:	656e6769 			@ <UNDEFINED> instruction: 656e6769
    3c3c:	6e692064 			@ <UNDEFINED> instruction: 6e692064
    3c40:	5f5f0074 			@ <UNDEFINED> instruction: 5f5f0074
    3c44:	52464c55 			@ <UNDEFINED> instruction: 52464c55
    3c48:	5f544341 			@ <UNDEFINED> instruction: 5f544341
    3c4c:	49535045 			@ <UNDEFINED> instruction: 49535045
    3c50:	5f4e4f4c 			@ <UNDEFINED> instruction: 5f4e4f4c
    3c54:	7830205f 			@ <UNDEFINED> instruction: 7830205f
    3c58:	332d5031 			@ <UNDEFINED> instruction: 332d5031
    3c5c:	524c5532 			@ <UNDEFINED> instruction: 524c5532
    3c60:	525f5f00 			@ <UNDEFINED> instruction: 525f5f00
    3c64:	53494745 	movtpl	r4, #38725	@ 0x9745
    3c68:	5f524554 			@ <UNDEFINED> instruction: 5f524554
    3c6c:	46455250 			@ <UNDEFINED> instruction: 46455250
    3c70:	5f5f5849 			@ <UNDEFINED> instruction: 5f5f5849
    3c74:	5f5f0020 			@ <UNDEFINED> instruction: 5f5f0020
    3c78:	33544c46 			@ <UNDEFINED> instruction: 33544c46
    3c7c:	414d5f32 			@ <UNDEFINED> instruction: 414d5f32
    3c80:	205f5f58 			@ <UNDEFINED> instruction: 205f5f58
    3c84:	30342e33 			@ <UNDEFINED> instruction: 30342e33
    3c88:	33323832 			@ <UNDEFINED> instruction: 33323832
    3c8c:	33363634 			@ <UNDEFINED> instruction: 33363634
    3c90:	38323538 			@ <UNDEFINED> instruction: 38323538
    3c94:	2b653638 			@ <UNDEFINED> instruction: 2b653638
    3c98:	33463833 	movtcc	r3, #26675	@ 0x6833
    3c9c:	5f5f0032 			@ <UNDEFINED> instruction: 5f5f0032
    3ca0:	5f4c4244 			@ <UNDEFINED> instruction: 5f4c4244
    3ca4:	5f474944 			@ <UNDEFINED> instruction: 5f474944
    3ca8:	3531205f 			@ <UNDEFINED> instruction: 3531205f
    3cac:	49555f00 			@ <UNDEFINED> instruction: 49555f00
    3cb0:	3631544e 			@ <UNDEFINED> instruction: 3631544e
    3cb4:	445f545f 			@ <UNDEFINED> instruction: 445f545f
    3cb8:	414c4345 			@ <UNDEFINED> instruction: 414c4345
    3cbc:	20444552 			@ <UNDEFINED> instruction: 20444552
    3cc0:	415f5f00 			@ <UNDEFINED> instruction: 415f5f00
    3cc4:	465f4d52 			@ <UNDEFINED> instruction: 465f4d52
    3cc8:	55544145 			@ <UNDEFINED> instruction: 55544145
    3ccc:	505f4552 			@ <UNDEFINED> instruction: 505f4552
    3cd0:	445f4341 			@ <UNDEFINED> instruction: 445f4341
    3cd4:	55414645 			@ <UNDEFINED> instruction: 55414645
    3cd8:	5f00544c 			@ <UNDEFINED> instruction: 5f00544c
    3cdc:	5a49535f 			@ <UNDEFINED> instruction: 5a49535f
    3ce0:	5f464f45 			@ <UNDEFINED> instruction: 5f464f45
    3ce4:	455a4953 			@ <UNDEFINED> instruction: 455a4953
    3ce8:	5f5f545f 			@ <UNDEFINED> instruction: 5f5f545f
    3cec:	75003420 			@ <UNDEFINED> instruction: 75003420
    3cf0:	6165726e 			@ <UNDEFINED> instruction: 6165726e
    3cf4:	62616863 			@ <UNDEFINED> instruction: 62616863
    3cf8:	2928656c 			@ <UNDEFINED> instruction: 2928656c
    3cfc:	5f5f2820 			@ <UNDEFINED> instruction: 5f5f2820
    3d00:	6c697562 			@ <UNDEFINED> instruction: 6c697562
    3d04:	5f6e6974 			@ <UNDEFINED> instruction: 5f6e6974
    3d08:	65726e75 			@ <UNDEFINED> instruction: 65726e75
    3d0c:	61686361 			@ <UNDEFINED> instruction: 61686361
    3d10:	20656c62 			@ <UNDEFINED> instruction: 20656c62
    3d14:	00292928 			@ <UNDEFINED> instruction: 00292928
    3d18:	49555f5f 			@ <UNDEFINED> instruction: 49555f5f
    3d1c:	3436544e 			@ <UNDEFINED> instruction: 3436544e
    3d20:	5059545f 			@ <UNDEFINED> instruction: 5059545f
    3d24:	205f5f45 			@ <UNDEFINED> instruction: 205f5f45
    3d28:	676e6f6c 			@ <UNDEFINED> instruction: 676e6f6c
    3d2c:	6e6f6c20 			@ <UNDEFINED> instruction: 6e6f6c20
    3d30:	6e752067 			@ <UNDEFINED> instruction: 6e752067
    3d34:	6e676973 			@ <UNDEFINED> instruction: 6e676973
    3d38:	69206465 			@ <UNDEFINED> instruction: 69206465
    3d3c:	5f00746e 			@ <UNDEFINED> instruction: 5f00746e
    3d40:	544e495f 			@ <UNDEFINED> instruction: 544e495f
    3d44:	435f3436 			@ <UNDEFINED> instruction: 435f3436
    3d48:	20296328 			@ <UNDEFINED> instruction: 20296328
    3d4c:	23232063 			@ <UNDEFINED> instruction: 23232063
    3d50:	004c4c20 			@ <UNDEFINED> instruction: 004c4c20
    3d54:	4f495047 			@ <UNDEFINED> instruction: 4f495047
    3d58:	524f505f 			@ <UNDEFINED> instruction: 524f505f
    3d5c:	4f5f4254 			@ <UNDEFINED> instruction: 4f5f4254
    3d60:	45534646 			@ <UNDEFINED> instruction: 45534646
    3d64:	78302054 			@ <UNDEFINED> instruction: 78302054
    3d68:	30303430 			@ <UNDEFINED> instruction: 30303430
    3d6c:	6f700055 			@ <UNDEFINED> instruction: 6f700055
    3d70:	5f007472 			@ <UNDEFINED> instruction: 5f007472
    3d74:	4e4f4c5f 			@ <UNDEFINED> instruction: 4e4f4c5f
    3d78:	414d5f47 			@ <UNDEFINED> instruction: 414d5f47
    3d7c:	205f5f58 			@ <UNDEFINED> instruction: 205f5f58
    3d80:	66377830 			@ <UNDEFINED> instruction: 66377830
    3d84:	66666666 			@ <UNDEFINED> instruction: 66666666
    3d88:	004c6666 			@ <UNDEFINED> instruction: 004c6666
    3d8c:	52415f5f 			@ <UNDEFINED> instruction: 52415f5f
    3d90:	45465f4d 			@ <UNDEFINED> instruction: 45465f4d
    3d94:	52555441 			@ <UNDEFINED> instruction: 52555441
    3d98:	44435f45 			@ <UNDEFINED> instruction: 44435f45
    3d9c:	5f5f0045 			@ <UNDEFINED> instruction: 5f5f0045
    3da0:	55434341 			@ <UNDEFINED> instruction: 55434341
    3da4:	42495f4d 			@ <UNDEFINED> instruction: 42495f4d
    3da8:	5f5f5449 			@ <UNDEFINED> instruction: 5f5f5449
    3dac:	00363120 			@ <UNDEFINED> instruction: 00363120
    3db0:	69736e75 			@ <UNDEFINED> instruction: 69736e75
    3db4:	64656e67 			@ <UNDEFINED> instruction: 64656e67
    3db8:	6c757000 			@ <UNDEFINED> instruction: 6c757000
    3dbc:	5f5f006c 			@ <UNDEFINED> instruction: 5f5f006c
    3dc0:	5f434347 			@ <UNDEFINED> instruction: 5f434347
    3dc4:	54534544 			@ <UNDEFINED> instruction: 54534544
    3dc8:	54435552 			@ <UNDEFINED> instruction: 54435552
    3dcc:	5f455649 			@ <UNDEFINED> instruction: 5f455649
    3dd0:	455a4953 			@ <UNDEFINED> instruction: 455a4953
    3dd4:	00343620 			@ <UNDEFINED> instruction: 00343620
    3dd8:	44505550 			@ <UNDEFINED> instruction: 44505550
    3ddc:	5f5f0052 			@ <UNDEFINED> instruction: 5f5f0052
    3de0:	544e4955 			@ <UNDEFINED> instruction: 544e4955
    3de4:	435f3631 			@ <UNDEFINED> instruction: 435f3631
    3de8:	20296328 			@ <UNDEFINED> instruction: 20296328
    3dec:	5f5f0063 			@ <UNDEFINED> instruction: 5f5f0063
    3df0:	5f414455 			@ <UNDEFINED> instruction: 5f414455
    3df4:	54494249 			@ <UNDEFINED> instruction: 54494249
    3df8:	33205f5f 			@ <UNDEFINED> instruction: 33205f5f
    3dfc:	6f6d0032 			@ <UNDEFINED> instruction: 6f6d0032
    3e00:	5f006564 			@ <UNDEFINED> instruction: 5f006564
    3e04:	5f4f4e5f 			@ <UNDEFINED> instruction: 5f4f4e5f
    3e08:	494c4e49 			@ <UNDEFINED> instruction: 494c4e49
    3e0c:	5f5f454e 			@ <UNDEFINED> instruction: 5f5f454e
    3e10:	49003120 			@ <UNDEFINED> instruction: 49003120
    3e14:	3436544e 			@ <UNDEFINED> instruction: 3436544e
    3e18:	4e494d5f 			@ <UNDEFINED> instruction: 4e494d5f
    3e1c:	5f2d2820 			@ <UNDEFINED> instruction: 5f2d2820
    3e20:	544e495f 			@ <UNDEFINED> instruction: 544e495f
    3e24:	4d5f3436 			@ <UNDEFINED> instruction: 4d5f3436
    3e28:	5f5f5841 			@ <UNDEFINED> instruction: 5f5f5841
    3e2c:	31202d20 			@ <UNDEFINED> instruction: 31202d20
    3e30:	46410029 			@ <UNDEFINED> instruction: 46410029
    3e34:	5059545f 			@ <UNDEFINED> instruction: 5059545f
    3e38:	5f5f0045 			@ <UNDEFINED> instruction: 5f5f0045
    3e3c:	4d4f5441 			@ <UNDEFINED> instruction: 4d4f5441
    3e40:	525f4349 			@ <UNDEFINED> instruction: 525f4349
    3e44:	58414c45 			@ <UNDEFINED> instruction: 58414c45
    3e48:	30204445 			@ <UNDEFINED> instruction: 30204445
    3e4c:	415f5f00 			@ <UNDEFINED> instruction: 415f5f00
    3e50:	465f4d52 			@ <UNDEFINED> instruction: 465f4d52
    3e54:	55544145 			@ <UNDEFINED> instruction: 55544145
    3e58:	435f4552 			@ <UNDEFINED> instruction: 435f4552
    3e5c:	4f52504f 			@ <UNDEFINED> instruction: 4f52504f
    3e60:	5f5f0043 			@ <UNDEFINED> instruction: 5f5f0043
    3e64:	5f4c4244 			@ <UNDEFINED> instruction: 5f4c4244
    3e68:	5f534148 			@ <UNDEFINED> instruction: 5f534148
    3e6c:	49464e49 			@ <UNDEFINED> instruction: 49464e49
    3e70:	5954494e 			@ <UNDEFINED> instruction: 5954494e
    3e74:	31205f5f 			@ <UNDEFINED> instruction: 31205f5f
    3e78:	535f5f00 			@ <UNDEFINED> instruction: 535f5f00
    3e7c:	415f4749 			@ <UNDEFINED> instruction: 415f4749
    3e80:	494d4f54 			@ <UNDEFINED> instruction: 494d4f54
    3e84:	414d5f43 			@ <UNDEFINED> instruction: 414d5f43
    3e88:	205f5f58 			@ <UNDEFINED> instruction: 205f5f58
    3e8c:	66377830 			@ <UNDEFINED> instruction: 66377830
    3e90:	66666666 			@ <UNDEFINED> instruction: 66666666
    3e94:	55006666 			@ <UNDEFINED> instruction: 55006666
    3e98:	36544e49 			@ <UNDEFINED> instruction: 36544e49
    3e9c:	414d5f34 			@ <UNDEFINED> instruction: 414d5f34
    3ea0:	5f282058 			@ <UNDEFINED> instruction: 5f282058
    3ea4:	4e49555f 			@ <UNDEFINED> instruction: 4e49555f
    3ea8:	5f343654 			@ <UNDEFINED> instruction: 5f343654
    3eac:	5f58414d 			@ <UNDEFINED> instruction: 5f58414d
    3eb0:	4700295f 	smlsdmi	r0, pc, r9, r2	@ <UNPREDICTABLE>
    3eb4:	5f4f4950 			@ <UNDEFINED> instruction: 5f4f4950
    3eb8:	5f473243 			@ <UNDEFINED> instruction: 5f473243
    3ebc:	45534552 			@ <UNDEFINED> instruction: 45534552
    3ec0:	41565f54 			@ <UNDEFINED> instruction: 41565f54
    3ec4:	2045554c 			@ <UNDEFINED> instruction: 2045554c
    3ec8:	46467830 			@ <UNDEFINED> instruction: 46467830
    3ecc:	46464646 			@ <UNDEFINED> instruction: 46464646
    3ed0:	00554646 			@ <UNDEFINED> instruction: 00554646
    3ed4:	4e475f5f 			@ <UNDEFINED> instruction: 4e475f5f
    3ed8:	505f4355 			@ <UNDEFINED> instruction: 505f4355
    3edc:	48435441 			@ <UNDEFINED> instruction: 48435441
    3ee0:	4556454c 			@ <UNDEFINED> instruction: 4556454c
    3ee4:	205f5f4c 			@ <UNDEFINED> instruction: 205f5f4c
    3ee8:	43530031 			@ <UNDEFINED> instruction: 43530031
    3eec:	43495f42 	movtmi	r5, #40770	@ 0x9f42
    3ef0:	28205253 			@ <UNDEFINED> instruction: 28205253
    3ef4:	6f76282a 			@ <UNDEFINED> instruction: 6f76282a
    3ef8:	6974616c 			@ <UNDEFINED> instruction: 6974616c
    3efc:	7520656c 			@ <UNDEFINED> instruction: 7520656c
    3f00:	33746e69 			@ <UNDEFINED> instruction: 33746e69
    3f04:	20745f32 			@ <UNDEFINED> instruction: 20745f32
    3f08:	7830292a 			@ <UNDEFINED> instruction: 7830292a
    3f0c:	30303045 			@ <UNDEFINED> instruction: 30303045
    3f10:	34304445 			@ <UNDEFINED> instruction: 34304445
    3f14:	67002955 	smlsdvs	r0, r5, r9, r2
    3f18:	61626f6c 			@ <UNDEFINED> instruction: 61626f6c
    3f1c:	6e755f6c 			@ <UNDEFINED> instruction: 6e755f6c
    3f20:	74696e69 			@ <UNDEFINED> instruction: 74696e69
    3f24:	415f5f00 			@ <UNDEFINED> instruction: 415f5f00
    3f28:	415f4d52 			@ <UNDEFINED> instruction: 415f4d52
    3f2c:	5f484352 			@ <UNDEFINED> instruction: 5f484352
    3f30:	5f545845 			@ <UNDEFINED> instruction: 5f545845
    3f34:	56494449 			@ <UNDEFINED> instruction: 56494449
    3f38:	31205f5f 			@ <UNDEFINED> instruction: 31205f5f
    3f3c:	4e495500 			@ <UNDEFINED> instruction: 4e495500
    3f40:	435f3854 			@ <UNDEFINED> instruction: 435f3854
    3f44:	20297828 			@ <UNDEFINED> instruction: 20297828
    3f48:	49555f5f 			@ <UNDEFINED> instruction: 49555f5f
    3f4c:	5f38544e 			@ <UNDEFINED> instruction: 5f38544e
    3f50:	29782843 			@ <UNDEFINED> instruction: 29782843
    3f54:	6e5f5f00 			@ <UNDEFINED> instruction: 6e5f5f00
    3f58:	5f646565 			@ <UNDEFINED> instruction: 5f646565
    3f5c:	64727470 			@ <UNDEFINED> instruction: 64727470
    3f60:	5f666669 			@ <UNDEFINED> instruction: 5f666669
    3f64:	5f5f0074 			@ <UNDEFINED> instruction: 5f5f0074
    3f68:	5f4c4244 			@ <UNDEFINED> instruction: 5f4c4244
    3f6c:	49434544 			@ <UNDEFINED> instruction: 49434544
    3f70:	5f4c414d 			@ <UNDEFINED> instruction: 5f4c414d
    3f74:	5f474944 			@ <UNDEFINED> instruction: 5f474944
    3f78:	3731205f 			@ <UNDEFINED> instruction: 3731205f
    3f7c:	685f5f00 			@ <UNDEFINED> instruction: 685f5f00
    3f80:	5f657661 			@ <UNDEFINED> instruction: 5f657661
    3f84:	676e6f6c 			@ <UNDEFINED> instruction: 676e6f6c
    3f88:	31203233 			@ <UNDEFINED> instruction: 31203233
    3f8c:	45545200 			@ <UNDEFINED> instruction: 45545200
    3f90:	5645445f 			@ <UNDEFINED> instruction: 5645445f
    3f94:	5f454349 			@ <UNDEFINED> instruction: 5f454349
    3f98:	52415453 			@ <UNDEFINED> instruction: 52415453
    3f9c:	5f505554 			@ <UNDEFINED> instruction: 5f505554
    3fa0:	334d5453 	movtcc	r5, #54355	@ 0xd453
    3fa4:	58344732 			@ <UNDEFINED> instruction: 58344732
    3fa8:	00312058 			@ <UNDEFINED> instruction: 00312058
    3fac:	4e495f5f 			@ <UNDEFINED> instruction: 4e495f5f
    3fb0:	5f363154 			@ <UNDEFINED> instruction: 5f363154
    3fb4:	5f58414d 			@ <UNDEFINED> instruction: 5f58414d
    3fb8:	7830205f 			@ <UNDEFINED> instruction: 7830205f
    3fbc:	66666637 			@ <UNDEFINED> instruction: 66666637
    3fc0:	475f5f00 			@ <UNDEFINED> instruction: 475f5f00
    3fc4:	415f4343 			@ <UNDEFINED> instruction: 415f4343
    3fc8:	494d4f54 			@ <UNDEFINED> instruction: 494d4f54
    3fcc:	48435f43 			@ <UNDEFINED> instruction: 48435f43
    3fd0:	4c5f5241 	mrrcmi	2, 4, r5, pc, cr1	@ <UNPREDICTABLE>
    3fd4:	5f4b434f 			@ <UNDEFINED> instruction: 5f4b434f
    3fd8:	45455246 			@ <UNDEFINED> instruction: 45455246
    3fdc:	41003220 			@ <UNDEFINED> instruction: 41003220
    3fe0:	4f4c414e 			@ <UNDEFINED> instruction: 4f4c414e
    3fe4:	5f5f0047 			@ <UNDEFINED> instruction: 5f5f0047
    3fe8:	5f544e49 			@ <UNDEFINED> instruction: 5f544e49
    3fec:	54444957 			@ <UNDEFINED> instruction: 54444957
    3ff0:	205f5f48 			@ <UNDEFINED> instruction: 205f5f48
    3ff4:	5f003233 			@ <UNDEFINED> instruction: 5f003233
    3ff8:	4d52415f 			@ <UNDEFINED> instruction: 4d52415f
    3ffc:	4145465f 			@ <UNDEFINED> instruction: 4145465f
    4000:	45525554 			@ <UNDEFINED> instruction: 45525554
    4004:	4d49535f 			@ <UNDEFINED> instruction: 4d49535f
    4008:	20323344 			@ <UNDEFINED> instruction: 20323344
    400c:	49530031 			@ <UNDEFINED> instruction: 49530031
    4010:	4c414e47 	mcrrmi	14, 4, r4, r1, cr7
    4014:	0020485f 			@ <UNDEFINED> instruction: 0020485f
    4018:	53585f5f 			@ <UNDEFINED> instruction: 53585f5f
    401c:	49565f49 			@ <UNDEFINED> instruction: 49565f49
    4020:	4c424953 	mcrrmi	9, 5, r4, r2, cr3	@ <UNPREDICTABLE>
    4024:	00302045 			@ <UNDEFINED> instruction: 00302045
    4028:	52525342 			@ <UNDEFINED> instruction: 52525342
    402c:	43324900 			@ <UNDEFINED> instruction: 43324900
    4030:	4144535f 			@ <UNDEFINED> instruction: 4144535f
    4034:	4950475f 			@ <UNDEFINED> instruction: 4950475f
    4038:	5047204f 			@ <UNDEFINED> instruction: 5047204f
    403c:	435f4f49 			@ <UNDEFINED> instruction: 435f4f49
    4040:	49464e4f 			@ <UNDEFINED> instruction: 49464e4f
    4044:	4f502847 			@ <UNDEFINED> instruction: 4f502847
    4048:	2c475452 	mcrrcs	4, 5, r5, r7, cr2
    404c:	4e495020 			@ <UNDEFINED> instruction: 4e495020
    4050:	202c385f 			@ <UNDEFINED> instruction: 202c385f
    4054:	45544c41 			@ <UNDEFINED> instruction: 45544c41
    4058:	54414e52 			@ <UNDEFINED> instruction: 54414e52
    405c:	55465f45 			@ <UNDEFINED> instruction: 55465f45
    4060:	4954434e 			@ <UNDEFINED> instruction: 4954434e
    4064:	202c4e4f 			@ <UNDEFINED> instruction: 202c4e4f
    4068:	4e45504f 			@ <UNDEFINED> instruction: 4e45504f
    406c:	4152445f 			@ <UNDEFINED> instruction: 4152445f
    4070:	202c4e49 			@ <UNDEFINED> instruction: 202c4e49
    4074:	505f4f4e 			@ <UNDEFINED> instruction: 505f4f4e
    4078:	2c4c4c55 	mcrrcs	12, 5, r4, ip, cr5
    407c:	5f464120 			@ <UNDEFINED> instruction: 5f464120
    4080:	33433249 	movtcc	r3, #12873	@ 0x3249
    4084:	4c43535f 	mcrrmi	3, 5, r5, r3, cr15
    4088:	5f5f0029 			@ <UNDEFINED> instruction: 5f5f0029
    408c:	464c4c55 			@ <UNDEFINED> instruction: 464c4c55
    4090:	54434152 			@ <UNDEFINED> instruction: 54434152
    4094:	5350455f 			@ <UNDEFINED> instruction: 5350455f
    4098:	4e4f4c49 			@ <UNDEFINED> instruction: 4e4f4c49
    409c:	30205f5f 			@ <UNDEFINED> instruction: 30205f5f
    40a0:	2d503178 			@ <UNDEFINED> instruction: 2d503178
    40a4:	4c553436 	mrrcmi	4, 3, r3, r5, cr6
    40a8:	5f00524c 			@ <UNDEFINED> instruction: 5f00524c
    40ac:	4749535f 	smlsldmi	r5, r9, pc, r3	@ <UNPREDICTABLE>
    40b0:	4f54415f 			@ <UNDEFINED> instruction: 4f54415f
    40b4:	5f43494d 			@ <UNDEFINED> instruction: 5f43494d
    40b8:	54444957 			@ <UNDEFINED> instruction: 54444957
    40bc:	205f5f48 			@ <UNDEFINED> instruction: 205f5f48
    40c0:	5f003233 			@ <UNDEFINED> instruction: 5f003233
    40c4:	544c465f 			@ <UNDEFINED> instruction: 544c465f
    40c8:	455f3436 			@ <UNDEFINED> instruction: 455f3436
    40cc:	4c495350 	mcrrmi	3, 5, r5, r9, cr0
    40d0:	5f5f4e4f 			@ <UNDEFINED> instruction: 5f5f4e4f
    40d4:	322e3220 			@ <UNDEFINED> instruction: 322e3220
    40d8:	34343032 			@ <UNDEFINED> instruction: 34343032
    40dc:	39343036 			@ <UNDEFINED> instruction: 39343036
    40e0:	33303532 			@ <UNDEFINED> instruction: 33303532
    40e4:	65313331 			@ <UNDEFINED> instruction: 65313331
    40e8:	4636312d 			@ <UNDEFINED> instruction: 4636312d
    40ec:	5f003436 			@ <UNDEFINED> instruction: 5f003436
    40f0:	554e475f 			@ <UNDEFINED> instruction: 554e475f
    40f4:	52505f43 			@ <UNDEFINED> instruction: 52505f43
    40f8:	51455245 			@ <UNDEFINED> instruction: 51455245
    40fc:	6d285f5f 			@ <UNDEFINED> instruction: 6d285f5f
    4100:	696d2c61 			@ <UNDEFINED> instruction: 696d2c61
    4104:	5f5f2029 			@ <UNDEFINED> instruction: 5f5f2029
    4108:	43554e47 			@ <UNDEFINED> instruction: 43554e47
    410c:	4552505f 			@ <UNDEFINED> instruction: 4552505f
    4110:	28514552 			@ <UNDEFINED> instruction: 28514552
    4114:	202c616d 			@ <UNDEFINED> instruction: 202c616d
    4118:	0029696d 			@ <UNDEFINED> instruction: 0029696d
    411c:	54555f5f 			@ <UNDEFINED> instruction: 54555f5f
    4120:	42495f41 			@ <UNDEFINED> instruction: 42495f41
    4124:	5f5f5449 			@ <UNDEFINED> instruction: 5f5f5449
    4128:	00343620 			@ <UNDEFINED> instruction: 00343620
    412c:	52415f5f 			@ <UNDEFINED> instruction: 52415f5f
    4130:	45465f4d 			@ <UNDEFINED> instruction: 45465f4d
    4134:	52555441 			@ <UNDEFINED> instruction: 52555441
    4138:	52435f45 			@ <UNDEFINED> instruction: 52435f45
    413c:	00323343 			@ <UNDEFINED> instruction: 00323343
    4140:	4e49555f 			@ <UNDEFINED> instruction: 4e49555f
    4144:	5f343654 			@ <UNDEFINED> instruction: 5f343654
    4148:	45445f54 			@ <UNDEFINED> instruction: 45445f54
    414c:	52414c43 			@ <UNDEFINED> instruction: 52414c43
    4150:	00204445 			@ <UNDEFINED> instruction: 00204445
    4154:	54535f5f 			@ <UNDEFINED> instruction: 54535f5f
    4158:	485f4344 			@ <UNDEFINED> instruction: 485f4344
    415c:	4554534f 			@ <UNDEFINED> instruction: 4554534f
    4160:	205f5f44 			@ <UNDEFINED> instruction: 205f5f44
    4164:	5f5f0031 			@ <UNDEFINED> instruction: 5f5f0031
    4168:	455a4953 			@ <UNDEFINED> instruction: 455a4953
    416c:	575f464f 			@ <UNDEFINED> instruction: 575f464f
    4170:	5f544e49 			@ <UNDEFINED> instruction: 5f544e49
    4174:	205f5f54 			@ <UNDEFINED> instruction: 205f5f54
    4178:	5f5f0034 			@ <UNDEFINED> instruction: 5f5f0034
    417c:	5f4d5241 			@ <UNDEFINED> instruction: 5f4d5241
    4180:	54414546 			@ <UNDEFINED> instruction: 54414546
    4184:	5f455255 			@ <UNDEFINED> instruction: 5f455255
    4188:	4c414e55 	mcrrmi	14, 5, r4, r1, cr5
    418c:	454e4749 			@ <UNDEFINED> instruction: 454e4749
    4190:	00312044 			@ <UNDEFINED> instruction: 00312044
    4194:	54535f5f 			@ <UNDEFINED> instruction: 54535f5f
    4198:	5f5f4344 			@ <UNDEFINED> instruction: 5f5f4344
    419c:	5f003120 			@ <UNDEFINED> instruction: 5f003120
    41a0:	42444c5f 			@ <UNDEFINED> instruction: 42444c5f
    41a4:	45445f4c 			@ <UNDEFINED> instruction: 45445f4c
    41a8:	414d4943 			@ <UNDEFINED> instruction: 414d4943
    41ac:	49445f4c 			@ <UNDEFINED> instruction: 49445f4c
    41b0:	205f5f47 			@ <UNDEFINED> instruction: 205f5f47
    41b4:	5f003731 			@ <UNDEFINED> instruction: 5f003731
    41b8:	43414c5f 	movtmi	r4, #7263	@ 0x1c5f
    41bc:	5f4d5543 			@ <UNDEFINED> instruction: 5f4d5543
    41c0:	5f4e494d 			@ <UNDEFINED> instruction: 5f4e494d
    41c4:	2d28205f 			@ <UNDEFINED> instruction: 2d28205f
    41c8:	50315830 			@ <UNDEFINED> instruction: 50315830
    41cc:	4b4c3133 			@ <UNDEFINED> instruction: 4b4c3133
    41d0:	3158302d 			@ <UNDEFINED> instruction: 3158302d
    41d4:	4c313350 			@ <UNDEFINED> instruction: 4c313350
    41d8:	5f00294b 			@ <UNDEFINED> instruction: 5f00294b
    41dc:	544e495f 			@ <UNDEFINED> instruction: 544e495f
    41e0:	5341465f 	movtpl	r4, #5727	@ 0x165f
    41e4:	4d5f3854 			@ <UNDEFINED> instruction: 4d5f3854
    41e8:	5f5f5841 			@ <UNDEFINED> instruction: 5f5f5841
    41ec:	37783020 			@ <UNDEFINED> instruction: 37783020
    41f0:	66666666 			@ <UNDEFINED> instruction: 66666666
    41f4:	00666666 			@ <UNDEFINED> instruction: 00666666
    41f8:	4c465f5f 	mcrrmi	15, 5, r5, r6, cr15
    41fc:	5f323354 			@ <UNDEFINED> instruction: 5f323354
    4200:	5f534148 			@ <UNDEFINED> instruction: 5f534148
    4204:	4f4e4544 			@ <UNDEFINED> instruction: 4f4e4544
    4208:	5f5f4d52 			@ <UNDEFINED> instruction: 5f5f4d52
    420c:	5f003120 			@ <UNDEFINED> instruction: 5f003120
    4210:	544c465f 			@ <UNDEFINED> instruction: 544c465f
    4214:	58414d5f 			@ <UNDEFINED> instruction: 58414d5f
    4218:	33205f5f 			@ <UNDEFINED> instruction: 33205f5f
    421c:	3230342e 			@ <UNDEFINED> instruction: 3230342e
    4220:	34333238 			@ <UNDEFINED> instruction: 34333238
    4224:	38333636 			@ <UNDEFINED> instruction: 38333636
    4228:	38383235 			@ <UNDEFINED> instruction: 38383235
    422c:	332b6536 			@ <UNDEFINED> instruction: 332b6536
    4230:	5f004638 			@ <UNDEFINED> instruction: 5f004638
    4234:	5341465f 	movtpl	r4, #5727	@ 0x165f
    4238:	00203854 			@ <UNDEFINED> instruction: 00203854
    423c:	4c555f5f 	mrrcmi	15, 5, r5, r5, cr15	@ <UNPREDICTABLE>
    4240:	4343414c 	movtmi	r4, #12620	@ 0x314c
    4244:	4d5f4d55 			@ <UNDEFINED> instruction: 4d5f4d55
    4248:	5f5f4e49 			@ <UNDEFINED> instruction: 5f5f4e49
    424c:	302e3020 			@ <UNDEFINED> instruction: 302e3020
    4250:	4b4c4c55 			@ <UNDEFINED> instruction: 4b4c4c55
    4254:	42435300 			@ <UNDEFINED> instruction: 42435300
    4258:	5048535f 			@ <UNDEFINED> instruction: 5048535f
    425c:	28203352 			@ <UNDEFINED> instruction: 28203352
    4260:	6f76282a 			@ <UNDEFINED> instruction: 6f76282a
    4264:	6974616c 			@ <UNDEFINED> instruction: 6974616c
    4268:	7520656c 			@ <UNDEFINED> instruction: 7520656c
    426c:	33746e69 			@ <UNDEFINED> instruction: 33746e69
    4270:	20745f32 			@ <UNDEFINED> instruction: 20745f32
    4274:	7830292a 			@ <UNDEFINED> instruction: 7830292a
    4278:	30303045 			@ <UNDEFINED> instruction: 30303045
    427c:	30324445 			@ <UNDEFINED> instruction: 30324445
    4280:	50002955 			@ <UNDEFINED> instruction: 50002955
    4284:	315f4e49 			@ <UNDEFINED> instruction: 315f4e49
    4288:	5f5f0030 			@ <UNDEFINED> instruction: 5f5f0030
    428c:	36544c46 			@ <UNDEFINED> instruction: 36544c46
    4290:	4f4e5f34 			@ <UNDEFINED> instruction: 4f4e5f34
    4294:	4d5f4d52 			@ <UNDEFINED> instruction: 4d5f4d52
    4298:	5f5f5841 			@ <UNDEFINED> instruction: 5f5f5841
    429c:	372e3120 			@ <UNDEFINED> instruction: 372e3120
    42a0:	39363739 			@ <UNDEFINED> instruction: 39363739
    42a4:	34333133 			@ <UNDEFINED> instruction: 34333133
    42a8:	33323638 			@ <UNDEFINED> instruction: 33323638
    42ac:	65373531 			@ <UNDEFINED> instruction: 65373531
    42b0:	3830332b 			@ <UNDEFINED> instruction: 3830332b
    42b4:	00343646 			@ <UNDEFINED> instruction: 00343646
    42b8:	5f4e4950 			@ <UNDEFINED> instruction: 5f4e4950
    42bc:	50003231 			@ <UNDEFINED> instruction: 50003231
    42c0:	315f4e49 			@ <UNDEFINED> instruction: 315f4e49
    42c4:	49500033 			@ <UNDEFINED> instruction: 49500033
    42c8:	34315f4e 			@ <UNDEFINED> instruction: 34315f4e
    42cc:	4e495000 			@ <UNDEFINED> instruction: 4e495000
    42d0:	0035315f 			@ <UNDEFINED> instruction: 0035315f
    42d4:	485f4641 			@ <UNDEFINED> instruction: 485f4641
    42d8:	5f5f0020 			@ <UNDEFINED> instruction: 5f5f0020
    42dc:	33544e49 			@ <UNDEFINED> instruction: 33544e49
    42e0:	6c222032 			@ <UNDEFINED> instruction: 6c222032
    42e4:	5f5f0022 			@ <UNDEFINED> instruction: 5f5f0022
    42e8:	5f4d5241 			@ <UNDEFINED> instruction: 5f4d5241
    42ec:	5f4d5341 			@ <UNDEFINED> instruction: 5f4d5341
    42f0:	544e5953 			@ <UNDEFINED> instruction: 544e5953
    42f4:	555f5841 			@ <UNDEFINED> instruction: 555f5841
    42f8:	4946494e 			@ <UNDEFINED> instruction: 4946494e
    42fc:	5f5f4445 			@ <UNDEFINED> instruction: 5f5f4445
    4300:	52003120 			@ <UNDEFINED> instruction: 52003120
    4304:	415f4343 			@ <UNDEFINED> instruction: 415f4343
    4308:	5f324248 			@ <UNDEFINED> instruction: 5f324248
    430c:	20545352 			@ <UNDEFINED> instruction: 20545352
    4310:	76282a28 			@ <UNDEFINED> instruction: 76282a28
    4314:	74616c6f 			@ <UNDEFINED> instruction: 74616c6f
    4318:	20656c69 			@ <UNDEFINED> instruction: 20656c69
    431c:	746e6975 			@ <UNDEFINED> instruction: 746e6975
    4320:	745f3233 			@ <UNDEFINED> instruction: 745f3233
    4324:	28292a20 			@ <UNDEFINED> instruction: 28292a20
    4328:	5f434352 			@ <UNDEFINED> instruction: 5f434352
    432c:	45534142 			@ <UNDEFINED> instruction: 45534142
    4330:	52202b20 			@ <UNDEFINED> instruction: 52202b20
    4334:	415f4343 			@ <UNDEFINED> instruction: 415f4343
    4338:	5f324248 			@ <UNDEFINED> instruction: 5f324248
    433c:	5f545352 			@ <UNDEFINED> instruction: 5f545352
    4340:	5346464f 	movtpl	r4, #26191	@ 0x664f
    4344:	29295445 			@ <UNDEFINED> instruction: 29295445
    4348:	4e495000 			@ <UNDEFINED> instruction: 4e495000
    434c:	5f00325f 			@ <UNDEFINED> instruction: 5f00325f
    4350:	4d52415f 			@ <UNDEFINED> instruction: 4d52415f
    4354:	4145465f 			@ <UNDEFINED> instruction: 4145465f
    4358:	45525554 			@ <UNDEFINED> instruction: 45525554
    435c:	544f445f 			@ <UNDEFINED> instruction: 544f445f
    4360:	444f5250 			@ <UNDEFINED> instruction: 444f5250
    4364:	745f5f00 			@ <UNDEFINED> instruction: 745f5f00
    4368:	626d7568 			@ <UNDEFINED> instruction: 626d7568
    436c:	205f5f32 			@ <UNDEFINED> instruction: 205f5f32
    4370:	32490031 			@ <UNDEFINED> instruction: 32490031
    4374:	49545f43 			@ <UNDEFINED> instruction: 49545f43
    4378:	474e494d 			@ <UNDEFINED> instruction: 474e494d
    437c:	4b34365f 			@ <UNDEFINED> instruction: 4b34365f
    4380:	315f5a48 			@ <UNDEFINED> instruction: 315f5a48
    4384:	5a484d36 			@ <UNDEFINED> instruction: 5a484d36
    4388:	31783020 			@ <UNDEFINED> instruction: 31783020
    438c:	37303730 			@ <UNDEFINED> instruction: 37303730
    4390:	55434244 			@ <UNDEFINED> instruction: 55434244
    4394:	45445f00 			@ <UNDEFINED> instruction: 45445f00
    4398:	4c554146 	mrrcmi	1, 4, r4, r5, cr6
    439c:	4f535f54 			@ <UNDEFINED> instruction: 4f535f54
    43a0:	45435255 			@ <UNDEFINED> instruction: 45435255
    43a4:	415f5f00 			@ <UNDEFINED> instruction: 415f5f00
    43a8:	505f4d52 			@ <UNDEFINED> instruction: 505f4d52
    43ac:	565f5343 			@ <UNDEFINED> instruction: 565f5343
    43b0:	31205046 			@ <UNDEFINED> instruction: 31205046
    43b4:	4e495000 			@ <UNDEFINED> instruction: 4e495000
    43b8:	5f00375f 			@ <UNDEFINED> instruction: 5f00375f
    43bc:	5f434347 			@ <UNDEFINED> instruction: 5f434347
    43c0:	455a4953 			@ <UNDEFINED> instruction: 455a4953
    43c4:	0020545f 			@ <UNDEFINED> instruction: 0020545f
    43c8:	49575f5f 			@ <UNDEFINED> instruction: 49575f5f
    43cc:	575f544e 			@ <UNDEFINED> instruction: 575f544e
    43d0:	48544449 			@ <UNDEFINED> instruction: 48544449
    43d4:	33205f5f 			@ <UNDEFINED> instruction: 33205f5f
    43d8:	5f5f0032 			@ <UNDEFINED> instruction: 5f5f0032
    43dc:	464c4c55 			@ <UNDEFINED> instruction: 464c4c55
    43e0:	54434152 			@ <UNDEFINED> instruction: 54434152
    43e4:	4e494d5f 			@ <UNDEFINED> instruction: 4e494d5f
    43e8:	30205f5f 			@ <UNDEFINED> instruction: 30205f5f
    43ec:	4c55302e 	mrrcmi	0, 2, r3, r5, cr14
    43f0:	5f00524c 			@ <UNDEFINED> instruction: 5f00524c
    43f4:	42445453 			@ <UNDEFINED> instruction: 42445453
    43f8:	5f4c4f4f 			@ <UNDEFINED> instruction: 5f4c4f4f
    43fc:	5f002048 			@ <UNDEFINED> instruction: 5f002048
    4400:	38544e49 			@ <UNDEFINED> instruction: 38544e49
    4404:	445f545f 			@ <UNDEFINED> instruction: 445f545f
    4408:	414c4345 			@ <UNDEFINED> instruction: 414c4345
    440c:	20444552 			@ <UNDEFINED> instruction: 20444552
    4410:	475f5f00 			@ <UNDEFINED> instruction: 475f5f00
    4414:	435f4343 			@ <UNDEFINED> instruction: 435f4343
    4418:	54534e4f 			@ <UNDEFINED> instruction: 54534e4f
    441c:	54435552 			@ <UNDEFINED> instruction: 54435552
    4420:	5f455649 			@ <UNDEFINED> instruction: 5f455649
    4424:	455a4953 			@ <UNDEFINED> instruction: 455a4953
    4428:	00343620 			@ <UNDEFINED> instruction: 00343620
    442c:	4453425f 			@ <UNDEFINED> instruction: 4453425f
    4430:	4843575f 			@ <UNDEFINED> instruction: 4843575f
    4434:	545f5241 			@ <UNDEFINED> instruction: 545f5241
    4438:	5f5f005f 			@ <UNDEFINED> instruction: 5f5f005f
    443c:	52464c4c 			@ <UNDEFINED> instruction: 52464c4c
    4440:	5f544341 			@ <UNDEFINED> instruction: 5f544341
    4444:	54494249 			@ <UNDEFINED> instruction: 54494249
    4448:	30205f5f 			@ <UNDEFINED> instruction: 30205f5f
    444c:	4e495500 			@ <UNDEFINED> instruction: 4e495500
    4450:	5f363154 			@ <UNDEFINED> instruction: 5f363154
    4454:	29782843 			@ <UNDEFINED> instruction: 29782843
    4458:	555f5f20 			@ <UNDEFINED> instruction: 555f5f20
    445c:	31544e49 			@ <UNDEFINED> instruction: 31544e49
    4460:	28435f36 			@ <UNDEFINED> instruction: 28435f36
    4464:	5f002978 			@ <UNDEFINED> instruction: 5f002978
    4468:	464c4c5f 			@ <UNDEFINED> instruction: 464c4c5f
    446c:	54434152 			@ <UNDEFINED> instruction: 54434152
    4470:	4e494d5f 			@ <UNDEFINED> instruction: 4e494d5f
    4474:	28205f5f 			@ <UNDEFINED> instruction: 28205f5f
    4478:	352e302d 			@ <UNDEFINED> instruction: 352e302d
    447c:	2d524c4c 			@ <UNDEFINED> instruction: 2d524c4c
    4480:	4c352e30 			@ <UNDEFINED> instruction: 4c352e30
    4484:	0029524c 			@ <UNDEFINED> instruction: 0029524c
    4488:	5359535f 			@ <UNDEFINED> instruction: 5359535f
    448c:	4e495f5f 			@ <UNDEFINED> instruction: 4e495f5f
    4490:	50555354 			@ <UNDEFINED> instruction: 50555354
    4494:	0020485f 			@ <UNDEFINED> instruction: 0020485f
    4498:	41535f5f 			@ <UNDEFINED> instruction: 41535f5f
    449c:	4d554343 			@ <UNDEFINED> instruction: 4d554343
    44a0:	5350455f 			@ <UNDEFINED> instruction: 5350455f
    44a4:	4e4f4c49 			@ <UNDEFINED> instruction: 4e4f4c49
    44a8:	30205f5f 			@ <UNDEFINED> instruction: 30205f5f
    44ac:	2d503178 			@ <UNDEFINED> instruction: 2d503178
    44b0:	004b4837 			@ <UNDEFINED> instruction: 004b4837
    44b4:	43475f5f 	movtmi	r5, #32607	@ 0x7f5f
    44b8:	53415f43 	movtpl	r5, #8003	@ 0x1f43
    44bc:	4c465f4d 	mcrrmi	15, 4, r5, r6, cr13
    44c0:	4f5f4741 			@ <UNDEFINED> instruction: 4f5f4741
    44c4:	55505455 			@ <UNDEFINED> instruction: 55505455
    44c8:	5f5f5354 			@ <UNDEFINED> instruction: 5f5f5354
    44cc:	50003120 			@ <UNDEFINED> instruction: 50003120
    44d0:	305f4e49 			@ <UNDEFINED> instruction: 305f4e49
    44d4:	4e495000 			@ <UNDEFINED> instruction: 4e495000
    44d8:	5f00315f 			@ <UNDEFINED> instruction: 5f00315f
    44dc:	4d52415f 			@ <UNDEFINED> instruction: 4d52415f
    44e0:	2050465f 			@ <UNDEFINED> instruction: 2050465f
    44e4:	49500034 			@ <UNDEFINED> instruction: 49500034
    44e8:	00335f4e 			@ <UNDEFINED> instruction: 00335f4e
    44ec:	5f4e4950 			@ <UNDEFINED> instruction: 5f4e4950
    44f0:	49500034 			@ <UNDEFINED> instruction: 49500034
    44f4:	00355f4e 			@ <UNDEFINED> instruction: 00355f4e
    44f8:	5f4e4950 			@ <UNDEFINED> instruction: 5f4e4950
    44fc:	5f5f0036 			@ <UNDEFINED> instruction: 5f5f0036
    4500:	544e4955 			@ <UNDEFINED> instruction: 544e4955
    4504:	5341465f 	movtpl	r4, #5727	@ 0x165f
    4508:	5f363154 			@ <UNDEFINED> instruction: 5f363154
    450c:	45505954 			@ <UNDEFINED> instruction: 45505954
    4510:	75205f5f 			@ <UNDEFINED> instruction: 75205f5f
    4514:	6769736e 			@ <UNDEFINED> instruction: 6769736e
    4518:	2064656e 			@ <UNDEFINED> instruction: 2064656e
    451c:	00746e69 			@ <UNDEFINED> instruction: 00746e69
    4520:	5f4e4950 			@ <UNDEFINED> instruction: 5f4e4950
    4524:	49500038 			@ <UNDEFINED> instruction: 49500038
    4528:	00395f4e 			@ <UNDEFINED> instruction: 00395f4e
    452c:	43415f5f 	movtmi	r5, #8031	@ 0x1f5f
    4530:	5f4d5543 			@ <UNDEFINED> instruction: 5f4d5543
    4534:	49535045 			@ <UNDEFINED> instruction: 49535045
    4538:	5f4e4f4c 			@ <UNDEFINED> instruction: 5f4e4f4c
    453c:	7830205f 			@ <UNDEFINED> instruction: 7830205f
    4540:	312d5031 			@ <UNDEFINED> instruction: 312d5031
    4544:	5f004b35 			@ <UNDEFINED> instruction: 5f004b35
    4548:	414c555f 			@ <UNDEFINED> instruction: 414c555f
    454c:	4d554343 			@ <UNDEFINED> instruction: 4d554343
    4550:	5350455f 			@ <UNDEFINED> instruction: 5350455f
    4554:	4e4f4c49 			@ <UNDEFINED> instruction: 4e4f4c49
    4558:	30205f5f 			@ <UNDEFINED> instruction: 30205f5f
    455c:	2d503178 			@ <UNDEFINED> instruction: 2d503178
    4560:	4c553233 	mrrcmi	2, 3, r3, r5, cr3
    4564:	5f5f004b 			@ <UNDEFINED> instruction: 5f5f004b
    4568:	4c42444c 	mcrrmi	4, 4, r4, r2, cr12
    456c:	4749445f 	smlsldmi	r4, r9, pc, r4	@ <UNPREDICTABLE>
    4570:	31205f5f 			@ <UNDEFINED> instruction: 31205f5f
    4574:	43520035 			@ <UNDEFINED> instruction: 43520035
    4578:	48415f43 			@ <UNDEFINED> instruction: 48415f43
    457c:	525f3242 			@ <UNDEFINED> instruction: 525f3242
    4580:	4f5f5453 			@ <UNDEFINED> instruction: 4f5f5453
    4584:	45534646 			@ <UNDEFINED> instruction: 45534646
    4588:	78302054 			@ <UNDEFINED> instruction: 78302054
    458c:	00554332 			@ <UNDEFINED> instruction: 00554332
    4590:	49535f5f 			@ <UNDEFINED> instruction: 49535f5f
    4594:	575f455a 			@ <UNDEFINED> instruction: 575f455a
    4598:	48544449 			@ <UNDEFINED> instruction: 48544449
    459c:	33205f5f 			@ <UNDEFINED> instruction: 33205f5f
    45a0:	43520032 			@ <UNDEFINED> instruction: 43520032
    45a4:	50415f43 			@ <UNDEFINED> instruction: 50415f43
    45a8:	435f3142 			@ <UNDEFINED> instruction: 435f3142
    45ac:	455f4b4c 			@ <UNDEFINED> instruction: 455f4b4c
    45b0:	2a28204e 			@ <UNDEFINED> instruction: 2a28204e
    45b4:	6c6f7628 			@ <UNDEFINED> instruction: 6c6f7628
    45b8:	6c697461 			@ <UNDEFINED> instruction: 6c697461
    45bc:	69752065 			@ <UNDEFINED> instruction: 69752065
    45c0:	3233746e 			@ <UNDEFINED> instruction: 3233746e
    45c4:	2a20745f 			@ <UNDEFINED> instruction: 2a20745f
    45c8:	43522829 			@ <UNDEFINED> instruction: 43522829
    45cc:	41425f43 			@ <UNDEFINED> instruction: 41425f43
    45d0:	2b204553 			@ <UNDEFINED> instruction: 2b204553
    45d4:	43435220 	movtmi	r5, #12832	@ 0x3220
    45d8:	4250415f 			@ <UNDEFINED> instruction: 4250415f
    45dc:	4c435f31 	mcrrmi	15, 3, r5, r3, cr1
    45e0:	4e455f4b 			@ <UNDEFINED> instruction: 4e455f4b
    45e4:	46464f5f 			@ <UNDEFINED> instruction: 46464f5f
    45e8:	29544553 			@ <UNDEFINED> instruction: 29544553
    45ec:	5f5f0029 			@ <UNDEFINED> instruction: 5f5f0029
    45f0:	544e4957 			@ <UNDEFINED> instruction: 544e4957
    45f4:	4e494d5f 			@ <UNDEFINED> instruction: 4e494d5f
    45f8:	30205f5f 			@ <UNDEFINED> instruction: 30205f5f
    45fc:	5f5f0055 			@ <UNDEFINED> instruction: 5f5f0055
    4600:	36544c46 			@ <UNDEFINED> instruction: 36544c46
    4604:	49445f34 			@ <UNDEFINED> instruction: 49445f34
    4608:	205f5f47 			@ <UNDEFINED> instruction: 205f5f47
    460c:	5f003531 			@ <UNDEFINED> instruction: 5f003531
    4610:	33544e49 			@ <UNDEFINED> instruction: 33544e49
    4614:	51455f32 			@ <UNDEFINED> instruction: 51455f32
    4618:	4e4f4c5f 			@ <UNDEFINED> instruction: 4e4f4c5f
    461c:	5f002047 			@ <UNDEFINED> instruction: 5f002047
    4620:	4e49575f 			@ <UNDEFINED> instruction: 4e49575f
    4624:	414d5f54 			@ <UNDEFINED> instruction: 414d5f54
    4628:	205f5f58 			@ <UNDEFINED> instruction: 205f5f58
    462c:	66667830 			@ <UNDEFINED> instruction: 66667830
    4630:	66666666 			@ <UNDEFINED> instruction: 66666666
    4634:	00556666 			@ <UNDEFINED> instruction: 00556666
    4638:	4e495f5f 			@ <UNDEFINED> instruction: 4e495f5f
    463c:	454c5f54 			@ <UNDEFINED> instruction: 454c5f54
    4640:	38545341 			@ <UNDEFINED> instruction: 38545341
    4644:	4449575f 			@ <UNDEFINED> instruction: 4449575f
    4648:	5f5f4854 			@ <UNDEFINED> instruction: 5f5f4854
    464c:	5f003820 			@ <UNDEFINED> instruction: 5f003820
    4650:	41454c5f 			@ <UNDEFINED> instruction: 41454c5f
    4654:	36315453 			@ <UNDEFINED> instruction: 36315453
    4658:	22682220 			@ <UNDEFINED> instruction: 22682220
    465c:	495f5f00 			@ <UNDEFINED> instruction: 495f5f00
    4660:	4c5f544e 	mrrcmi	4, 4, r5, pc, cr14	@ <UNPREDICTABLE>
    4664:	54534145 			@ <UNDEFINED> instruction: 54534145
    4668:	545f3631 			@ <UNDEFINED> instruction: 545f3631
    466c:	5f455059 			@ <UNDEFINED> instruction: 5f455059
    4670:	6873205f 			@ <UNDEFINED> instruction: 6873205f
    4674:	2074726f 			@ <UNDEFINED> instruction: 2074726f
    4678:	00746e69 			@ <UNDEFINED> instruction: 00746e69
    467c:	4c465f5f 	mcrrmi	15, 5, r5, r6, cr15
    4680:	41485f54 			@ <UNDEFINED> instruction: 41485f54
    4684:	45445f53 			@ <UNDEFINED> instruction: 45445f53
    4688:	4d524f4e 			@ <UNDEFINED> instruction: 4d524f4e
    468c:	31205f5f 			@ <UNDEFINED> instruction: 31205f5f
    4690:	445f5f00 			@ <UNDEFINED> instruction: 445f5f00
    4694:	4d5f4c42 			@ <UNDEFINED> instruction: 4d5f4c42
    4698:	5f5f5841 			@ <UNDEFINED> instruction: 5f5f5841
    469c:	64282820 			@ <UNDEFINED> instruction: 64282820
    46a0:	6c62756f 			@ <UNDEFINED> instruction: 6c62756f
    46a4:	2e312965 			@ <UNDEFINED> instruction: 2e312965
    46a8:	36373937 			@ <UNDEFINED> instruction: 36373937
    46ac:	33313339 			@ <UNDEFINED> instruction: 33313339
    46b0:	32363834 			@ <UNDEFINED> instruction: 32363834
    46b4:	37353133 			@ <UNDEFINED> instruction: 37353133
    46b8:	30332b65 			@ <UNDEFINED> instruction: 30332b65
    46bc:	00294c38 			@ <UNDEFINED> instruction: 00294c38
    46c0:	4c4c5f5f 	mcrrmi	15, 5, r5, ip, cr15
    46c4:	43415246 	movtmi	r5, #4678	@ 0x1246
    46c8:	42465f54 			@ <UNDEFINED> instruction: 42465f54
    46cc:	5f5f5449 			@ <UNDEFINED> instruction: 5f5f5449
    46d0:	00333620 			@ <UNDEFINED> instruction: 00333620
    46d4:	4c465f5f 	mcrrmi	15, 5, r5, r6, cr15
    46d8:	5f323354 			@ <UNDEFINED> instruction: 5f323354
    46dc:	5f534148 			@ <UNDEFINED> instruction: 5f534148
    46e0:	49464e49 			@ <UNDEFINED> instruction: 49464e49
    46e4:	5954494e 			@ <UNDEFINED> instruction: 5954494e
    46e8:	31205f5f 			@ <UNDEFINED> instruction: 31205f5f
    46ec:	745f5f00 			@ <UNDEFINED> instruction: 745f5f00
    46f0:	626d7568 			@ <UNDEFINED> instruction: 626d7568
    46f4:	31205f5f 			@ <UNDEFINED> instruction: 31205f5f
    46f8:	746c6100 			@ <UNDEFINED> instruction: 746c6100
    46fc:	616e7265 			@ <UNDEFINED> instruction: 616e7265
    4700:	75466574 			@ <UNDEFINED> instruction: 75466574
    4704:	6974636e 			@ <UNDEFINED> instruction: 6974636e
    4708:	5f006e6f 			@ <UNDEFINED> instruction: 5f006e6f
    470c:	4d52415f 			@ <UNDEFINED> instruction: 4d52415f
    4710:	5f5f4c45 			@ <UNDEFINED> instruction: 5f5f4c45
    4714:	5f003120 			@ <UNDEFINED> instruction: 5f003120
    4718:	4d52415f 			@ <UNDEFINED> instruction: 4d52415f
    471c:	4145465f 			@ <UNDEFINED> instruction: 4145465f
    4720:	45525554 			@ <UNDEFINED> instruction: 45525554
    4724:	3146425f 			@ <UNDEFINED> instruction: 3146425f
    4728:	43535f36 			@ <UNDEFINED> instruction: 43535f36
    472c:	52414c41 			@ <UNDEFINED> instruction: 52414c41
    4730:	4952415f 			@ <UNDEFINED> instruction: 4952415f
    4734:	454d4854 			@ <UNDEFINED> instruction: 454d4854
    4738:	00434954 			@ <UNDEFINED> instruction: 00434954
    473c:	51485f5f 			@ <UNDEFINED> instruction: 51485f5f
    4740:	4942465f 			@ <UNDEFINED> instruction: 4942465f
    4744:	205f5f54 			@ <UNDEFINED> instruction: 205f5f54
    4748:	5f003531 			@ <UNDEFINED> instruction: 5f003531
    474c:	6f6f625f 			@ <UNDEFINED> instruction: 6f6f625f
    4750:	72745f6c 			@ <UNDEFINED> instruction: 72745f6c
    4754:	665f6575 			@ <UNDEFINED> instruction: 665f6575
    4758:	65736c61 			@ <UNDEFINED> instruction: 65736c61
    475c:	6572615f 			@ <UNDEFINED> instruction: 6572615f
    4760:	6665645f 			@ <UNDEFINED> instruction: 6665645f
    4764:	64656e69 			@ <UNDEFINED> instruction: 64656e69
    4768:	74003120 			@ <UNDEFINED> instruction: 74003120
    476c:	61657268 			@ <UNDEFINED> instruction: 61657268
    4770:	6c654464 			@ <UNDEFINED> instruction: 6c654464
    4774:	5f007961 			@ <UNDEFINED> instruction: 5f007961
    4778:	5a49535f 			@ <UNDEFINED> instruction: 5a49535f
    477c:	414d5f45 			@ <UNDEFINED> instruction: 414d5f45
    4780:	205f5f58 			@ <UNDEFINED> instruction: 205f5f58
    4784:	66667830 			@ <UNDEFINED> instruction: 66667830
    4788:	66666666 			@ <UNDEFINED> instruction: 66666666
    478c:	00556666 			@ <UNDEFINED> instruction: 00556666
    4790:	52415f5f 			@ <UNDEFINED> instruction: 52415f5f
    4794:	52415f4d 			@ <UNDEFINED> instruction: 52415f4d
    4798:	55004843 			@ <UNDEFINED> instruction: 55004843
    479c:	38544e49 			@ <UNDEFINED> instruction: 38544e49
    47a0:	58414d5f 			@ <UNDEFINED> instruction: 58414d5f
    47a4:	5f5f2820 			@ <UNDEFINED> instruction: 5f5f2820
    47a8:	544e4955 			@ <UNDEFINED> instruction: 544e4955
    47ac:	414d5f38 			@ <UNDEFINED> instruction: 414d5f38
    47b0:	295f5f58 			@ <UNDEFINED> instruction: 295f5f58
    47b4:	445f5f00 			@ <UNDEFINED> instruction: 445f5f00
    47b8:	4e494645 			@ <UNDEFINED> instruction: 4e494645
    47bc:	705f4445 			@ <UNDEFINED> instruction: 705f4445
    47c0:	69647274 			@ <UNDEFINED> instruction: 69647274
    47c4:	745f6666 			@ <UNDEFINED> instruction: 745f6666
    47c8:	666f0020 			@ <UNDEFINED> instruction: 666f0020
    47cc:	74657366 			@ <UNDEFINED> instruction: 74657366
    47d0:	6c00666f 			@ <UNDEFINED> instruction: 6c00666f
    47d4:	20676e6f 			@ <UNDEFINED> instruction: 20676e6f
    47d8:	5f00342b 			@ <UNDEFINED> instruction: 5f00342b
    47dc:	4d52415f 			@ <UNDEFINED> instruction: 4d52415f
    47e0:	4145465f 			@ <UNDEFINED> instruction: 4145465f
    47e4:	45525554 			@ <UNDEFINED> instruction: 45525554
    47e8:	52444c5f 			@ <UNDEFINED> instruction: 52444c5f
    47ec:	37205845 			@ <UNDEFINED> instruction: 37205845
    47f0:	4c5f5f00 	mrrcmi	15, 0, r5, pc, cr0	@ <UNPREDICTABLE>
    47f4:	4152464c 			@ <UNDEFINED> instruction: 4152464c
    47f8:	455f5443 			@ <UNDEFINED> instruction: 455f5443
    47fc:	4c495350 	mcrrmi	3, 5, r5, r9, cr0
    4800:	5f5f4e4f 			@ <UNDEFINED> instruction: 5f5f4e4f
    4804:	31783020 			@ <UNDEFINED> instruction: 31783020
    4808:	33362d50 			@ <UNDEFINED> instruction: 33362d50
    480c:	00524c4c 			@ <UNDEFINED> instruction: 00524c4c
    4810:	46535f5f 	usaxmi	r5, r3, pc	@ <UNPREDICTABLE>
    4814:	54434152 			@ <UNDEFINED> instruction: 54434152
    4818:	58414d5f 			@ <UNDEFINED> instruction: 58414d5f
    481c:	30205f5f 			@ <UNDEFINED> instruction: 30205f5f
    4820:	50463758 			@ <UNDEFINED> instruction: 50463758
    4824:	5248372d 			@ <UNDEFINED> instruction: 5248372d
    4828:	465f5f00 			@ <UNDEFINED> instruction: 465f5f00
    482c:	3233544c 			@ <UNDEFINED> instruction: 3233544c
    4830:	414d5f58 			@ <UNDEFINED> instruction: 414d5f58
    4834:	445f544e 			@ <UNDEFINED> instruction: 445f544e
    4838:	5f5f4749 			@ <UNDEFINED> instruction: 5f5f4749
    483c:	00333520 			@ <UNDEFINED> instruction: 00333520
    4840:	43575f5f 			@ <UNDEFINED> instruction: 43575f5f
    4844:	5f524148 			@ <UNDEFINED> instruction: 5f524148
    4848:	54444957 			@ <UNDEFINED> instruction: 54444957
    484c:	205f5f48 			@ <UNDEFINED> instruction: 205f5f48
    4850:	5f003233 			@ <UNDEFINED> instruction: 5f003233
    4854:	544e495f 			@ <UNDEFINED> instruction: 544e495f
    4858:	435f3631 			@ <UNDEFINED> instruction: 435f3631
    485c:	20296328 			@ <UNDEFINED> instruction: 20296328
    4860:	43520063 			@ <UNDEFINED> instruction: 43520063
    4864:	50415f43 			@ <UNDEFINED> instruction: 50415f43
    4868:	435f3142 			@ <UNDEFINED> instruction: 435f3142
    486c:	455f4b4c 			@ <UNDEFINED> instruction: 455f4b4c
    4870:	464f5f4e 			@ <UNDEFINED> instruction: 464f5f4e
    4874:	54455346 			@ <UNDEFINED> instruction: 54455346
    4878:	35783020 			@ <UNDEFINED> instruction: 35783020
    487c:	5f005538 			@ <UNDEFINED> instruction: 5f005538
    4880:	5f41445f 			@ <UNDEFINED> instruction: 5f41445f
    4884:	54494249 			@ <UNDEFINED> instruction: 54494249
    4888:	33205f5f 			@ <UNDEFINED> instruction: 33205f5f
    488c:	68730032 			@ <UNDEFINED> instruction: 68730032
    4890:	2074726f 			@ <UNDEFINED> instruction: 2074726f
    4894:	5f00312b 			@ <UNDEFINED> instruction: 5f00312b
    4898:	4d52415f 			@ <UNDEFINED> instruction: 4d52415f
    489c:	4145465f 			@ <UNDEFINED> instruction: 4145465f
    48a0:	45525554 			@ <UNDEFINED> instruction: 45525554
    48a4:	4148535f 			@ <UNDEFINED> instruction: 4148535f
    48a8:	5f5f0032 			@ <UNDEFINED> instruction: 5f5f0032
    48ac:	4d4f5441 			@ <UNDEFINED> instruction: 4d4f5441
    48b0:	415f4349 			@ <UNDEFINED> instruction: 415f4349
    48b4:	525f5143 			@ <UNDEFINED> instruction: 525f5143
    48b8:	34204c45 			@ <UNDEFINED> instruction: 34204c45
    48bc:	495f5f00 			@ <UNDEFINED> instruction: 495f5f00
    48c0:	4c5f544e 	mrrcmi	4, 4, r5, pc, cr14	@ <UNPREDICTABLE>
    48c4:	54534145 			@ <UNDEFINED> instruction: 54534145
    48c8:	59545f38 			@ <UNDEFINED> instruction: 59545f38
    48cc:	5f5f4550 			@ <UNDEFINED> instruction: 5f5f4550
    48d0:	67697320 			@ <UNDEFINED> instruction: 67697320
    48d4:	2064656e 			@ <UNDEFINED> instruction: 2064656e
    48d8:	72616863 			@ <UNDEFINED> instruction: 72616863
    48dc:	485f5f00 			@ <UNDEFINED> instruction: 485f5f00
    48e0:	42495f51 			@ <UNDEFINED> instruction: 42495f51
    48e4:	5f5f5449 			@ <UNDEFINED> instruction: 5f5f5449
    48e8:	5f003020 			@ <UNDEFINED> instruction: 5f003020
    48ec:	41484357 			@ <UNDEFINED> instruction: 41484357
    48f0:	5f545f52 			@ <UNDEFINED> instruction: 5f545f52
    48f4:	49464544 			@ <UNDEFINED> instruction: 49464544
    48f8:	5f44454e 			@ <UNDEFINED> instruction: 5f44454e
    48fc:	5f5f0020 			@ <UNDEFINED> instruction: 5f5f0020
    4900:	32746e69 			@ <UNDEFINED> instruction: 32746e69
    4904:	4e490030 			@ <UNDEFINED> instruction: 4e490030
    4908:	41465f54 			@ <UNDEFINED> instruction: 41465f54
    490c:	32335453 			@ <UNDEFINED> instruction: 32335453
    4910:	58414d5f 			@ <UNDEFINED> instruction: 58414d5f
    4914:	5f5f2820 			@ <UNDEFINED> instruction: 5f5f2820
    4918:	5f544e49 			@ <UNDEFINED> instruction: 5f544e49
    491c:	54534146 			@ <UNDEFINED> instruction: 54534146
    4920:	4d5f3233 			@ <UNDEFINED> instruction: 4d5f3233
    4924:	5f5f5841 			@ <UNDEFINED> instruction: 5f5f5841
    4928:	5f5f0029 			@ <UNDEFINED> instruction: 5f5f0029
    492c:	33544c46 			@ <UNDEFINED> instruction: 33544c46
    4930:	4f4e5f32 			@ <UNDEFINED> instruction: 4f4e5f32
    4934:	4d5f4d52 			@ <UNDEFINED> instruction: 4d5f4d52
    4938:	5f5f5841 			@ <UNDEFINED> instruction: 5f5f5841
    493c:	342e3320 			@ <UNDEFINED> instruction: 342e3320
    4940:	32383230 			@ <UNDEFINED> instruction: 32383230
    4944:	36363433 			@ <UNDEFINED> instruction: 36363433
    4948:	32353833 			@ <UNDEFINED> instruction: 32353833
    494c:	65363838 			@ <UNDEFINED> instruction: 65363838
    4950:	4638332b 			@ <UNDEFINED> instruction: 4638332b
    4954:	49003233 			@ <UNDEFINED> instruction: 49003233
    4958:	485f4332 			@ <UNDEFINED> instruction: 485f4332
    495c:	50470020 			@ <UNDEFINED> instruction: 50470020
    4960:	425f4f49 			@ <UNDEFINED> instruction: 425f4f49
    4964:	20455341 			@ <UNDEFINED> instruction: 20455341
    4968:	38347830 			@ <UNDEFINED> instruction: 38347830
    496c:	30303030 			@ <UNDEFINED> instruction: 30303030
    4970:	00553030 			@ <UNDEFINED> instruction: 00553030
    4974:	534f505f 	movtpl	r5, #61535	@ 0xf05f
    4978:	435f5849 			@ <UNDEFINED> instruction: 435f5849
    497c:	554f535f 			@ <UNDEFINED> instruction: 554f535f
    4980:	00454352 			@ <UNDEFINED> instruction: 00454352
    4984:	49555f5f 			@ <UNDEFINED> instruction: 49555f5f
    4988:	414d544e 			@ <UNDEFINED> instruction: 414d544e
    498c:	414d5f58 			@ <UNDEFINED> instruction: 414d5f58
    4990:	205f5f58 			@ <UNDEFINED> instruction: 205f5f58
    4994:	66667830 			@ <UNDEFINED> instruction: 66667830
    4998:	66666666 			@ <UNDEFINED> instruction: 66666666
    499c:	66666666 			@ <UNDEFINED> instruction: 66666666
    49a0:	66666666 			@ <UNDEFINED> instruction: 66666666
    49a4:	4c556666 	mrrcmi	6, 6, r6, r5, cr6
    49a8:	5f5f004c 			@ <UNDEFINED> instruction: 5f5f004c
    49ac:	5f4c4244 			@ <UNDEFINED> instruction: 5f4c4244
    49b0:	544e414d 			@ <UNDEFINED> instruction: 544e414d
    49b4:	4749445f 	smlsldmi	r4, r9, pc, r4	@ <UNPREDICTABLE>
    49b8:	35205f5f 			@ <UNDEFINED> instruction: 35205f5f
    49bc:	5f5f0033 			@ <UNDEFINED> instruction: 5f5f0033
    49c0:	52464c55 			@ <UNDEFINED> instruction: 52464c55
    49c4:	5f544341 			@ <UNDEFINED> instruction: 5f544341
    49c8:	54494249 			@ <UNDEFINED> instruction: 54494249
    49cc:	30205f5f 			@ <UNDEFINED> instruction: 30205f5f
    49d0:	53595300 			@ <UNDEFINED> instruction: 53595300
    49d4:	56435f54 			@ <UNDEFINED> instruction: 56435f54
    49d8:	2a282052 			@ <UNDEFINED> instruction: 2a282052
    49dc:	6c6f7628 			@ <UNDEFINED> instruction: 6c6f7628
    49e0:	6c697461 			@ <UNDEFINED> instruction: 6c697461
    49e4:	69752065 			@ <UNDEFINED> instruction: 69752065
    49e8:	3233746e 			@ <UNDEFINED> instruction: 3233746e
    49ec:	2a20745f 			@ <UNDEFINED> instruction: 2a20745f
    49f0:	45783029 			@ <UNDEFINED> instruction: 45783029
    49f4:	45303030 			@ <UNDEFINED> instruction: 45303030
    49f8:	55383130 			@ <UNDEFINED> instruction: 55383130
    49fc:	5f5f0029 			@ <UNDEFINED> instruction: 5f5f0029
    4a00:	5f544e49 			@ <UNDEFINED> instruction: 5f544e49
    4a04:	5f58414d 			@ <UNDEFINED> instruction: 5f58414d
    4a08:	7830205f 			@ <UNDEFINED> instruction: 7830205f
    4a0c:	66666637 			@ <UNDEFINED> instruction: 66666637
    4a10:	66666666 			@ <UNDEFINED> instruction: 66666666
    4a14:	495f5f00 			@ <UNDEFINED> instruction: 495f5f00
    4a18:	4c5f544e 	mrrcmi	4, 4, r5, pc, cr14	@ <UNPREDICTABLE>
    4a1c:	54534145 			@ <UNDEFINED> instruction: 54534145
    4a20:	545f3436 			@ <UNDEFINED> instruction: 545f3436
    4a24:	5f455059 			@ <UNDEFINED> instruction: 5f455059
    4a28:	6f6c205f 			@ <UNDEFINED> instruction: 6f6c205f
    4a2c:	6c20676e 			@ <UNDEFINED> instruction: 6c20676e
    4a30:	20676e6f 			@ <UNDEFINED> instruction: 20676e6f
    4a34:	00746e69 			@ <UNDEFINED> instruction: 00746e69
    4a38:	52415f5f 			@ <UNDEFINED> instruction: 52415f5f
    4a3c:	45465f4d 			@ <UNDEFINED> instruction: 45465f4d
    4a40:	52555441 			@ <UNDEFINED> instruction: 52555441
    4a44:	44435f45 			@ <UNDEFINED> instruction: 44435f45
    4a48:	4f435f45 			@ <UNDEFINED> instruction: 4f435f45
    4a4c:	434f5250 	movtmi	r5, #62032	@ 0xf250
    4a50:	43435200 	movtmi	r5, #12800	@ 0x3200
    4a54:	2052435f 			@ <UNDEFINED> instruction: 2052435f
    4a58:	76282a28 			@ <UNDEFINED> instruction: 76282a28
    4a5c:	74616c6f 			@ <UNDEFINED> instruction: 74616c6f
    4a60:	20656c69 			@ <UNDEFINED> instruction: 20656c69
    4a64:	746e6975 			@ <UNDEFINED> instruction: 746e6975
    4a68:	745f3233 			@ <UNDEFINED> instruction: 745f3233
    4a6c:	28292a20 			@ <UNDEFINED> instruction: 28292a20
    4a70:	5f434352 			@ <UNDEFINED> instruction: 5f434352
    4a74:	45534142 			@ <UNDEFINED> instruction: 45534142
    4a78:	52202b20 			@ <UNDEFINED> instruction: 52202b20
    4a7c:	435f4343 			@ <UNDEFINED> instruction: 435f4343
    4a80:	464f5f52 			@ <UNDEFINED> instruction: 464f5f52
    4a84:	54455346 			@ <UNDEFINED> instruction: 54455346
    4a88:	73002929 	movwvc	r2, #2345	@ 0x929
    4a8c:	64656863 			@ <UNDEFINED> instruction: 64656863
    4a90:	4e656c75 			@ <UNDEFINED> instruction: 4e656c75
    4a94:	54747865 			@ <UNDEFINED> instruction: 54747865
    4a98:	006b7361 			@ <UNDEFINED> instruction: 006b7361
    4a9c:	4349564e 	movtmi	r5, #38478	@ 0x964e
    4aa0:	0020485f 			@ <UNDEFINED> instruction: 0020485f
    4aa4:	6f6c6572 			@ <UNDEFINED> instruction: 6f6c6572
    4aa8:	73006461 	movwvc	r6, #1121	@ 0x461
    4aac:	6b636174 			@ <UNDEFINED> instruction: 6b636174
    4ab0:	65736142 			@ <UNDEFINED> instruction: 65736142
    4ab4:	49547800 			@ <UNDEFINED> instruction: 49547800
    4ab8:	52435f4d 			@ <UNDEFINED> instruction: 52435f4d
    4abc:	46464f5f 			@ <UNDEFINED> instruction: 46464f5f
    4ac0:	20544553 			@ <UNDEFINED> instruction: 20544553
    4ac4:	30307830 			@ <UNDEFINED> instruction: 30307830
    4ac8:	70005530 			@ <UNDEFINED> instruction: 70005530
    4acc:	6d617261 			@ <UNDEFINED> instruction: 6d617261
    4ad0:	72657465 			@ <UNDEFINED> instruction: 72657465
    4ad4:	65720073 			@ <UNDEFINED> instruction: 65720073
    4ad8:	656d7573 			@ <UNDEFINED> instruction: 656d7573
    4adc:	6b736154 			@ <UNDEFINED> instruction: 6b736154
    4ae0:	73617400 			@ <UNDEFINED> instruction: 73617400
    4ae4:	6e75466b 			@ <UNDEFINED> instruction: 6e75466b
    4ae8:	6f697463 			@ <UNDEFINED> instruction: 6f697463
    4aec:	7473006e 			@ <UNDEFINED> instruction: 7473006e
    4af0:	00657461 			@ <UNDEFINED> instruction: 00657461
    4af4:	4349564e 	movtmi	r5, #38478	@ 0x964e
    4af8:	4553495f 			@ <UNDEFINED> instruction: 4553495f
    4afc:	41425f52 			@ <UNDEFINED> instruction: 41425f52
    4b00:	30204553 			@ <UNDEFINED> instruction: 30204553
    4b04:	30304578 			@ <UNDEFINED> instruction: 30304578
    4b08:	30314530 			@ <UNDEFINED> instruction: 30314530
    4b0c:	65640030 			@ <UNDEFINED> instruction: 65640030
    4b10:	0079616c 			@ <UNDEFINED> instruction: 0079616c
    4b14:	54646e65 			@ <UNDEFINED> instruction: 54646e65
    4b18:	006b7361 			@ <UNDEFINED> instruction: 006b7361
    4b1c:	6b736154 			@ <UNDEFINED> instruction: 6b736154
    4b20:	74617453 			@ <UNDEFINED> instruction: 74617453
    4b24:	49540065 			@ <UNDEFINED> instruction: 49540065
    4b28:	52535f4d 			@ <UNDEFINED> instruction: 52535f4d
    4b2c:	4649555f 			@ <UNDEFINED> instruction: 4649555f
    4b30:	55312820 			@ <UNDEFINED> instruction: 55312820
    4b34:	203c3c20 			@ <UNDEFINED> instruction: 203c3c20
    4b38:	79002930 			@ <UNDEFINED> instruction: 79002930
    4b3c:	646c6569 			@ <UNDEFINED> instruction: 646c6569
    4b40:	6e655000 			@ <UNDEFINED> instruction: 6e655000
    4b44:	5f565364 			@ <UNDEFINED> instruction: 5f565364
    4b48:	646e6148 			@ <UNDEFINED> instruction: 646e6148
    4b4c:	0072656c 			@ <UNDEFINED> instruction: 0072656c
    4b50:	74696e75 			@ <UNDEFINED> instruction: 74696e75
    4b54:	53555300 			@ <UNDEFINED> instruction: 53555300
    4b58:	444e4550 			@ <UNDEFINED> instruction: 444e4550
    4b5c:	53004445 	movwpl	r4, #1093	@ 0x445
    4b60:	69547379 			@ <UNDEFINED> instruction: 69547379
    4b64:	485f6b63 			@ <UNDEFINED> instruction: 485f6b63
    4b68:	6c646e61 			@ <UNDEFINED> instruction: 6c646e61
    4b6c:	63007265 	movwvs	r7, #613	@ 0x265
    4b70:	6c706d6f 			@ <UNDEFINED> instruction: 6c706d6f
    4b74:	64657465 			@ <UNDEFINED> instruction: 64657465
    4b78:	6b736154 			@ <UNDEFINED> instruction: 6b736154
    4b7c:	74730073 			@ <UNDEFINED> instruction: 74730073
    4b80:	546b6361 			@ <UNDEFINED> instruction: 546b6361
    4b84:	5400706f 			@ <UNDEFINED> instruction: 5400706f
    4b88:	455f4d49 			@ <UNDEFINED> instruction: 455f4d49
    4b8c:	555f5247 			@ <UNDEFINED> instruction: 555f5247
    4b90:	31282047 			@ <UNDEFINED> instruction: 31282047
    4b94:	3c3c2055 			@ <UNDEFINED> instruction: 3c3c2055
    4b98:	00293020 			@ <UNDEFINED> instruction: 00293020
    4b9c:	63617473 			@ <UNDEFINED> instruction: 63617473
    4ba0:	696f506b 			@ <UNDEFINED> instruction: 696f506b
    4ba4:	7265746e 			@ <UNDEFINED> instruction: 7265746e
    4ba8:	4d495400 			@ <UNDEFINED> instruction: 4d495400
    4bac:	5247455f 			@ <UNDEFINED> instruction: 5247455f
    4bb0:	6d697428 			@ <UNDEFINED> instruction: 6d697428
    4bb4:	20297265 			@ <UNDEFINED> instruction: 20297265
    4bb8:	76282a28 			@ <UNDEFINED> instruction: 76282a28
    4bbc:	74616c6f 			@ <UNDEFINED> instruction: 74616c6f
    4bc0:	20656c69 			@ <UNDEFINED> instruction: 20656c69
    4bc4:	746e6975 			@ <UNDEFINED> instruction: 746e6975
    4bc8:	745f3233 			@ <UNDEFINED> instruction: 745f3233
    4bcc:	28292a20 			@ <UNDEFINED> instruction: 28292a20
    4bd0:	454d4954 			@ <UNDEFINED> instruction: 454d4954
    4bd4:	41425f52 			@ <UNDEFINED> instruction: 41425f52
    4bd8:	2b204553 			@ <UNDEFINED> instruction: 2b204553
    4bdc:	69742820 			@ <UNDEFINED> instruction: 69742820
    4be0:	2972656d 			@ <UNDEFINED> instruction: 2972656d
    4be4:	78202b20 			@ <UNDEFINED> instruction: 78202b20
    4be8:	5f4d4954 			@ <UNDEFINED> instruction: 5f4d4954
    4bec:	5f524745 			@ <UNDEFINED> instruction: 5f524745
    4bf0:	5346464f 	movtpl	r4, #26191	@ 0x664f
    4bf4:	29295445 			@ <UNDEFINED> instruction: 29295445
    4bf8:	695f5f00 			@ <UNDEFINED> instruction: 695f5f00
    4bfc:	6572636e 			@ <UNDEFINED> instruction: 6572636e
    4c00:	746e656d 			@ <UNDEFINED> instruction: 746e656d
    4c04:	6369745f 			@ <UNDEFINED> instruction: 6369745f
    4c08:	6e65006b 			@ <UNDEFINED> instruction: 6e65006b
    4c0c:	63695464 			@ <UNDEFINED> instruction: 63695464
    4c10:	5f5f006b 			@ <UNDEFINED> instruction: 5f5f006b
    4c14:	746e6975 			@ <UNDEFINED> instruction: 746e6975
    4c18:	745f3631 			@ <UNDEFINED> instruction: 745f3631
    4c1c:	4d495400 			@ <UNDEFINED> instruction: 4d495400
    4c20:	5252415f 			@ <UNDEFINED> instruction: 5252415f
    4c24:	6d697428 			@ <UNDEFINED> instruction: 6d697428
    4c28:	20297265 			@ <UNDEFINED> instruction: 20297265
    4c2c:	76282a28 			@ <UNDEFINED> instruction: 76282a28
    4c30:	74616c6f 			@ <UNDEFINED> instruction: 74616c6f
    4c34:	20656c69 			@ <UNDEFINED> instruction: 20656c69
    4c38:	746e6975 			@ <UNDEFINED> instruction: 746e6975
    4c3c:	745f3233 			@ <UNDEFINED> instruction: 745f3233
    4c40:	28292a20 			@ <UNDEFINED> instruction: 28292a20
    4c44:	454d4954 			@ <UNDEFINED> instruction: 454d4954
    4c48:	41425f52 			@ <UNDEFINED> instruction: 41425f52
    4c4c:	2b204553 			@ <UNDEFINED> instruction: 2b204553
    4c50:	69742820 			@ <UNDEFINED> instruction: 69742820
    4c54:	2972656d 			@ <UNDEFINED> instruction: 2972656d
    4c58:	78202b20 			@ <UNDEFINED> instruction: 78202b20
    4c5c:	5f4d4954 			@ <UNDEFINED> instruction: 5f4d4954
    4c60:	5f525241 			@ <UNDEFINED> instruction: 5f525241
    4c64:	5346464f 	movtpl	r4, #26191	@ 0x664f
    4c68:	29295445 			@ <UNDEFINED> instruction: 29295445
    4c6c:	746e6900 			@ <UNDEFINED> instruction: 746e6900
    4c70:	75727265 			@ <UNDEFINED> instruction: 75727265
    4c74:	61547470 			@ <UNDEFINED> instruction: 61547470
    4c78:	5f006b73 			@ <UNDEFINED> instruction: 5f006b73
    4c7c:	7465735f 			@ <UNDEFINED> instruction: 7465735f
    4c80:	5053505f 			@ <UNDEFINED> instruction: 5053505f
    4c84:	73615400 			@ <UNDEFINED> instruction: 73615400
    4c88:	6e6f436b 			@ <UNDEFINED> instruction: 6e6f436b
    4c8c:	6c6f7274 			@ <UNDEFINED> instruction: 6c6f7274
    4c90:	636f6c42 			@ <UNDEFINED> instruction: 636f6c42
    4c94:	4954006b 			@ <UNDEFINED> instruction: 4954006b
    4c98:	53505f4d 			@ <UNDEFINED> instruction: 53505f4d
    4c9c:	69742843 			@ <UNDEFINED> instruction: 69742843
    4ca0:	2972656d 			@ <UNDEFINED> instruction: 2972656d
    4ca4:	282a2820 			@ <UNDEFINED> instruction: 282a2820
    4ca8:	616c6f76 			@ <UNDEFINED> instruction: 616c6f76
    4cac:	656c6974 			@ <UNDEFINED> instruction: 656c6974
    4cb0:	6e697520 			@ <UNDEFINED> instruction: 6e697520
    4cb4:	5f323374 			@ <UNDEFINED> instruction: 5f323374
    4cb8:	292a2074 			@ <UNDEFINED> instruction: 292a2074
    4cbc:	4d495428 			@ <UNDEFINED> instruction: 4d495428
    4cc0:	425f5245 			@ <UNDEFINED> instruction: 425f5245
    4cc4:	20455341 			@ <UNDEFINED> instruction: 20455341
    4cc8:	7428202b 			@ <UNDEFINED> instruction: 7428202b
    4ccc:	72656d69 			@ <UNDEFINED> instruction: 72656d69
    4cd0:	202b2029 			@ <UNDEFINED> instruction: 202b2029
    4cd4:	4d495478 			@ <UNDEFINED> instruction: 4d495478
    4cd8:	4353505f 			@ <UNDEFINED> instruction: 4353505f
    4cdc:	46464f5f 			@ <UNDEFINED> instruction: 46464f5f
    4ce0:	29544553 			@ <UNDEFINED> instruction: 29544553
    4ce4:	6f770029 			@ <UNDEFINED> instruction: 6f770029
    4ce8:	00736472 			@ <UNDEFINED> instruction: 00736472
    4cec:	75635f67 			@ <UNDEFINED> instruction: 75635f67
    4cf0:	6e657272 			@ <UNDEFINED> instruction: 6e657272
    4cf4:	73615474 			@ <UNDEFINED> instruction: 73615474
    4cf8:	6e69006b 			@ <UNDEFINED> instruction: 6e69006b
    4cfc:	00786564 			@ <UNDEFINED> instruction: 00786564
    4d00:	4349564e 	movtmi	r5, #38478	@ 0x964e
    4d04:	4241495f 			@ <UNDEFINED> instruction: 4241495f
    4d08:	414d5f52 			@ <UNDEFINED> instruction: 414d5f52
    4d0c:	62284b53 			@ <UNDEFINED> instruction: 62284b53
    4d10:	20297469 			@ <UNDEFINED> instruction: 20297469
    4d14:	31783028 			@ <UNDEFINED> instruction: 31783028
    4d18:	3c3c2055 			@ <UNDEFINED> instruction: 3c3c2055
    4d1c:	69622820 			@ <UNDEFINED> instruction: 69622820
    4d20:	20262074 			@ <UNDEFINED> instruction: 20262074
    4d24:	46317830 			@ <UNDEFINED> instruction: 46317830
    4d28:	00292955 			@ <UNDEFINED> instruction: 00292955
    4d2c:	4349564e 	movtmi	r5, #38478	@ 0x964e
    4d30:	4553495f 			@ <UNDEFINED> instruction: 4553495f
    4d34:	69622852 			@ <UNDEFINED> instruction: 69622852
    4d38:	28202974 			@ <UNDEFINED> instruction: 28202974
    4d3c:	7628282a 			@ <UNDEFINED> instruction: 7628282a
    4d40:	74616c6f 			@ <UNDEFINED> instruction: 74616c6f
    4d44:	20656c69 			@ <UNDEFINED> instruction: 20656c69
    4d48:	746e6975 			@ <UNDEFINED> instruction: 746e6975
    4d4c:	745f3233 			@ <UNDEFINED> instruction: 745f3233
    4d50:	28292a20 			@ <UNDEFINED> instruction: 28292a20
    4d54:	4349564e 	movtmi	r5, #38478	@ 0x964e
    4d58:	4553495f 			@ <UNDEFINED> instruction: 4553495f
    4d5c:	41425f52 			@ <UNDEFINED> instruction: 41425f52
    4d60:	2b204553 			@ <UNDEFINED> instruction: 2b204553
    4d64:	62282820 			@ <UNDEFINED> instruction: 62282820
    4d68:	3e207469 			@ <UNDEFINED> instruction: 3e207469
    4d6c:	2935203e 			@ <UNDEFINED> instruction: 2935203e
    4d70:	203c3c20 			@ <UNDEFINED> instruction: 203c3c20
    4d74:	29292932 			@ <UNDEFINED> instruction: 29292932
    4d78:	74730029 			@ <UNDEFINED> instruction: 74730029
    4d7c:	536b6361 			@ <UNDEFINED> instruction: 536b6361
    4d80:	00657a69 			@ <UNDEFINED> instruction: 00657a69
    4d84:	5f4d4954 			@ <UNDEFINED> instruction: 5f4d4954
    4d88:	52454944 			@ <UNDEFINED> instruction: 52454944
    4d8c:	6d697428 			@ <UNDEFINED> instruction: 6d697428
    4d90:	20297265 			@ <UNDEFINED> instruction: 20297265
    4d94:	76282a28 			@ <UNDEFINED> instruction: 76282a28
    4d98:	74616c6f 			@ <UNDEFINED> instruction: 74616c6f
    4d9c:	20656c69 			@ <UNDEFINED> instruction: 20656c69
    4da0:	746e6975 			@ <UNDEFINED> instruction: 746e6975
    4da4:	745f3233 			@ <UNDEFINED> instruction: 745f3233
    4da8:	28292a20 			@ <UNDEFINED> instruction: 28292a20
    4dac:	454d4954 			@ <UNDEFINED> instruction: 454d4954
    4db0:	41425f52 			@ <UNDEFINED> instruction: 41425f52
    4db4:	2b204553 			@ <UNDEFINED> instruction: 2b204553
    4db8:	69742820 			@ <UNDEFINED> instruction: 69742820
    4dbc:	2972656d 			@ <UNDEFINED> instruction: 2972656d
    4dc0:	78202b20 			@ <UNDEFINED> instruction: 78202b20
    4dc4:	5f4d4954 			@ <UNDEFINED> instruction: 5f4d4954
    4dc8:	52454944 			@ <UNDEFINED> instruction: 52454944
    4dcc:	46464f5f 			@ <UNDEFINED> instruction: 46464f5f
    4dd0:	29544553 			@ <UNDEFINED> instruction: 29544553
    4dd4:	49540029 			@ <UNDEFINED> instruction: 49540029
    4dd8:	5f52454d 			@ <UNDEFINED> instruction: 5f52454d
    4ddc:	45534142 			@ <UNDEFINED> instruction: 45534142
    4de0:	34783020 			@ <UNDEFINED> instruction: 34783020
    4de4:	30303030 			@ <UNDEFINED> instruction: 30303030
    4de8:	55303030 			@ <UNDEFINED> instruction: 55303030
    4dec:	49564e00 			@ <UNDEFINED> instruction: 49564e00
    4df0:	41495f43 			@ <UNDEFINED> instruction: 41495f43
    4df4:	425f5242 			@ <UNDEFINED> instruction: 425f5242
    4df8:	20455341 			@ <UNDEFINED> instruction: 20455341
    4dfc:	30457830 			@ <UNDEFINED> instruction: 30457830
    4e00:	33453030 	movtcc	r3, #20528	@ 0x5030
    4e04:	78003030 			@ <UNDEFINED> instruction: 78003030
    4e08:	5f4d4954 			@ <UNDEFINED> instruction: 5f4d4954
    4e0c:	52454944 			@ <UNDEFINED> instruction: 52454944
    4e10:	46464f5f 			@ <UNDEFINED> instruction: 46464f5f
    4e14:	20544553 			@ <UNDEFINED> instruction: 20544553
    4e18:	43307830 			@ <UNDEFINED> instruction: 43307830
    4e1c:	5f5f0055 			@ <UNDEFINED> instruction: 5f5f0055
    4e20:	00627369 			@ <UNDEFINED> instruction: 00627369
    4e24:	616c6564 			@ <UNDEFINED> instruction: 616c6564
    4e28:	69745f79 			@ <UNDEFINED> instruction: 69745f79
    4e2c:	6300656d 	movwvs	r6, #1389	@ 0x56d
    4e30:	65727275 			@ <UNDEFINED> instruction: 65727275
    4e34:	6954746e 			@ <UNDEFINED> instruction: 6954746e
    4e38:	72006b63 			@ <UNDEFINED> instruction: 72006b63
    4e3c:	63536e75 			@ <UNDEFINED> instruction: 63536e75
    4e40:	75646568 			@ <UNDEFINED> instruction: 75646568
    4e44:	0072656c 			@ <UNDEFINED> instruction: 0072656c
    4e48:	69755f5f 			@ <UNDEFINED> instruction: 69755f5f
    4e4c:	7470746e 			@ <UNDEFINED> instruction: 7470746e
    4e50:	00745f72 			@ <UNDEFINED> instruction: 00745f72
    4e54:	4d495478 			@ <UNDEFINED> instruction: 4d495478
    4e58:	5f52535f 			@ <UNDEFINED> instruction: 5f52535f
    4e5c:	5346464f 	movtpl	r4, #26191	@ 0x664f
    4e60:	30205445 			@ <UNDEFINED> instruction: 30205445
    4e64:	30313078 			@ <UNDEFINED> instruction: 30313078
    4e68:	3a440055 			@ <UNDEFINED> instruction: 3a440055
    4e6c:	706d632f 			@ <UNDEFINED> instruction: 706d632f
    4e70:	2f6a6f72 			@ <UNDEFINED> instruction: 2f6a6f72
    4e74:	336d7473 			@ <UNDEFINED> instruction: 336d7473
    4e78:	72752f32 			@ <UNDEFINED> instruction: 72752f32
    4e7c:	61727561 			@ <UNDEFINED> instruction: 61727561
    4e80:	732d632f 			@ <UNDEFINED> instruction: 732d632f
    4e84:	532f6372 			@ <UNDEFINED> instruction: 532f6372
    4e88:	742f6372 			@ <UNDEFINED> instruction: 742f6372
    4e8c:	61657268 			@ <UNDEFINED> instruction: 61657268
    4e90:	00632e64 			@ <UNDEFINED> instruction: 00632e64
    4e94:	6f697270 			@ <UNDEFINED> instruction: 6f697270
    4e98:	79746972 			@ <UNDEFINED> instruction: 79746972
    4e9c:	554e5500 			@ <UNDEFINED> instruction: 554e5500
    4ea0:	00444553 			@ <UNDEFINED> instruction: 00444553
    4ea4:	4349564e 	movtmi	r5, #38478	@ 0x964e
    4ea8:	4553495f 			@ <UNDEFINED> instruction: 4553495f
    4eac:	414d5f52 			@ <UNDEFINED> instruction: 414d5f52
    4eb0:	62284b53 			@ <UNDEFINED> instruction: 62284b53
    4eb4:	20297469 			@ <UNDEFINED> instruction: 20297469
    4eb8:	31783028 			@ <UNDEFINED> instruction: 31783028
    4ebc:	3c3c2055 			@ <UNDEFINED> instruction: 3c3c2055
    4ec0:	69622820 			@ <UNDEFINED> instruction: 69622820
    4ec4:	20262074 			@ <UNDEFINED> instruction: 20262074
    4ec8:	46317830 			@ <UNDEFINED> instruction: 46317830
    4ecc:	00292955 			@ <UNDEFINED> instruction: 00292955
    4ed0:	5f4d4954 			@ <UNDEFINED> instruction: 5f4d4954
    4ed4:	74285243 			@ <UNDEFINED> instruction: 74285243
    4ed8:	72656d69 			@ <UNDEFINED> instruction: 72656d69
    4edc:	2a282029 			@ <UNDEFINED> instruction: 2a282029
    4ee0:	6c6f7628 			@ <UNDEFINED> instruction: 6c6f7628
    4ee4:	6c697461 			@ <UNDEFINED> instruction: 6c697461
    4ee8:	69752065 			@ <UNDEFINED> instruction: 69752065
    4eec:	3233746e 			@ <UNDEFINED> instruction: 3233746e
    4ef0:	2a20745f 			@ <UNDEFINED> instruction: 2a20745f
    4ef4:	49542829 			@ <UNDEFINED> instruction: 49542829
    4ef8:	5f52454d 			@ <UNDEFINED> instruction: 5f52454d
    4efc:	45534142 			@ <UNDEFINED> instruction: 45534142
    4f00:	28202b20 			@ <UNDEFINED> instruction: 28202b20
    4f04:	656d6974 			@ <UNDEFINED> instruction: 656d6974
    4f08:	2b202972 			@ <UNDEFINED> instruction: 2b202972
    4f0c:	49547820 			@ <UNDEFINED> instruction: 49547820
    4f10:	52435f4d 			@ <UNDEFINED> instruction: 52435f4d
    4f14:	46464f5f 			@ <UNDEFINED> instruction: 46464f5f
    4f18:	29544553 			@ <UNDEFINED> instruction: 29544553
    4f1c:	5f670029 			@ <UNDEFINED> instruction: 5f670029
    4f20:	6b736174 			@ <UNDEFINED> instruction: 6b736174
    4f24:	54780073 			@ <UNDEFINED> instruction: 54780073
    4f28:	455f4d49 			@ <UNDEFINED> instruction: 455f4d49
    4f2c:	4f5f5247 			@ <UNDEFINED> instruction: 4f5f5247
    4f30:	45534646 			@ <UNDEFINED> instruction: 45534646
    4f34:	78302054 			@ <UNDEFINED> instruction: 78302054
    4f38:	55343130 			@ <UNDEFINED> instruction: 55343130
    4f3c:	4d495400 			@ <UNDEFINED> instruction: 4d495400
    4f40:	485f5245 			@ <UNDEFINED> instruction: 485f5245
    4f44:	49540020 			@ <UNDEFINED> instruction: 49540020
    4f48:	4e435f4d 			@ <UNDEFINED> instruction: 4e435f4d
    4f4c:	69742854 			@ <UNDEFINED> instruction: 69742854
    4f50:	2972656d 			@ <UNDEFINED> instruction: 2972656d
    4f54:	282a2820 			@ <UNDEFINED> instruction: 282a2820
    4f58:	616c6f76 			@ <UNDEFINED> instruction: 616c6f76
    4f5c:	656c6974 			@ <UNDEFINED> instruction: 656c6974
    4f60:	6e697520 			@ <UNDEFINED> instruction: 6e697520
    4f64:	5f323374 			@ <UNDEFINED> instruction: 5f323374
    4f68:	292a2074 			@ <UNDEFINED> instruction: 292a2074
    4f6c:	4d495428 			@ <UNDEFINED> instruction: 4d495428
    4f70:	425f5245 			@ <UNDEFINED> instruction: 425f5245
    4f74:	20455341 			@ <UNDEFINED> instruction: 20455341
    4f78:	7428202b 			@ <UNDEFINED> instruction: 7428202b
    4f7c:	72656d69 			@ <UNDEFINED> instruction: 72656d69
    4f80:	202b2029 			@ <UNDEFINED> instruction: 202b2029
    4f84:	4d495478 			@ <UNDEFINED> instruction: 4d495478
    4f88:	544e435f 			@ <UNDEFINED> instruction: 544e435f
    4f8c:	46464f5f 			@ <UNDEFINED> instruction: 46464f5f
    4f90:	29544553 			@ <UNDEFINED> instruction: 29544553
    4f94:	49540029 			@ <UNDEFINED> instruction: 49540029
    4f98:	52535f4d 			@ <UNDEFINED> instruction: 52535f4d
    4f9c:	6d697428 			@ <UNDEFINED> instruction: 6d697428
    4fa0:	20297265 			@ <UNDEFINED> instruction: 20297265
    4fa4:	76282a28 			@ <UNDEFINED> instruction: 76282a28
    4fa8:	74616c6f 			@ <UNDEFINED> instruction: 74616c6f
    4fac:	20656c69 			@ <UNDEFINED> instruction: 20656c69
    4fb0:	746e6975 			@ <UNDEFINED> instruction: 746e6975
    4fb4:	745f3233 			@ <UNDEFINED> instruction: 745f3233
    4fb8:	28292a20 			@ <UNDEFINED> instruction: 28292a20
    4fbc:	454d4954 			@ <UNDEFINED> instruction: 454d4954
    4fc0:	41425f52 			@ <UNDEFINED> instruction: 41425f52
    4fc4:	2b204553 			@ <UNDEFINED> instruction: 2b204553
    4fc8:	69742820 			@ <UNDEFINED> instruction: 69742820
    4fcc:	2972656d 			@ <UNDEFINED> instruction: 2972656d
    4fd0:	78202b20 			@ <UNDEFINED> instruction: 78202b20
    4fd4:	5f4d4954 			@ <UNDEFINED> instruction: 5f4d4954
    4fd8:	4f5f5253 			@ <UNDEFINED> instruction: 4f5f5253
    4fdc:	45534646 			@ <UNDEFINED> instruction: 45534646
    4fe0:	00292954 			@ <UNDEFINED> instruction: 00292954
    4fe4:	72745f5f 			@ <UNDEFINED> instruction: 72745f5f
    4fe8:	65676769 			@ <UNDEFINED> instruction: 65676769
    4fec:	65705f72 			@ <UNDEFINED> instruction: 65705f72
    4ff0:	7673646e 			@ <UNDEFINED> instruction: 7673646e
    4ff4:	4d495400 			@ <UNDEFINED> instruction: 4d495400
    4ff8:	5f52435f 			@ <UNDEFINED> instruction: 5f52435f
    4ffc:	204e4543 			@ <UNDEFINED> instruction: 204e4543
    5000:	20553128 			@ <UNDEFINED> instruction: 20553128
    5004:	30203c3c 			@ <UNDEFINED> instruction: 30203c3c
    5008:	4f430029 			@ <UNDEFINED> instruction: 4f430029
    500c:	454c504d 			@ <UNDEFINED> instruction: 454c504d
    5010:	00444554 			@ <UNDEFINED> instruction: 00444554
    5014:	75635f67 			@ <UNDEFINED> instruction: 75635f67
    5018:	6e657272 			@ <UNDEFINED> instruction: 6e657272
    501c:	73615474 			@ <UNDEFINED> instruction: 73615474
    5020:	646e496b 			@ <UNDEFINED> instruction: 646e496b
    5024:	54007865 			@ <UNDEFINED> instruction: 54007865
    5028:	445f4d49 			@ <UNDEFINED> instruction: 445f4d49
    502c:	5f524549 			@ <UNDEFINED> instruction: 5f524549
    5030:	20454955 			@ <UNDEFINED> instruction: 20454955
    5034:	20553128 			@ <UNDEFINED> instruction: 20553128
    5038:	30203c3c 			@ <UNDEFINED> instruction: 30203c3c
    503c:	616e0029 			@ <UNDEFINED> instruction: 616e0029
    5040:	7800656d 			@ <UNDEFINED> instruction: 7800656d
    5044:	5f4d4954 			@ <UNDEFINED> instruction: 5f4d4954
    5048:	5f435350 			@ <UNDEFINED> instruction: 5f435350
    504c:	5346464f 	movtpl	r4, #26191	@ 0x664f
    5050:	30205445 			@ <UNDEFINED> instruction: 30205445
    5054:	38323078 			@ <UNDEFINED> instruction: 38323078
    5058:	5f670055 			@ <UNDEFINED> instruction: 5f670055
    505c:	6b736174 			@ <UNDEFINED> instruction: 6b736174
    5060:	63617453 			@ <UNDEFINED> instruction: 63617453
    5064:	4100736b 			@ <UNDEFINED> instruction: 4100736b
    5068:	56495443 			@ <UNDEFINED> instruction: 56495443
    506c:	5f5f0045 			@ <UNDEFINED> instruction: 5f5f0045
    5070:	00627364 			@ <UNDEFINED> instruction: 00627364
    5074:	76735f5f 	uhsaxvc	r5, r3, pc	@ <UNPREDICTABLE>
    5078:	72745f63 			@ <UNDEFINED> instruction: 72745f63
    507c:	65676769 			@ <UNDEFINED> instruction: 65676769
    5080:	5f670072 			@ <UNDEFINED> instruction: 5f670072
    5084:	61657263 			@ <UNDEFINED> instruction: 61657263
    5088:	54646574 			@ <UNDEFINED> instruction: 54646574
    508c:	436b7361 			@ <UNDEFINED> instruction: 436b7361
    5090:	746e756f 			@ <UNDEFINED> instruction: 746e756f
    5094:	49547800 			@ <UNDEFINED> instruction: 49547800
    5098:	52415f4d 			@ <UNDEFINED> instruction: 52415f4d
    509c:	464f5f52 			@ <UNDEFINED> instruction: 464f5f52
    50a0:	54455346 			@ <UNDEFINED> instruction: 54455346
    50a4:	30783020 			@ <UNDEFINED> instruction: 30783020
    50a8:	00554332 			@ <UNDEFINED> instruction: 00554332
    50ac:	61657263 			@ <UNDEFINED> instruction: 61657263
    50b0:	61546574 			@ <UNDEFINED> instruction: 61546574
    50b4:	4e006b73 	vmovmi.16	d0[1], r6
    50b8:	5f434956 			@ <UNDEFINED> instruction: 5f434956
    50bc:	52424149 			@ <UNDEFINED> instruction: 52424149
    50c0:	74696228 			@ <UNDEFINED> instruction: 74696228
    50c4:	2a282029 			@ <UNDEFINED> instruction: 2a282029
    50c8:	6f762828 			@ <UNDEFINED> instruction: 6f762828
    50cc:	6974616c 			@ <UNDEFINED> instruction: 6974616c
    50d0:	7520656c 			@ <UNDEFINED> instruction: 7520656c
    50d4:	33746e69 			@ <UNDEFINED> instruction: 33746e69
    50d8:	20745f32 			@ <UNDEFINED> instruction: 20745f32
    50dc:	4e28292a 			@ <UNDEFINED> instruction: 4e28292a
    50e0:	5f434956 			@ <UNDEFINED> instruction: 5f434956
    50e4:	52424149 			@ <UNDEFINED> instruction: 52424149
    50e8:	5341425f 	movtpl	r4, #4703	@ 0x125f
    50ec:	202b2045 			@ <UNDEFINED> instruction: 202b2045
    50f0:	69622828 			@ <UNDEFINED> instruction: 69622828
    50f4:	3e3e2074 			@ <UNDEFINED> instruction: 3e3e2074
    50f8:	20293520 			@ <UNDEFINED> instruction: 20293520
    50fc:	32203c3c 			@ <UNDEFINED> instruction: 32203c3c
    5100:	29292929 			@ <UNDEFINED> instruction: 29292929
    5104:	775f5f00 			@ <UNDEFINED> instruction: 775f5f00
    5108:	5f746961 			@ <UNDEFINED> instruction: 5f746961
    510c:	5f726f66 			@ <UNDEFINED> instruction: 5f726f66
    5110:	65746e69 			@ <UNDEFINED> instruction: 65746e69
    5114:	70757272 			@ <UNDEFINED> instruction: 70757272
    5118:	52460074 			@ <UNDEFINED> instruction: 52460074
    511c:	485f5145 			@ <UNDEFINED> instruction: 485f5145
    5120:	3631205a 			@ <UNDEFINED> instruction: 3631205a
    5124:	55303030 			@ <UNDEFINED> instruction: 55303030
    5128:	43565300 			@ <UNDEFINED> instruction: 43565300
    512c:	6e61485f 			@ <UNDEFINED> instruction: 6e61485f
    5130:	72656c64 			@ <UNDEFINED> instruction: 72656c64
    5134:	49547800 			@ <UNDEFINED> instruction: 49547800
    5138:	4e435f4d 			@ <UNDEFINED> instruction: 4e435f4d
    513c:	464f5f54 			@ <UNDEFINED> instruction: 464f5f54
    5140:	54455346 			@ <UNDEFINED> instruction: 54455346
    5144:	30783020 			@ <UNDEFINED> instruction: 30783020
    5148:	00553432 			@ <UNDEFINED> instruction: 00553432
    514c:	7478656e 			@ <UNDEFINED> instruction: 7478656e
    5150:	74656700 			@ <UNDEFINED> instruction: 74656700
    5154:	72727543 			@ <UNDEFINED> instruction: 72727543
    5158:	54746e65 			@ <UNDEFINED> instruction: 54746e65
    515c:	496b7361 			@ <UNDEFINED> instruction: 496b7361
    5160:	7865646e 			@ <UNDEFINED> instruction: 7865646e
    5164:	4d495400 			@ <UNDEFINED> instruction: 4d495400
    5168:	5400325f 			@ <UNDEFINED> instruction: 5400325f
    516c:	335f4d49 			@ <UNDEFINED> instruction: 335f4d49
    5170:	4d495400 			@ <UNDEFINED> instruction: 4d495400
    5174:	5400345f 			@ <UNDEFINED> instruction: 5400345f
    5178:	355f4d49 			@ <UNDEFINED> instruction: 355f4d49
    517c:	4d495400 			@ <UNDEFINED> instruction: 4d495400
    5180:	5400365f 			@ <UNDEFINED> instruction: 5400365f
    5184:	375f4d49 			@ <UNDEFINED> instruction: 375f4d49
    5188:	4d495400 			@ <UNDEFINED> instruction: 4d495400
    518c:	52495f33 			@ <UNDEFINED> instruction: 52495f33
    5190:	6e614851 			@ <UNDEFINED> instruction: 6e614851
    5194:	72656c64 			@ <UNDEFINED> instruction: 72656c64
    5198:	725f5f00 			@ <UNDEFINED> instruction: 725f5f00
    519c:	74657365 			@ <UNDEFINED> instruction: 74657365
    51a0:	6d69745f 			@ <UNDEFINED> instruction: 6d69745f
    51a4:	5f007265 			@ <UNDEFINED> instruction: 5f007265
    51a8:	6965725f 			@ <UNDEFINED> instruction: 6965725f
    51ac:	5f74696e 			@ <UNDEFINED> instruction: 5f74696e
    51b0:	00746e63 			@ <UNDEFINED> instruction: 00746e63
    51b4:	4349564e 	movtmi	r5, #38478	@ 0x964e
    51b8:	5152495f 			@ <UNDEFINED> instruction: 5152495f
    51bc:	4d49545f 			@ <UNDEFINED> instruction: 4d49545f
    51c0:	65730035 			@ <UNDEFINED> instruction: 65730035
    51c4:	72615f74 			@ <UNDEFINED> instruction: 72615f74
    51c8:	73700072 			@ <UNDEFINED> instruction: 73700072
    51cc:	61765f63 			@ <UNDEFINED> instruction: 61765f63
    51d0:	0065756c 			@ <UNDEFINED> instruction: 0065756c
    51d4:	4349564e 	movtmi	r5, #38478	@ 0x964e
    51d8:	5152495f 			@ <UNDEFINED> instruction: 5152495f
    51dc:	4d49545f 			@ <UNDEFINED> instruction: 4d49545f
    51e0:	564e0032 			@ <UNDEFINED> instruction: 564e0032
    51e4:	495f4349 			@ <UNDEFINED> instruction: 495f4349
    51e8:	545f5152 			@ <UNDEFINED> instruction: 545f5152
    51ec:	00334d49 			@ <UNDEFINED> instruction: 00334d49
    51f0:	4349564e 	movtmi	r5, #38478	@ 0x964e
    51f4:	5152495f 			@ <UNDEFINED> instruction: 5152495f
    51f8:	4d49545f 			@ <UNDEFINED> instruction: 4d49545f
    51fc:	5f5f0034 			@ <UNDEFINED> instruction: 5f5f0034
    5200:	62616e65 			@ <UNDEFINED> instruction: 62616e65
    5204:	695f656c 			@ <UNDEFINED> instruction: 695f656c
    5208:	6e007172 			@ <UNDEFINED> instruction: 6e007172
    520c:	5f636976 			@ <UNDEFINED> instruction: 5f636976
    5210:	5f717269 			@ <UNDEFINED> instruction: 5f717269
    5214:	49540074 			@ <UNDEFINED> instruction: 49540074
    5218:	495f344d 			@ <UNDEFINED> instruction: 495f344d
    521c:	61485152 			@ <UNDEFINED> instruction: 61485152
    5220:	656c646e 			@ <UNDEFINED> instruction: 656c646e
    5224:	69740072 			@ <UNDEFINED> instruction: 69740072
    5228:	5f72656d 			@ <UNDEFINED> instruction: 5f72656d
    522c:	74696e69 			@ <UNDEFINED> instruction: 74696e69
    5230:	6d697400 			@ <UNDEFINED> instruction: 6d697400
    5234:	65447265 			@ <UNDEFINED> instruction: 65447265
    5238:	0079616c 			@ <UNDEFINED> instruction: 0079616c
    523c:	656d6974 			@ <UNDEFINED> instruction: 656d6974
    5240:	00745f72 			@ <UNDEFINED> instruction: 00745f72
    5244:	324d4954 			@ <UNDEFINED> instruction: 324d4954
    5248:	5152495f 			@ <UNDEFINED> instruction: 5152495f
    524c:	646e6148 			@ <UNDEFINED> instruction: 646e6148
    5250:	0072656c 			@ <UNDEFINED> instruction: 0072656c
    5254:	656d6974 			@ <UNDEFINED> instruction: 656d6974
    5258:	69775f72 			@ <UNDEFINED> instruction: 69775f72
    525c:	695f6874 			@ <UNDEFINED> instruction: 695f6874
    5260:	7265746e 			@ <UNDEFINED> instruction: 7265746e
    5264:	74707572 			@ <UNDEFINED> instruction: 74707572
    5268:	74656700 			@ <UNDEFINED> instruction: 74656700
    526c:	69766e5f 			@ <UNDEFINED> instruction: 69766e5f
    5270:	72665f63 			@ <UNDEFINED> instruction: 72665f63
    5274:	745f6d6f 			@ <UNDEFINED> instruction: 745f6d6f
    5278:	72656d69 			@ <UNDEFINED> instruction: 72656d69
    527c:	655f5f00 			@ <UNDEFINED> instruction: 655f5f00
    5280:	6c62616e 			@ <UNDEFINED> instruction: 6c62616e
    5284:	73695f65 			@ <UNDEFINED> instruction: 73695f65
    5288:	44007265 			@ <UNDEFINED> instruction: 44007265
    528c:	6d632f3a 			@ <UNDEFINED> instruction: 6d632f3a
    5290:	6a6f7270 			@ <UNDEFINED> instruction: 6a6f7270
    5294:	6d74732f 			@ <UNDEFINED> instruction: 6d74732f
    5298:	752f3233 			@ <UNDEFINED> instruction: 752f3233
    529c:	72756172 			@ <UNDEFINED> instruction: 72756172
    52a0:	2d632f61 			@ <UNDEFINED> instruction: 2d632f61
    52a4:	2f637273 			@ <UNDEFINED> instruction: 2f637273
    52a8:	2f637253 			@ <UNDEFINED> instruction: 2f637253
    52ac:	656d6974 			@ <UNDEFINED> instruction: 656d6974
    52b0:	00632e72 			@ <UNDEFINED> instruction: 00632e72
    52b4:	5f746573 			@ <UNDEFINED> instruction: 5f746573
    52b8:	00637370 			@ <UNDEFINED> instruction: 00637370
    52bc:	61736964 			@ <UNDEFINED> instruction: 61736964
    52c0:	5f656c62 			@ <UNDEFINED> instruction: 5f656c62
    52c4:	656d6974 			@ <UNDEFINED> instruction: 656d6974
    52c8:	6e695f72 			@ <UNDEFINED> instruction: 6e695f72
    52cc:	72726574 			@ <UNDEFINED> instruction: 72726574
    52d0:	00747075 			@ <UNDEFINED> instruction: 00747075
    52d4:	354d4954 			@ <UNDEFINED> instruction: 354d4954
    52d8:	5152495f 			@ <UNDEFINED> instruction: 5152495f
    52dc:	646e6148 			@ <UNDEFINED> instruction: 646e6148
    52e0:	0072656c 			@ <UNDEFINED> instruction: 0072656c
    52e4:	62616e65 			@ <UNDEFINED> instruction: 62616e65
    52e8:	745f656c 			@ <UNDEFINED> instruction: 745f656c
    52ec:	72656d69 			@ <UNDEFINED> instruction: 72656d69
    52f0:	746e695f 			@ <UNDEFINED> instruction: 746e695f
    52f4:	75727265 			@ <UNDEFINED> instruction: 75727265
    52f8:	63007470 	movwvs	r7, #1136	@ 0x470
    52fc:	7261656c 			@ <UNDEFINED> instruction: 7261656c
    5300:	6470755f 			@ <UNDEFINED> instruction: 6470755f
    5304:	5f657461 			@ <UNDEFINED> instruction: 5f657461
    5308:	65746e69 			@ <UNDEFINED> instruction: 65746e69
    530c:	70757272 			@ <UNDEFINED> instruction: 70757272
    5310:	6c665f74 			@ <UNDEFINED> instruction: 6c665f74
    5314:	5f006761 			@ <UNDEFINED> instruction: 5f006761
    5318:	6174735f 			@ <UNDEFINED> instruction: 6174735f
    531c:	745f7472 			@ <UNDEFINED> instruction: 745f7472
    5320:	72656d69 			@ <UNDEFINED> instruction: 72656d69
    5324:	2f3a4400 			@ <UNDEFINED> instruction: 2f3a4400
    5328:	72706d63 			@ <UNDEFINED> instruction: 72706d63
    532c:	732f6a6f 			@ <UNDEFINED> instruction: 732f6a6f
    5330:	32336d74 			@ <UNDEFINED> instruction: 32336d74
    5334:	6172752f 			@ <UNDEFINED> instruction: 6172752f
    5338:	2f617275 			@ <UNDEFINED> instruction: 2f617275
    533c:	72732d63 			@ <UNDEFINED> instruction: 72732d63
    5340:	72532f63 			@ <UNDEFINED> instruction: 72532f63
    5344:	74735c63 			@ <UNDEFINED> instruction: 74735c63
    5348:	75747261 			@ <UNDEFINED> instruction: 75747261
    534c:	74735f70 			@ <UNDEFINED> instruction: 74735f70
    5350:	6732336d 			@ <UNDEFINED> instruction: 6732336d
    5354:	78343734 			@ <UNDEFINED> instruction: 78343734
    5358:	00532e78 			@ <UNDEFINED> instruction: 00532e78
    535c:	20554e47 			@ <UNDEFINED> instruction: 20554e47
    5360:	32205341 			@ <UNDEFINED> instruction: 32205341
    5364:	2e34342e 			@ <UNDEFINED> instruction: 2e34342e
    5368:	65520030 			@ <UNDEFINED> instruction: 65520030
    536c:	5f746573 			@ <UNDEFINED> instruction: 5f746573
    5370:	646e6148 			@ <UNDEFINED> instruction: 646e6148
    5374:	0072656c 			@ <UNDEFINED> instruction: 0072656c

Disassembly of section .comment:

00000000 <.comment>:
   0:	3a434347 			@ <UNDEFINED> instruction: 3a434347
   4:	4e472820 			@ <UNDEFINED> instruction: 4e472820
   8:	6f542055 			@ <UNDEFINED> instruction: 6f542055
   c:	20736c6f 			@ <UNDEFINED> instruction: 20736c6f
  10:	20726f66 			@ <UNDEFINED> instruction: 20726f66
  14:	334d5453 	movtcc	r5, #54355	@ 0xd453
  18:	34312032 			@ <UNDEFINED> instruction: 34312032
  1c:	722e332e 			@ <UNDEFINED> instruction: 722e332e
  20:	2e316c65 			@ <UNDEFINED> instruction: 2e316c65
  24:	35323032 			@ <UNDEFINED> instruction: 35323032
  28:	37323031 			@ <UNDEFINED> instruction: 37323031
  2c:	3037302d 			@ <UNDEFINED> instruction: 3037302d
  30:	31202930 			@ <UNDEFINED> instruction: 31202930
  34:	2e332e34 			@ <UNDEFINED> instruction: 2e332e34
  38:	30322031 			@ <UNDEFINED> instruction: 30322031
  3c:	36303532 			@ <UNDEFINED> instruction: 36303532
  40:	Address 0x40 is out of bounds.


Disassembly of section .debug_loclists:

00000000 <.debug_loclists>:
   0:	00000014 			@ <UNDEFINED> instruction: 00000014
   4:	00040005 			@ <UNDEFINED> instruction: 00040005
   8:	00000000 			@ <UNDEFINED> instruction: 00000000
   c:	00000008 			@ <UNDEFINED> instruction: 00000008
  10:	0a041800 			@ <UNDEFINED> instruction: 0a041800
  14:	009f3e7f 			@ <UNDEFINED> instruction: 009f3e7f

Disassembly of section .debug_line_str:

00000000 <.debug_line_str>:
   0:	632f3a44 			@ <UNDEFINED> instruction: 632f3a44
   4:	6f72706d 			@ <UNDEFINED> instruction: 6f72706d
   8:	74732f6a 			@ <UNDEFINED> instruction: 74732f6a
   c:	2f32336d 			@ <UNDEFINED> instruction: 2f32336d
  10:	75617275 			@ <UNDEFINED> instruction: 75617275
  14:	632f6172 			@ <UNDEFINED> instruction: 632f6172
  18:	6372732d 			@ <UNDEFINED> instruction: 6372732d
  1c:	6975622f 			@ <UNDEFINED> instruction: 6975622f
  20:	442f646c 			@ <UNDEFINED> instruction: 442f646c
  24:	67756265 			@ <UNDEFINED> instruction: 67756265
  28:	2f3a4400 			@ <UNDEFINED> instruction: 2f3a4400
  2c:	72706d63 			@ <UNDEFINED> instruction: 72706d63
  30:	732f6a6f 			@ <UNDEFINED> instruction: 732f6a6f
  34:	32336d74 			@ <UNDEFINED> instruction: 32336d74
  38:	6172752f 			@ <UNDEFINED> instruction: 6172752f
  3c:	2f617275 			@ <UNDEFINED> instruction: 2f617275
  40:	72732d63 			@ <UNDEFINED> instruction: 72732d63
  44:	72532f63 			@ <UNDEFINED> instruction: 72532f63
  48:	74730063 			@ <UNDEFINED> instruction: 74730063
  4c:	75747261 			@ <UNDEFINED> instruction: 75747261
  50:	74735f70 			@ <UNDEFINED> instruction: 74735f70
  54:	6732336d 			@ <UNDEFINED> instruction: 6732336d
  58:	78343734 			@ <UNDEFINED> instruction: 78343734
  5c:	00532e78 			@ <UNDEFINED> instruction: 00532e78
